(lp0
(lp1
cnumpy.core.multiarray
scalar
p2
(cnumpy
dtype
p3
(S'S5'
p4
I0
I1
tp5
Rp6
(I3
S'|'
p7
NNNI5
I1
I0
tp8
bS'HARD1'
p9
tp10
Rp11
ag2
(g3
(S'S5'
p12
I0
I1
tp13
Rp14
(I3
S'|'
p15
NNNI5
I1
I0
tp16
bS'HARD1'
p17
tp18
Rp19
ag2
(g3
(S'S5'
p20
I0
I1
tp21
Rp22
(I3
S'|'
p23
NNNI5
I1
I0
tp24
bS'HARD1'
p25
tp26
Rp27
ag2
(g3
(S'S5'
p28
I0
I1
tp29
Rp30
(I3
S'|'
p31
NNNI5
I1
I0
tp32
bS'HARD1'
p33
tp34
Rp35
ag2
(g3
(S'S5'
p36
I0
I1
tp37
Rp38
(I3
S'|'
p39
NNNI5
I1
I0
tp40
bS'HARD1'
p41
tp42
Rp43
ag2
(g3
(S'S5'
p44
I0
I1
tp45
Rp46
(I3
S'|'
p47
NNNI5
I1
I0
tp48
bS'HARD1'
p49
tp50
Rp51
ag2
(g3
(S'S5'
p52
I0
I1
tp53
Rp54
(I3
S'|'
p55
NNNI5
I1
I0
tp56
bS'HARD1'
p57
tp58
Rp59
ag2
(g3
(S'S5'
p60
I0
I1
tp61
Rp62
(I3
S'|'
p63
NNNI5
I1
I0
tp64
bS'HARD1'
p65
tp66
Rp67
ag2
(g3
(S'S5'
p68
I0
I1
tp69
Rp70
(I3
S'|'
p71
NNNI5
I1
I0
tp72
bS'HARD1'
p73
tp74
Rp75
ag2
(g3
(S'S5'
p76
I0
I1
tp77
Rp78
(I3
S'|'
p79
NNNI5
I1
I0
tp80
bS'HARD1'
p81
tp82
Rp83
ag2
(g3
(S'S5'
p84
I0
I1
tp85
Rp86
(I3
S'|'
p87
NNNI5
I1
I0
tp88
bS'HARD1'
p89
tp90
Rp91
ag2
(g3
(S'S5'
p92
I0
I1
tp93
Rp94
(I3
S'|'
p95
NNNI5
I1
I0
tp96
bS'HARD1'
p97
tp98
Rp99
ag2
(g3
(S'S5'
p100
I0
I1
tp101
Rp102
(I3
S'|'
p103
NNNI5
I1
I0
tp104
bS'HARD1'
p105
tp106
Rp107
ag2
(g3
(S'S5'
p108
I0
I1
tp109
Rp110
(I3
S'|'
p111
NNNI5
I1
I0
tp112
bS'HARD1'
p113
tp114
Rp115
ag2
(g3
(S'S5'
p116
I0
I1
tp117
Rp118
(I3
S'|'
p119
NNNI5
I1
I0
tp120
bS'HARD1'
p121
tp122
Rp123
ag2
(g3
(S'S5'
p124
I0
I1
tp125
Rp126
(I3
S'|'
p127
NNNI5
I1
I0
tp128
bS'HARD1'
p129
tp130
Rp131
ag2
(g3
(S'S5'
p132
I0
I1
tp133
Rp134
(I3
S'|'
p135
NNNI5
I1
I0
tp136
bS'HARD1'
p137
tp138
Rp139
ag2
(g3
(S'S5'
p140
I0
I1
tp141
Rp142
(I3
S'|'
p143
NNNI5
I1
I0
tp144
bS'HARD1'
p145
tp146
Rp147
ag2
(g3
(S'S5'
p148
I0
I1
tp149
Rp150
(I3
S'|'
p151
NNNI5
I1
I0
tp152
bS'HARD1'
p153
tp154
Rp155
ag2
(g3
(S'S5'
p156
I0
I1
tp157
Rp158
(I3
S'|'
p159
NNNI5
I1
I0
tp160
bS'HARD1'
p161
tp162
Rp163
ag2
(g3
(S'S5'
p164
I0
I1
tp165
Rp166
(I3
S'|'
p167
NNNI5
I1
I0
tp168
bS'HARD1'
p169
tp170
Rp171
ag2
(g3
(S'S5'
p172
I0
I1
tp173
Rp174
(I3
S'|'
p175
NNNI5
I1
I0
tp176
bS'HARD1'
p177
tp178
Rp179
ag2
(g3
(S'S5'
p180
I0
I1
tp181
Rp182
(I3
S'|'
p183
NNNI5
I1
I0
tp184
bS'HARD1'
p185
tp186
Rp187
ag2
(g3
(S'S5'
p188
I0
I1
tp189
Rp190
(I3
S'|'
p191
NNNI5
I1
I0
tp192
bS'HARD1'
p193
tp194
Rp195
ag2
(g3
(S'S5'
p196
I0
I1
tp197
Rp198
(I3
S'|'
p199
NNNI5
I1
I0
tp200
bS'HARD1'
p201
tp202
Rp203
ag2
(g3
(S'S5'
p204
I0
I1
tp205
Rp206
(I3
S'|'
p207
NNNI5
I1
I0
tp208
bS'HARD1'
p209
tp210
Rp211
ag2
(g3
(S'S5'
p212
I0
I1
tp213
Rp214
(I3
S'|'
p215
NNNI5
I1
I0
tp216
bS'HARD1'
p217
tp218
Rp219
ag2
(g3
(S'S5'
p220
I0
I1
tp221
Rp222
(I3
S'|'
p223
NNNI5
I1
I0
tp224
bS'HARD1'
p225
tp226
Rp227
ag2
(g3
(S'S5'
p228
I0
I1
tp229
Rp230
(I3
S'|'
p231
NNNI5
I1
I0
tp232
bS'HARD1'
p233
tp234
Rp235
ag2
(g3
(S'S5'
p236
I0
I1
tp237
Rp238
(I3
S'|'
p239
NNNI5
I1
I0
tp240
bS'HARD1'
p241
tp242
Rp243
ag2
(g3
(S'S5'
p244
I0
I1
tp245
Rp246
(I3
S'|'
p247
NNNI5
I1
I0
tp248
bS'HARD1'
p249
tp250
Rp251
ag2
(g3
(S'S5'
p252
I0
I1
tp253
Rp254
(I3
S'|'
p255
NNNI5
I1
I0
tp256
bS'HARD1'
p257
tp258
Rp259
ag2
(g3
(S'S5'
p260
I0
I1
tp261
Rp262
(I3
S'|'
p263
NNNI5
I1
I0
tp264
bS'HARD1'
p265
tp266
Rp267
ag2
(g3
(S'S5'
p268
I0
I1
tp269
Rp270
(I3
S'|'
p271
NNNI5
I1
I0
tp272
bS'HARD1'
p273
tp274
Rp275
ag2
(g3
(S'S5'
p276
I0
I1
tp277
Rp278
(I3
S'|'
p279
NNNI5
I1
I0
tp280
bS'HARD1'
p281
tp282
Rp283
ag2
(g3
(S'S5'
p284
I0
I1
tp285
Rp286
(I3
S'|'
p287
NNNI5
I1
I0
tp288
bS'HARD1'
p289
tp290
Rp291
ag2
(g3
(S'S5'
p292
I0
I1
tp293
Rp294
(I3
S'|'
p295
NNNI5
I1
I0
tp296
bS'HARD1'
p297
tp298
Rp299
ag2
(g3
(S'S5'
p300
I0
I1
tp301
Rp302
(I3
S'|'
p303
NNNI5
I1
I0
tp304
bS'HARD1'
p305
tp306
Rp307
ag2
(g3
(S'S5'
p308
I0
I1
tp309
Rp310
(I3
S'|'
p311
NNNI5
I1
I0
tp312
bS'HARD1'
p313
tp314
Rp315
ag2
(g3
(S'S5'
p316
I0
I1
tp317
Rp318
(I3
S'|'
p319
NNNI5
I1
I0
tp320
bS'HARD1'
p321
tp322
Rp323
ag2
(g3
(S'S5'
p324
I0
I1
tp325
Rp326
(I3
S'|'
p327
NNNI5
I1
I0
tp328
bS'HARD1'
p329
tp330
Rp331
ag2
(g3
(S'S5'
p332
I0
I1
tp333
Rp334
(I3
S'|'
p335
NNNI5
I1
I0
tp336
bS'HARD1'
p337
tp338
Rp339
ag2
(g3
(S'S5'
p340
I0
I1
tp341
Rp342
(I3
S'|'
p343
NNNI5
I1
I0
tp344
bS'HARD1'
p345
tp346
Rp347
ag2
(g3
(S'S5'
p348
I0
I1
tp349
Rp350
(I3
S'|'
p351
NNNI5
I1
I0
tp352
bS'HARD1'
p353
tp354
Rp355
ag2
(g3
(S'S5'
p356
I0
I1
tp357
Rp358
(I3
S'|'
p359
NNNI5
I1
I0
tp360
bS'HARD1'
p361
tp362
Rp363
ag2
(g3
(S'S5'
p364
I0
I1
tp365
Rp366
(I3
S'|'
p367
NNNI5
I1
I0
tp368
bS'HARD1'
p369
tp370
Rp371
ag2
(g3
(S'S5'
p372
I0
I1
tp373
Rp374
(I3
S'|'
p375
NNNI5
I1
I0
tp376
bS'HARD1'
p377
tp378
Rp379
ag2
(g3
(S'S5'
p380
I0
I1
tp381
Rp382
(I3
S'|'
p383
NNNI5
I1
I0
tp384
bS'HARD1'
p385
tp386
Rp387
ag2
(g3
(S'S5'
p388
I0
I1
tp389
Rp390
(I3
S'|'
p391
NNNI5
I1
I0
tp392
bS'HARD1'
p393
tp394
Rp395
ag2
(g3
(S'S5'
p396
I0
I1
tp397
Rp398
(I3
S'|'
p399
NNNI5
I1
I0
tp400
bS'HARD1'
p401
tp402
Rp403
ag2
(g3
(S'S5'
p404
I0
I1
tp405
Rp406
(I3
S'|'
p407
NNNI5
I1
I0
tp408
bS'HARD1'
p409
tp410
Rp411
ag2
(g3
(S'S5'
p412
I0
I1
tp413
Rp414
(I3
S'|'
p415
NNNI5
I1
I0
tp416
bS'HARD1'
p417
tp418
Rp419
ag2
(g3
(S'S5'
p420
I0
I1
tp421
Rp422
(I3
S'|'
p423
NNNI5
I1
I0
tp424
bS'HARD1'
p425
tp426
Rp427
ag2
(g3
(S'S5'
p428
I0
I1
tp429
Rp430
(I3
S'|'
p431
NNNI5
I1
I0
tp432
bS'HARD1'
p433
tp434
Rp435
ag2
(g3
(S'S5'
p436
I0
I1
tp437
Rp438
(I3
S'|'
p439
NNNI5
I1
I0
tp440
bS'HARD1'
p441
tp442
Rp443
ag2
(g3
(S'S5'
p444
I0
I1
tp445
Rp446
(I3
S'|'
p447
NNNI5
I1
I0
tp448
bS'HARD1'
p449
tp450
Rp451
ag2
(g3
(S'S5'
p452
I0
I1
tp453
Rp454
(I3
S'|'
p455
NNNI5
I1
I0
tp456
bS'HARD1'
p457
tp458
Rp459
ag2
(g3
(S'S5'
p460
I0
I1
tp461
Rp462
(I3
S'|'
p463
NNNI5
I1
I0
tp464
bS'HARD1'
p465
tp466
Rp467
ag2
(g3
(S'S5'
p468
I0
I1
tp469
Rp470
(I3
S'|'
p471
NNNI5
I1
I0
tp472
bS'HARD1'
p473
tp474
Rp475
ag2
(g3
(S'S5'
p476
I0
I1
tp477
Rp478
(I3
S'|'
p479
NNNI5
I1
I0
tp480
bS'HARD1'
p481
tp482
Rp483
ag2
(g3
(S'S5'
p484
I0
I1
tp485
Rp486
(I3
S'|'
p487
NNNI5
I1
I0
tp488
bS'HARD1'
p489
tp490
Rp491
ag2
(g3
(S'S5'
p492
I0
I1
tp493
Rp494
(I3
S'|'
p495
NNNI5
I1
I0
tp496
bS'HARD1'
p497
tp498
Rp499
ag2
(g3
(S'S5'
p500
I0
I1
tp501
Rp502
(I3
S'|'
p503
NNNI5
I1
I0
tp504
bS'HARD1'
p505
tp506
Rp507
ag2
(g3
(S'S5'
p508
I0
I1
tp509
Rp510
(I3
S'|'
p511
NNNI5
I1
I0
tp512
bS'HARD1'
p513
tp514
Rp515
ag2
(g3
(S'S5'
p516
I0
I1
tp517
Rp518
(I3
S'|'
p519
NNNI5
I1
I0
tp520
bS'HARD1'
p521
tp522
Rp523
ag2
(g3
(S'S5'
p524
I0
I1
tp525
Rp526
(I3
S'|'
p527
NNNI5
I1
I0
tp528
bS'HARD1'
p529
tp530
Rp531
ag2
(g3
(S'S5'
p532
I0
I1
tp533
Rp534
(I3
S'|'
p535
NNNI5
I1
I0
tp536
bS'HARD1'
p537
tp538
Rp539
ag2
(g3
(S'S5'
p540
I0
I1
tp541
Rp542
(I3
S'|'
p543
NNNI5
I1
I0
tp544
bS'HARD1'
p545
tp546
Rp547
ag2
(g3
(S'S5'
p548
I0
I1
tp549
Rp550
(I3
S'|'
p551
NNNI5
I1
I0
tp552
bS'HARD1'
p553
tp554
Rp555
ag2
(g3
(S'S5'
p556
I0
I1
tp557
Rp558
(I3
S'|'
p559
NNNI5
I1
I0
tp560
bS'HARD1'
p561
tp562
Rp563
ag2
(g3
(S'S5'
p564
I0
I1
tp565
Rp566
(I3
S'|'
p567
NNNI5
I1
I0
tp568
bS'HARD1'
p569
tp570
Rp571
ag2
(g3
(S'S5'
p572
I0
I1
tp573
Rp574
(I3
S'|'
p575
NNNI5
I1
I0
tp576
bS'HARD1'
p577
tp578
Rp579
ag2
(g3
(S'S5'
p580
I0
I1
tp581
Rp582
(I3
S'|'
p583
NNNI5
I1
I0
tp584
bS'HARD1'
p585
tp586
Rp587
ag2
(g3
(S'S5'
p588
I0
I1
tp589
Rp590
(I3
S'|'
p591
NNNI5
I1
I0
tp592
bS'HARD1'
p593
tp594
Rp595
ag2
(g3
(S'S5'
p596
I0
I1
tp597
Rp598
(I3
S'|'
p599
NNNI5
I1
I0
tp600
bS'HARD1'
p601
tp602
Rp603
ag2
(g3
(S'S5'
p604
I0
I1
tp605
Rp606
(I3
S'|'
p607
NNNI5
I1
I0
tp608
bS'HARD1'
p609
tp610
Rp611
ag2
(g3
(S'S5'
p612
I0
I1
tp613
Rp614
(I3
S'|'
p615
NNNI5
I1
I0
tp616
bS'HARD1'
p617
tp618
Rp619
ag2
(g3
(S'S5'
p620
I0
I1
tp621
Rp622
(I3
S'|'
p623
NNNI5
I1
I0
tp624
bS'HARD1'
p625
tp626
Rp627
ag2
(g3
(S'S5'
p628
I0
I1
tp629
Rp630
(I3
S'|'
p631
NNNI5
I1
I0
tp632
bS'HARD1'
p633
tp634
Rp635
ag2
(g3
(S'S5'
p636
I0
I1
tp637
Rp638
(I3
S'|'
p639
NNNI5
I1
I0
tp640
bS'HARD1'
p641
tp642
Rp643
ag2
(g3
(S'S5'
p644
I0
I1
tp645
Rp646
(I3
S'|'
p647
NNNI5
I1
I0
tp648
bS'HARD1'
p649
tp650
Rp651
ag2
(g3
(S'S5'
p652
I0
I1
tp653
Rp654
(I3
S'|'
p655
NNNI5
I1
I0
tp656
bS'HARD1'
p657
tp658
Rp659
ag2
(g3
(S'S5'
p660
I0
I1
tp661
Rp662
(I3
S'|'
p663
NNNI5
I1
I0
tp664
bS'HARD1'
p665
tp666
Rp667
ag2
(g3
(S'S5'
p668
I0
I1
tp669
Rp670
(I3
S'|'
p671
NNNI5
I1
I0
tp672
bS'HARD1'
p673
tp674
Rp675
ag2
(g3
(S'S5'
p676
I0
I1
tp677
Rp678
(I3
S'|'
p679
NNNI5
I1
I0
tp680
bS'HARD1'
p681
tp682
Rp683
ag2
(g3
(S'S5'
p684
I0
I1
tp685
Rp686
(I3
S'|'
p687
NNNI5
I1
I0
tp688
bS'HARD1'
p689
tp690
Rp691
ag2
(g3
(S'S5'
p692
I0
I1
tp693
Rp694
(I3
S'|'
p695
NNNI5
I1
I0
tp696
bS'HARD1'
p697
tp698
Rp699
ag2
(g3
(S'S5'
p700
I0
I1
tp701
Rp702
(I3
S'|'
p703
NNNI5
I1
I0
tp704
bS'HARD2'
p705
tp706
Rp707
ag2
(g3
(S'S5'
p708
I0
I1
tp709
Rp710
(I3
S'|'
p711
NNNI5
I1
I0
tp712
bS'HARD1'
p713
tp714
Rp715
ag2
(g3
(S'S5'
p716
I0
I1
tp717
Rp718
(I3
S'|'
p719
NNNI5
I1
I0
tp720
bS'HARD1'
p721
tp722
Rp723
ag2
(g3
(S'S5'
p724
I0
I1
tp725
Rp726
(I3
S'|'
p727
NNNI5
I1
I0
tp728
bS'HARD1'
p729
tp730
Rp731
ag2
(g3
(S'S5'
p732
I0
I1
tp733
Rp734
(I3
S'|'
p735
NNNI5
I1
I0
tp736
bS'HARD1'
p737
tp738
Rp739
ag2
(g3
(S'S5'
p740
I0
I1
tp741
Rp742
(I3
S'|'
p743
NNNI5
I1
I0
tp744
bS'HARD2'
p745
tp746
Rp747
ag2
(g3
(S'S5'
p748
I0
I1
tp749
Rp750
(I3
S'|'
p751
NNNI5
I1
I0
tp752
bS'HARD1'
p753
tp754
Rp755
ag2
(g3
(S'S5'
p756
I0
I1
tp757
Rp758
(I3
S'|'
p759
NNNI5
I1
I0
tp760
bS'HARD1'
p761
tp762
Rp763
ag2
(g3
(S'S5'
p764
I0
I1
tp765
Rp766
(I3
S'|'
p767
NNNI5
I1
I0
tp768
bS'HARD1'
p769
tp770
Rp771
ag2
(g3
(S'S5'
p772
I0
I1
tp773
Rp774
(I3
S'|'
p775
NNNI5
I1
I0
tp776
bS'HARD1'
p777
tp778
Rp779
ag2
(g3
(S'S5'
p780
I0
I1
tp781
Rp782
(I3
S'|'
p783
NNNI5
I1
I0
tp784
bS'HARD1'
p785
tp786
Rp787
ag2
(g3
(S'S5'
p788
I0
I1
tp789
Rp790
(I3
S'|'
p791
NNNI5
I1
I0
tp792
bS'HARD1'
p793
tp794
Rp795
ag2
(g3
(S'S5'
p796
I0
I1
tp797
Rp798
(I3
S'|'
p799
NNNI5
I1
I0
tp800
bS'HARD1'
p801
tp802
Rp803
ag2
(g3
(S'S5'
p804
I0
I1
tp805
Rp806
(I3
S'|'
p807
NNNI5
I1
I0
tp808
bS'HARD1'
p809
tp810
Rp811
ag2
(g3
(S'S5'
p812
I0
I1
tp813
Rp814
(I3
S'|'
p815
NNNI5
I1
I0
tp816
bS'HARD1'
p817
tp818
Rp819
ag2
(g3
(S'S5'
p820
I0
I1
tp821
Rp822
(I3
S'|'
p823
NNNI5
I1
I0
tp824
bS'HARD1'
p825
tp826
Rp827
ag2
(g3
(S'S5'
p828
I0
I1
tp829
Rp830
(I3
S'|'
p831
NNNI5
I1
I0
tp832
bS'HARD1'
p833
tp834
Rp835
ag2
(g3
(S'S5'
p836
I0
I1
tp837
Rp838
(I3
S'|'
p839
NNNI5
I1
I0
tp840
bS'HARD1'
p841
tp842
Rp843
ag2
(g3
(S'S5'
p844
I0
I1
tp845
Rp846
(I3
S'|'
p847
NNNI5
I1
I0
tp848
bS'HARD1'
p849
tp850
Rp851
ag2
(g3
(S'S5'
p852
I0
I1
tp853
Rp854
(I3
S'|'
p855
NNNI5
I1
I0
tp856
bS'HARD1'
p857
tp858
Rp859
ag2
(g3
(S'S5'
p860
I0
I1
tp861
Rp862
(I3
S'|'
p863
NNNI5
I1
I0
tp864
bS'HARD1'
p865
tp866
Rp867
ag2
(g3
(S'S5'
p868
I0
I1
tp869
Rp870
(I3
S'|'
p871
NNNI5
I1
I0
tp872
bS'HARD1'
p873
tp874
Rp875
ag2
(g3
(S'S5'
p876
I0
I1
tp877
Rp878
(I3
S'|'
p879
NNNI5
I1
I0
tp880
bS'HARD1'
p881
tp882
Rp883
ag2
(g3
(S'S5'
p884
I0
I1
tp885
Rp886
(I3
S'|'
p887
NNNI5
I1
I0
tp888
bS'HARD1'
p889
tp890
Rp891
ag2
(g3
(S'S5'
p892
I0
I1
tp893
Rp894
(I3
S'|'
p895
NNNI5
I1
I0
tp896
bS'HARD1'
p897
tp898
Rp899
ag2
(g3
(S'S5'
p900
I0
I1
tp901
Rp902
(I3
S'|'
p903
NNNI5
I1
I0
tp904
bS'HARD1'
p905
tp906
Rp907
ag2
(g3
(S'S5'
p908
I0
I1
tp909
Rp910
(I3
S'|'
p911
NNNI5
I1
I0
tp912
bS'HARD1'
p913
tp914
Rp915
ag2
(g3
(S'S5'
p916
I0
I1
tp917
Rp918
(I3
S'|'
p919
NNNI5
I1
I0
tp920
bS'HARD1'
p921
tp922
Rp923
ag2
(g3
(S'S5'
p924
I0
I1
tp925
Rp926
(I3
S'|'
p927
NNNI5
I1
I0
tp928
bS'HARD1'
p929
tp930
Rp931
ag2
(g3
(S'S5'
p932
I0
I1
tp933
Rp934
(I3
S'|'
p935
NNNI5
I1
I0
tp936
bS'HARD1'
p937
tp938
Rp939
ag2
(g3
(S'S5'
p940
I0
I1
tp941
Rp942
(I3
S'|'
p943
NNNI5
I1
I0
tp944
bS'HARD1'
p945
tp946
Rp947
ag2
(g3
(S'S5'
p948
I0
I1
tp949
Rp950
(I3
S'|'
p951
NNNI5
I1
I0
tp952
bS'HARD1'
p953
tp954
Rp955
ag2
(g3
(S'S5'
p956
I0
I1
tp957
Rp958
(I3
S'|'
p959
NNNI5
I1
I0
tp960
bS'HARD1'
p961
tp962
Rp963
ag2
(g3
(S'S5'
p964
I0
I1
tp965
Rp966
(I3
S'|'
p967
NNNI5
I1
I0
tp968
bS'HARD1'
p969
tp970
Rp971
ag2
(g3
(S'S5'
p972
I0
I1
tp973
Rp974
(I3
S'|'
p975
NNNI5
I1
I0
tp976
bS'HARD1'
p977
tp978
Rp979
ag2
(g3
(S'S5'
p980
I0
I1
tp981
Rp982
(I3
S'|'
p983
NNNI5
I1
I0
tp984
bS'HARD1'
p985
tp986
Rp987
ag2
(g3
(S'S5'
p988
I0
I1
tp989
Rp990
(I3
S'|'
p991
NNNI5
I1
I0
tp992
bS'HARD1'
p993
tp994
Rp995
ag2
(g3
(S'S5'
p996
I0
I1
tp997
Rp998
(I3
S'|'
p999
NNNI5
I1
I0
tp1000
bS'HARD1'
p1001
tp1002
Rp1003
ag2
(g3
(S'S5'
p1004
I0
I1
tp1005
Rp1006
(I3
S'|'
p1007
NNNI5
I1
I0
tp1008
bS'HARD1'
p1009
tp1010
Rp1011
ag2
(g3
(S'S5'
p1012
I0
I1
tp1013
Rp1014
(I3
S'|'
p1015
NNNI5
I1
I0
tp1016
bS'HARD1'
p1017
tp1018
Rp1019
ag2
(g3
(S'S5'
p1020
I0
I1
tp1021
Rp1022
(I3
S'|'
p1023
NNNI5
I1
I0
tp1024
bS'HARD1'
p1025
tp1026
Rp1027
ag2
(g3
(S'S5'
p1028
I0
I1
tp1029
Rp1030
(I3
S'|'
p1031
NNNI5
I1
I0
tp1032
bS'HARD1'
p1033
tp1034
Rp1035
ag2
(g3
(S'S5'
p1036
I0
I1
tp1037
Rp1038
(I3
S'|'
p1039
NNNI5
I1
I0
tp1040
bS'HARD1'
p1041
tp1042
Rp1043
ag2
(g3
(S'S5'
p1044
I0
I1
tp1045
Rp1046
(I3
S'|'
p1047
NNNI5
I1
I0
tp1048
bS'HARD1'
p1049
tp1050
Rp1051
ag2
(g3
(S'S5'
p1052
I0
I1
tp1053
Rp1054
(I3
S'|'
p1055
NNNI5
I1
I0
tp1056
bS'HARD1'
p1057
tp1058
Rp1059
ag2
(g3
(S'S5'
p1060
I0
I1
tp1061
Rp1062
(I3
S'|'
p1063
NNNI5
I1
I0
tp1064
bS'HARD1'
p1065
tp1066
Rp1067
ag2
(g3
(S'S5'
p1068
I0
I1
tp1069
Rp1070
(I3
S'|'
p1071
NNNI5
I1
I0
tp1072
bS'HARD1'
p1073
tp1074
Rp1075
ag2
(g3
(S'S5'
p1076
I0
I1
tp1077
Rp1078
(I3
S'|'
p1079
NNNI5
I1
I0
tp1080
bS'HARD1'
p1081
tp1082
Rp1083
ag2
(g3
(S'S5'
p1084
I0
I1
tp1085
Rp1086
(I3
S'|'
p1087
NNNI5
I1
I0
tp1088
bS'HARD1'
p1089
tp1090
Rp1091
ag2
(g3
(S'S5'
p1092
I0
I1
tp1093
Rp1094
(I3
S'|'
p1095
NNNI5
I1
I0
tp1096
bS'HARD1'
p1097
tp1098
Rp1099
ag2
(g3
(S'S5'
p1100
I0
I1
tp1101
Rp1102
(I3
S'|'
p1103
NNNI5
I1
I0
tp1104
bS'HARD1'
p1105
tp1106
Rp1107
ag2
(g3
(S'S5'
p1108
I0
I1
tp1109
Rp1110
(I3
S'|'
p1111
NNNI5
I1
I0
tp1112
bS'HARD1'
p1113
tp1114
Rp1115
ag2
(g3
(S'S5'
p1116
I0
I1
tp1117
Rp1118
(I3
S'|'
p1119
NNNI5
I1
I0
tp1120
bS'HARD1'
p1121
tp1122
Rp1123
ag2
(g3
(S'S5'
p1124
I0
I1
tp1125
Rp1126
(I3
S'|'
p1127
NNNI5
I1
I0
tp1128
bS'HARD1'
p1129
tp1130
Rp1131
ag2
(g3
(S'S5'
p1132
I0
I1
tp1133
Rp1134
(I3
S'|'
p1135
NNNI5
I1
I0
tp1136
bS'HARD1'
p1137
tp1138
Rp1139
ag2
(g3
(S'S5'
p1140
I0
I1
tp1141
Rp1142
(I3
S'|'
p1143
NNNI5
I1
I0
tp1144
bS'HARD1'
p1145
tp1146
Rp1147
ag2
(g3
(S'S5'
p1148
I0
I1
tp1149
Rp1150
(I3
S'|'
p1151
NNNI5
I1
I0
tp1152
bS'HARD1'
p1153
tp1154
Rp1155
ag2
(g3
(S'S5'
p1156
I0
I1
tp1157
Rp1158
(I3
S'|'
p1159
NNNI5
I1
I0
tp1160
bS'HARD1'
p1161
tp1162
Rp1163
ag2
(g3
(S'S5'
p1164
I0
I1
tp1165
Rp1166
(I3
S'|'
p1167
NNNI5
I1
I0
tp1168
bS'HARD1'
p1169
tp1170
Rp1171
ag2
(g3
(S'S5'
p1172
I0
I1
tp1173
Rp1174
(I3
S'|'
p1175
NNNI5
I1
I0
tp1176
bS'HARD1'
p1177
tp1178
Rp1179
ag2
(g3
(S'S5'
p1180
I0
I1
tp1181
Rp1182
(I3
S'|'
p1183
NNNI5
I1
I0
tp1184
bS'HARD1'
p1185
tp1186
Rp1187
ag2
(g3
(S'S5'
p1188
I0
I1
tp1189
Rp1190
(I3
S'|'
p1191
NNNI5
I1
I0
tp1192
bS'HARD1'
p1193
tp1194
Rp1195
ag2
(g3
(S'S5'
p1196
I0
I1
tp1197
Rp1198
(I3
S'|'
p1199
NNNI5
I1
I0
tp1200
bS'HARD1'
p1201
tp1202
Rp1203
ag2
(g3
(S'S5'
p1204
I0
I1
tp1205
Rp1206
(I3
S'|'
p1207
NNNI5
I1
I0
tp1208
bS'HARD1'
p1209
tp1210
Rp1211
ag2
(g3
(S'S5'
p1212
I0
I1
tp1213
Rp1214
(I3
S'|'
p1215
NNNI5
I1
I0
tp1216
bS'HARD1'
p1217
tp1218
Rp1219
ag2
(g3
(S'S5'
p1220
I0
I1
tp1221
Rp1222
(I3
S'|'
p1223
NNNI5
I1
I0
tp1224
bS'HARD1'
p1225
tp1226
Rp1227
ag2
(g3
(S'S5'
p1228
I0
I1
tp1229
Rp1230
(I3
S'|'
p1231
NNNI5
I1
I0
tp1232
bS'HARD1'
p1233
tp1234
Rp1235
ag2
(g3
(S'S5'
p1236
I0
I1
tp1237
Rp1238
(I3
S'|'
p1239
NNNI5
I1
I0
tp1240
bS'HARD1'
p1241
tp1242
Rp1243
ag2
(g3
(S'S5'
p1244
I0
I1
tp1245
Rp1246
(I3
S'|'
p1247
NNNI5
I1
I0
tp1248
bS'HARD1'
p1249
tp1250
Rp1251
ag2
(g3
(S'S5'
p1252
I0
I1
tp1253
Rp1254
(I3
S'|'
p1255
NNNI5
I1
I0
tp1256
bS'HARD1'
p1257
tp1258
Rp1259
ag2
(g3
(S'S5'
p1260
I0
I1
tp1261
Rp1262
(I3
S'|'
p1263
NNNI5
I1
I0
tp1264
bS'HARD1'
p1265
tp1266
Rp1267
ag2
(g3
(S'S5'
p1268
I0
I1
tp1269
Rp1270
(I3
S'|'
p1271
NNNI5
I1
I0
tp1272
bS'HARD1'
p1273
tp1274
Rp1275
ag2
(g3
(S'S5'
p1276
I0
I1
tp1277
Rp1278
(I3
S'|'
p1279
NNNI5
I1
I0
tp1280
bS'HARD1'
p1281
tp1282
Rp1283
ag2
(g3
(S'S5'
p1284
I0
I1
tp1285
Rp1286
(I3
S'|'
p1287
NNNI5
I1
I0
tp1288
bS'HARD1'
p1289
tp1290
Rp1291
ag2
(g3
(S'S5'
p1292
I0
I1
tp1293
Rp1294
(I3
S'|'
p1295
NNNI5
I1
I0
tp1296
bS'HARD1'
p1297
tp1298
Rp1299
ag2
(g3
(S'S5'
p1300
I0
I1
tp1301
Rp1302
(I3
S'|'
p1303
NNNI5
I1
I0
tp1304
bS'HARD1'
p1305
tp1306
Rp1307
ag2
(g3
(S'S5'
p1308
I0
I1
tp1309
Rp1310
(I3
S'|'
p1311
NNNI5
I1
I0
tp1312
bS'HARD1'
p1313
tp1314
Rp1315
ag2
(g3
(S'S5'
p1316
I0
I1
tp1317
Rp1318
(I3
S'|'
p1319
NNNI5
I1
I0
tp1320
bS'HARD1'
p1321
tp1322
Rp1323
ag2
(g3
(S'S5'
p1324
I0
I1
tp1325
Rp1326
(I3
S'|'
p1327
NNNI5
I1
I0
tp1328
bS'HARD1'
p1329
tp1330
Rp1331
ag2
(g3
(S'S5'
p1332
I0
I1
tp1333
Rp1334
(I3
S'|'
p1335
NNNI5
I1
I0
tp1336
bS'HARD1'
p1337
tp1338
Rp1339
ag2
(g3
(S'S5'
p1340
I0
I1
tp1341
Rp1342
(I3
S'|'
p1343
NNNI5
I1
I0
tp1344
bS'HARD1'
p1345
tp1346
Rp1347
ag2
(g3
(S'S5'
p1348
I0
I1
tp1349
Rp1350
(I3
S'|'
p1351
NNNI5
I1
I0
tp1352
bS'HARD1'
p1353
tp1354
Rp1355
ag2
(g3
(S'S5'
p1356
I0
I1
tp1357
Rp1358
(I3
S'|'
p1359
NNNI5
I1
I0
tp1360
bS'HARD1'
p1361
tp1362
Rp1363
ag2
(g3
(S'S5'
p1364
I0
I1
tp1365
Rp1366
(I3
S'|'
p1367
NNNI5
I1
I0
tp1368
bS'HARD1'
p1369
tp1370
Rp1371
ag2
(g3
(S'S5'
p1372
I0
I1
tp1373
Rp1374
(I3
S'|'
p1375
NNNI5
I1
I0
tp1376
bS'HARD1'
p1377
tp1378
Rp1379
ag2
(g3
(S'S5'
p1380
I0
I1
tp1381
Rp1382
(I3
S'|'
p1383
NNNI5
I1
I0
tp1384
bS'HARD3'
p1385
tp1386
Rp1387
ag2
(g3
(S'S5'
p1388
I0
I1
tp1389
Rp1390
(I3
S'|'
p1391
NNNI5
I1
I0
tp1392
bS'HARD1'
p1393
tp1394
Rp1395
ag2
(g3
(S'S5'
p1396
I0
I1
tp1397
Rp1398
(I3
S'|'
p1399
NNNI5
I1
I0
tp1400
bS'HARD1'
p1401
tp1402
Rp1403
ag2
(g3
(S'S5'
p1404
I0
I1
tp1405
Rp1406
(I3
S'|'
p1407
NNNI5
I1
I0
tp1408
bS'HARD1'
p1409
tp1410
Rp1411
ag2
(g3
(S'S5'
p1412
I0
I1
tp1413
Rp1414
(I3
S'|'
p1415
NNNI5
I1
I0
tp1416
bS'HARD1'
p1417
tp1418
Rp1419
ag2
(g3
(S'S5'
p1420
I0
I1
tp1421
Rp1422
(I3
S'|'
p1423
NNNI5
I1
I0
tp1424
bS'HARD1'
p1425
tp1426
Rp1427
ag2
(g3
(S'S5'
p1428
I0
I1
tp1429
Rp1430
(I3
S'|'
p1431
NNNI5
I1
I0
tp1432
bS'HARD1'
p1433
tp1434
Rp1435
ag2
(g3
(S'S5'
p1436
I0
I1
tp1437
Rp1438
(I3
S'|'
p1439
NNNI5
I1
I0
tp1440
bS'HARD1'
p1441
tp1442
Rp1443
ag2
(g3
(S'S5'
p1444
I0
I1
tp1445
Rp1446
(I3
S'|'
p1447
NNNI5
I1
I0
tp1448
bS'HARD1'
p1449
tp1450
Rp1451
ag2
(g3
(S'S5'
p1452
I0
I1
tp1453
Rp1454
(I3
S'|'
p1455
NNNI5
I1
I0
tp1456
bS'HARD1'
p1457
tp1458
Rp1459
ag2
(g3
(S'S5'
p1460
I0
I1
tp1461
Rp1462
(I3
S'|'
p1463
NNNI5
I1
I0
tp1464
bS'HARD1'
p1465
tp1466
Rp1467
ag2
(g3
(S'S5'
p1468
I0
I1
tp1469
Rp1470
(I3
S'|'
p1471
NNNI5
I1
I0
tp1472
bS'HARD1'
p1473
tp1474
Rp1475
ag2
(g3
(S'S5'
p1476
I0
I1
tp1477
Rp1478
(I3
S'|'
p1479
NNNI5
I1
I0
tp1480
bS'HARD1'
p1481
tp1482
Rp1483
ag2
(g3
(S'S5'
p1484
I0
I1
tp1485
Rp1486
(I3
S'|'
p1487
NNNI5
I1
I0
tp1488
bS'HARD1'
p1489
tp1490
Rp1491
ag2
(g3
(S'S5'
p1492
I0
I1
tp1493
Rp1494
(I3
S'|'
p1495
NNNI5
I1
I0
tp1496
bS'HARD1'
p1497
tp1498
Rp1499
ag2
(g3
(S'S5'
p1500
I0
I1
tp1501
Rp1502
(I3
S'|'
p1503
NNNI5
I1
I0
tp1504
bS'HARD1'
p1505
tp1506
Rp1507
ag2
(g3
(S'S5'
p1508
I0
I1
tp1509
Rp1510
(I3
S'|'
p1511
NNNI5
I1
I0
tp1512
bS'HARD1'
p1513
tp1514
Rp1515
ag2
(g3
(S'S5'
p1516
I0
I1
tp1517
Rp1518
(I3
S'|'
p1519
NNNI5
I1
I0
tp1520
bS'HARD1'
p1521
tp1522
Rp1523
ag2
(g3
(S'S5'
p1524
I0
I1
tp1525
Rp1526
(I3
S'|'
p1527
NNNI5
I1
I0
tp1528
bS'HARD1'
p1529
tp1530
Rp1531
ag2
(g3
(S'S5'
p1532
I0
I1
tp1533
Rp1534
(I3
S'|'
p1535
NNNI5
I1
I0
tp1536
bS'HARD1'
p1537
tp1538
Rp1539
ag2
(g3
(S'S5'
p1540
I0
I1
tp1541
Rp1542
(I3
S'|'
p1543
NNNI5
I1
I0
tp1544
bS'HARD1'
p1545
tp1546
Rp1547
ag2
(g3
(S'S5'
p1548
I0
I1
tp1549
Rp1550
(I3
S'|'
p1551
NNNI5
I1
I0
tp1552
bS'HARD1'
p1553
tp1554
Rp1555
ag2
(g3
(S'S5'
p1556
I0
I1
tp1557
Rp1558
(I3
S'|'
p1559
NNNI5
I1
I0
tp1560
bS'HARD1'
p1561
tp1562
Rp1563
ag2
(g3
(S'S5'
p1564
I0
I1
tp1565
Rp1566
(I3
S'|'
p1567
NNNI5
I1
I0
tp1568
bS'HARD1'
p1569
tp1570
Rp1571
ag2
(g3
(S'S5'
p1572
I0
I1
tp1573
Rp1574
(I3
S'|'
p1575
NNNI5
I1
I0
tp1576
bS'HARD1'
p1577
tp1578
Rp1579
ag2
(g3
(S'S5'
p1580
I0
I1
tp1581
Rp1582
(I3
S'|'
p1583
NNNI5
I1
I0
tp1584
bS'HARD1'
p1585
tp1586
Rp1587
ag2
(g3
(S'S5'
p1588
I0
I1
tp1589
Rp1590
(I3
S'|'
p1591
NNNI5
I1
I0
tp1592
bS'HARD1'
p1593
tp1594
Rp1595
ag2
(g3
(S'S5'
p1596
I0
I1
tp1597
Rp1598
(I3
S'|'
p1599
NNNI5
I1
I0
tp1600
bS'HARD1'
p1601
tp1602
Rp1603
ag2
(g3
(S'S5'
p1604
I0
I1
tp1605
Rp1606
(I3
S'|'
p1607
NNNI5
I1
I0
tp1608
bS'HARD1'
p1609
tp1610
Rp1611
ag2
(g3
(S'S5'
p1612
I0
I1
tp1613
Rp1614
(I3
S'|'
p1615
NNNI5
I1
I0
tp1616
bS'HARD1'
p1617
tp1618
Rp1619
ag2
(g3
(S'S5'
p1620
I0
I1
tp1621
Rp1622
(I3
S'|'
p1623
NNNI5
I1
I0
tp1624
bS'HARD1'
p1625
tp1626
Rp1627
ag2
(g3
(S'S5'
p1628
I0
I1
tp1629
Rp1630
(I3
S'|'
p1631
NNNI5
I1
I0
tp1632
bS'HARD1'
p1633
tp1634
Rp1635
ag2
(g3
(S'S5'
p1636
I0
I1
tp1637
Rp1638
(I3
S'|'
p1639
NNNI5
I1
I0
tp1640
bS'HARD1'
p1641
tp1642
Rp1643
ag2
(g3
(S'S5'
p1644
I0
I1
tp1645
Rp1646
(I3
S'|'
p1647
NNNI5
I1
I0
tp1648
bS'HARD1'
p1649
tp1650
Rp1651
ag2
(g3
(S'S5'
p1652
I0
I1
tp1653
Rp1654
(I3
S'|'
p1655
NNNI5
I1
I0
tp1656
bS'HARD1'
p1657
tp1658
Rp1659
ag2
(g3
(S'S5'
p1660
I0
I1
tp1661
Rp1662
(I3
S'|'
p1663
NNNI5
I1
I0
tp1664
bS'HARD1'
p1665
tp1666
Rp1667
ag2
(g3
(S'S5'
p1668
I0
I1
tp1669
Rp1670
(I3
S'|'
p1671
NNNI5
I1
I0
tp1672
bS'HARD1'
p1673
tp1674
Rp1675
ag2
(g3
(S'S5'
p1676
I0
I1
tp1677
Rp1678
(I3
S'|'
p1679
NNNI5
I1
I0
tp1680
bS'HARD1'
p1681
tp1682
Rp1683
ag2
(g3
(S'S5'
p1684
I0
I1
tp1685
Rp1686
(I3
S'|'
p1687
NNNI5
I1
I0
tp1688
bS'HARD1'
p1689
tp1690
Rp1691
ag2
(g3
(S'S5'
p1692
I0
I1
tp1693
Rp1694
(I3
S'|'
p1695
NNNI5
I1
I0
tp1696
bS'HARD1'
p1697
tp1698
Rp1699
ag2
(g3
(S'S5'
p1700
I0
I1
tp1701
Rp1702
(I3
S'|'
p1703
NNNI5
I1
I0
tp1704
bS'HARD1'
p1705
tp1706
Rp1707
ag2
(g3
(S'S5'
p1708
I0
I1
tp1709
Rp1710
(I3
S'|'
p1711
NNNI5
I1
I0
tp1712
bS'HARD1'
p1713
tp1714
Rp1715
ag2
(g3
(S'S5'
p1716
I0
I1
tp1717
Rp1718
(I3
S'|'
p1719
NNNI5
I1
I0
tp1720
bS'HARD1'
p1721
tp1722
Rp1723
ag2
(g3
(S'S5'
p1724
I0
I1
tp1725
Rp1726
(I3
S'|'
p1727
NNNI5
I1
I0
tp1728
bS'HARD1'
p1729
tp1730
Rp1731
ag2
(g3
(S'S5'
p1732
I0
I1
tp1733
Rp1734
(I3
S'|'
p1735
NNNI5
I1
I0
tp1736
bS'HARD1'
p1737
tp1738
Rp1739
ag2
(g3
(S'S5'
p1740
I0
I1
tp1741
Rp1742
(I3
S'|'
p1743
NNNI5
I1
I0
tp1744
bS'HARD1'
p1745
tp1746
Rp1747
ag2
(g3
(S'S5'
p1748
I0
I1
tp1749
Rp1750
(I3
S'|'
p1751
NNNI5
I1
I0
tp1752
bS'HARD1'
p1753
tp1754
Rp1755
ag2
(g3
(S'S5'
p1756
I0
I1
tp1757
Rp1758
(I3
S'|'
p1759
NNNI5
I1
I0
tp1760
bS'HARD1'
p1761
tp1762
Rp1763
ag2
(g3
(S'S5'
p1764
I0
I1
tp1765
Rp1766
(I3
S'|'
p1767
NNNI5
I1
I0
tp1768
bS'HARD1'
p1769
tp1770
Rp1771
ag2
(g3
(S'S5'
p1772
I0
I1
tp1773
Rp1774
(I3
S'|'
p1775
NNNI5
I1
I0
tp1776
bS'HARD1'
p1777
tp1778
Rp1779
ag2
(g3
(S'S5'
p1780
I0
I1
tp1781
Rp1782
(I3
S'|'
p1783
NNNI5
I1
I0
tp1784
bS'HARD1'
p1785
tp1786
Rp1787
ag2
(g3
(S'S5'
p1788
I0
I1
tp1789
Rp1790
(I3
S'|'
p1791
NNNI5
I1
I0
tp1792
bS'HARD1'
p1793
tp1794
Rp1795
ag2
(g3
(S'S5'
p1796
I0
I1
tp1797
Rp1798
(I3
S'|'
p1799
NNNI5
I1
I0
tp1800
bS'HARD1'
p1801
tp1802
Rp1803
ag2
(g3
(S'S5'
p1804
I0
I1
tp1805
Rp1806
(I3
S'|'
p1807
NNNI5
I1
I0
tp1808
bS'HARD1'
p1809
tp1810
Rp1811
ag2
(g3
(S'S5'
p1812
I0
I1
tp1813
Rp1814
(I3
S'|'
p1815
NNNI5
I1
I0
tp1816
bS'HARD1'
p1817
tp1818
Rp1819
ag2
(g3
(S'S5'
p1820
I0
I1
tp1821
Rp1822
(I3
S'|'
p1823
NNNI5
I1
I0
tp1824
bS'HARD1'
p1825
tp1826
Rp1827
ag2
(g3
(S'S5'
p1828
I0
I1
tp1829
Rp1830
(I3
S'|'
p1831
NNNI5
I1
I0
tp1832
bS'HARD1'
p1833
tp1834
Rp1835
ag2
(g3
(S'S5'
p1836
I0
I1
tp1837
Rp1838
(I3
S'|'
p1839
NNNI5
I1
I0
tp1840
bS'HARD1'
p1841
tp1842
Rp1843
ag2
(g3
(S'S5'
p1844
I0
I1
tp1845
Rp1846
(I3
S'|'
p1847
NNNI5
I1
I0
tp1848
bS'HARD1'
p1849
tp1850
Rp1851
ag2
(g3
(S'S5'
p1852
I0
I1
tp1853
Rp1854
(I3
S'|'
p1855
NNNI5
I1
I0
tp1856
bS'HARD1'
p1857
tp1858
Rp1859
ag2
(g3
(S'S5'
p1860
I0
I1
tp1861
Rp1862
(I3
S'|'
p1863
NNNI5
I1
I0
tp1864
bS'HARD1'
p1865
tp1866
Rp1867
ag2
(g3
(S'S5'
p1868
I0
I1
tp1869
Rp1870
(I3
S'|'
p1871
NNNI5
I1
I0
tp1872
bS'HARD1'
p1873
tp1874
Rp1875
ag2
(g3
(S'S5'
p1876
I0
I1
tp1877
Rp1878
(I3
S'|'
p1879
NNNI5
I1
I0
tp1880
bS'HARD1'
p1881
tp1882
Rp1883
ag2
(g3
(S'S5'
p1884
I0
I1
tp1885
Rp1886
(I3
S'|'
p1887
NNNI5
I1
I0
tp1888
bS'HARD1'
p1889
tp1890
Rp1891
ag2
(g3
(S'S5'
p1892
I0
I1
tp1893
Rp1894
(I3
S'|'
p1895
NNNI5
I1
I0
tp1896
bS'HARD1'
p1897
tp1898
Rp1899
ag2
(g3
(S'S5'
p1900
I0
I1
tp1901
Rp1902
(I3
S'|'
p1903
NNNI5
I1
I0
tp1904
bS'HARD1'
p1905
tp1906
Rp1907
ag2
(g3
(S'S5'
p1908
I0
I1
tp1909
Rp1910
(I3
S'|'
p1911
NNNI5
I1
I0
tp1912
bS'HARD1'
p1913
tp1914
Rp1915
ag2
(g3
(S'S5'
p1916
I0
I1
tp1917
Rp1918
(I3
S'|'
p1919
NNNI5
I1
I0
tp1920
bS'HARD1'
p1921
tp1922
Rp1923
ag2
(g3
(S'S5'
p1924
I0
I1
tp1925
Rp1926
(I3
S'|'
p1927
NNNI5
I1
I0
tp1928
bS'HARD1'
p1929
tp1930
Rp1931
ag2
(g3
(S'S5'
p1932
I0
I1
tp1933
Rp1934
(I3
S'|'
p1935
NNNI5
I1
I0
tp1936
bS'HARD1'
p1937
tp1938
Rp1939
ag2
(g3
(S'S5'
p1940
I0
I1
tp1941
Rp1942
(I3
S'|'
p1943
NNNI5
I1
I0
tp1944
bS'HARD1'
p1945
tp1946
Rp1947
ag2
(g3
(S'S5'
p1948
I0
I1
tp1949
Rp1950
(I3
S'|'
p1951
NNNI5
I1
I0
tp1952
bS'HARD1'
p1953
tp1954
Rp1955
ag2
(g3
(S'S5'
p1956
I0
I1
tp1957
Rp1958
(I3
S'|'
p1959
NNNI5
I1
I0
tp1960
bS'HARD1'
p1961
tp1962
Rp1963
ag2
(g3
(S'S5'
p1964
I0
I1
tp1965
Rp1966
(I3
S'|'
p1967
NNNI5
I1
I0
tp1968
bS'HARD1'
p1969
tp1970
Rp1971
ag2
(g3
(S'S5'
p1972
I0
I1
tp1973
Rp1974
(I3
S'|'
p1975
NNNI5
I1
I0
tp1976
bS'HARD1'
p1977
tp1978
Rp1979
ag2
(g3
(S'S5'
p1980
I0
I1
tp1981
Rp1982
(I3
S'|'
p1983
NNNI5
I1
I0
tp1984
bS'HARD1'
p1985
tp1986
Rp1987
ag2
(g3
(S'S5'
p1988
I0
I1
tp1989
Rp1990
(I3
S'|'
p1991
NNNI5
I1
I0
tp1992
bS'HARD1'
p1993
tp1994
Rp1995
ag2
(g3
(S'S5'
p1996
I0
I1
tp1997
Rp1998
(I3
S'|'
p1999
NNNI5
I1
I0
tp2000
bS'HARD1'
p2001
tp2002
Rp2003
ag2
(g3
(S'S5'
p2004
I0
I1
tp2005
Rp2006
(I3
S'|'
p2007
NNNI5
I1
I0
tp2008
bS'HARD1'
p2009
tp2010
Rp2011
ag2
(g3
(S'S5'
p2012
I0
I1
tp2013
Rp2014
(I3
S'|'
p2015
NNNI5
I1
I0
tp2016
bS'HARD1'
p2017
tp2018
Rp2019
ag2
(g3
(S'S5'
p2020
I0
I1
tp2021
Rp2022
(I3
S'|'
p2023
NNNI5
I1
I0
tp2024
bS'HARD1'
p2025
tp2026
Rp2027
ag2
(g3
(S'S5'
p2028
I0
I1
tp2029
Rp2030
(I3
S'|'
p2031
NNNI5
I1
I0
tp2032
bS'HARD1'
p2033
tp2034
Rp2035
ag2
(g3
(S'S5'
p2036
I0
I1
tp2037
Rp2038
(I3
S'|'
p2039
NNNI5
I1
I0
tp2040
bS'HARD1'
p2041
tp2042
Rp2043
ag2
(g3
(S'S5'
p2044
I0
I1
tp2045
Rp2046
(I3
S'|'
p2047
NNNI5
I1
I0
tp2048
bS'HARD1'
p2049
tp2050
Rp2051
ag2
(g3
(S'S5'
p2052
I0
I1
tp2053
Rp2054
(I3
S'|'
p2055
NNNI5
I1
I0
tp2056
bS'HARD1'
p2057
tp2058
Rp2059
ag2
(g3
(S'S5'
p2060
I0
I1
tp2061
Rp2062
(I3
S'|'
p2063
NNNI5
I1
I0
tp2064
bS'HARD1'
p2065
tp2066
Rp2067
ag2
(g3
(S'S5'
p2068
I0
I1
tp2069
Rp2070
(I3
S'|'
p2071
NNNI5
I1
I0
tp2072
bS'HARD1'
p2073
tp2074
Rp2075
ag2
(g3
(S'S5'
p2076
I0
I1
tp2077
Rp2078
(I3
S'|'
p2079
NNNI5
I1
I0
tp2080
bS'HARD1'
p2081
tp2082
Rp2083
ag2
(g3
(S'S5'
p2084
I0
I1
tp2085
Rp2086
(I3
S'|'
p2087
NNNI5
I1
I0
tp2088
bS'HARD1'
p2089
tp2090
Rp2091
ag2
(g3
(S'S5'
p2092
I0
I1
tp2093
Rp2094
(I3
S'|'
p2095
NNNI5
I1
I0
tp2096
bS'HARD1'
p2097
tp2098
Rp2099
ag2
(g3
(S'S5'
p2100
I0
I1
tp2101
Rp2102
(I3
S'|'
p2103
NNNI5
I1
I0
tp2104
bS'HARD1'
p2105
tp2106
Rp2107
ag2
(g3
(S'S5'
p2108
I0
I1
tp2109
Rp2110
(I3
S'|'
p2111
NNNI5
I1
I0
tp2112
bS'HARD1'
p2113
tp2114
Rp2115
ag2
(g3
(S'S5'
p2116
I0
I1
tp2117
Rp2118
(I3
S'|'
p2119
NNNI5
I1
I0
tp2120
bS'HARD1'
p2121
tp2122
Rp2123
ag2
(g3
(S'S5'
p2124
I0
I1
tp2125
Rp2126
(I3
S'|'
p2127
NNNI5
I1
I0
tp2128
bS'HARD1'
p2129
tp2130
Rp2131
ag2
(g3
(S'S5'
p2132
I0
I1
tp2133
Rp2134
(I3
S'|'
p2135
NNNI5
I1
I0
tp2136
bS'HARD1'
p2137
tp2138
Rp2139
ag2
(g3
(S'S5'
p2140
I0
I1
tp2141
Rp2142
(I3
S'|'
p2143
NNNI5
I1
I0
tp2144
bS'HARD1'
p2145
tp2146
Rp2147
ag2
(g3
(S'S5'
p2148
I0
I1
tp2149
Rp2150
(I3
S'|'
p2151
NNNI5
I1
I0
tp2152
bS'HARD1'
p2153
tp2154
Rp2155
ag2
(g3
(S'S5'
p2156
I0
I1
tp2157
Rp2158
(I3
S'|'
p2159
NNNI5
I1
I0
tp2160
bS'HARD1'
p2161
tp2162
Rp2163
ag2
(g3
(S'S5'
p2164
I0
I1
tp2165
Rp2166
(I3
S'|'
p2167
NNNI5
I1
I0
tp2168
bS'HARD1'
p2169
tp2170
Rp2171
ag2
(g3
(S'S5'
p2172
I0
I1
tp2173
Rp2174
(I3
S'|'
p2175
NNNI5
I1
I0
tp2176
bS'HARD1'
p2177
tp2178
Rp2179
ag2
(g3
(S'S5'
p2180
I0
I1
tp2181
Rp2182
(I3
S'|'
p2183
NNNI5
I1
I0
tp2184
bS'HARD1'
p2185
tp2186
Rp2187
ag2
(g3
(S'S5'
p2188
I0
I1
tp2189
Rp2190
(I3
S'|'
p2191
NNNI5
I1
I0
tp2192
bS'HARD1'
p2193
tp2194
Rp2195
ag2
(g3
(S'S5'
p2196
I0
I1
tp2197
Rp2198
(I3
S'|'
p2199
NNNI5
I1
I0
tp2200
bS'HARD1'
p2201
tp2202
Rp2203
ag2
(g3
(S'S5'
p2204
I0
I1
tp2205
Rp2206
(I3
S'|'
p2207
NNNI5
I1
I0
tp2208
bS'HARD1'
p2209
tp2210
Rp2211
ag2
(g3
(S'S5'
p2212
I0
I1
tp2213
Rp2214
(I3
S'|'
p2215
NNNI5
I1
I0
tp2216
bS'HARD1'
p2217
tp2218
Rp2219
ag2
(g3
(S'S5'
p2220
I0
I1
tp2221
Rp2222
(I3
S'|'
p2223
NNNI5
I1
I0
tp2224
bS'HARD1'
p2225
tp2226
Rp2227
ag2
(g3
(S'S5'
p2228
I0
I1
tp2229
Rp2230
(I3
S'|'
p2231
NNNI5
I1
I0
tp2232
bS'HARD1'
p2233
tp2234
Rp2235
ag2
(g3
(S'S5'
p2236
I0
I1
tp2237
Rp2238
(I3
S'|'
p2239
NNNI5
I1
I0
tp2240
bS'HARD1'
p2241
tp2242
Rp2243
ag2
(g3
(S'S5'
p2244
I0
I1
tp2245
Rp2246
(I3
S'|'
p2247
NNNI5
I1
I0
tp2248
bS'HARD1'
p2249
tp2250
Rp2251
ag2
(g3
(S'S5'
p2252
I0
I1
tp2253
Rp2254
(I3
S'|'
p2255
NNNI5
I1
I0
tp2256
bS'HARD1'
p2257
tp2258
Rp2259
ag2
(g3
(S'S5'
p2260
I0
I1
tp2261
Rp2262
(I3
S'|'
p2263
NNNI5
I1
I0
tp2264
bS'HARD1'
p2265
tp2266
Rp2267
ag2
(g3
(S'S5'
p2268
I0
I1
tp2269
Rp2270
(I3
S'|'
p2271
NNNI5
I1
I0
tp2272
bS'HARD1'
p2273
tp2274
Rp2275
ag2
(g3
(S'S5'
p2276
I0
I1
tp2277
Rp2278
(I3
S'|'
p2279
NNNI5
I1
I0
tp2280
bS'HARD1'
p2281
tp2282
Rp2283
ag2
(g3
(S'S5'
p2284
I0
I1
tp2285
Rp2286
(I3
S'|'
p2287
NNNI5
I1
I0
tp2288
bS'HARD1'
p2289
tp2290
Rp2291
ag2
(g3
(S'S5'
p2292
I0
I1
tp2293
Rp2294
(I3
S'|'
p2295
NNNI5
I1
I0
tp2296
bS'HARD1'
p2297
tp2298
Rp2299
ag2
(g3
(S'S5'
p2300
I0
I1
tp2301
Rp2302
(I3
S'|'
p2303
NNNI5
I1
I0
tp2304
bS'HARD1'
p2305
tp2306
Rp2307
ag2
(g3
(S'S5'
p2308
I0
I1
tp2309
Rp2310
(I3
S'|'
p2311
NNNI5
I1
I0
tp2312
bS'HARD1'
p2313
tp2314
Rp2315
ag2
(g3
(S'S5'
p2316
I0
I1
tp2317
Rp2318
(I3
S'|'
p2319
NNNI5
I1
I0
tp2320
bS'HARD1'
p2321
tp2322
Rp2323
ag2
(g3
(S'S5'
p2324
I0
I1
tp2325
Rp2326
(I3
S'|'
p2327
NNNI5
I1
I0
tp2328
bS'HARD1'
p2329
tp2330
Rp2331
ag2
(g3
(S'S5'
p2332
I0
I1
tp2333
Rp2334
(I3
S'|'
p2335
NNNI5
I1
I0
tp2336
bS'HARD1'
p2337
tp2338
Rp2339
ag2
(g3
(S'S5'
p2340
I0
I1
tp2341
Rp2342
(I3
S'|'
p2343
NNNI5
I1
I0
tp2344
bS'HARD1'
p2345
tp2346
Rp2347
ag2
(g3
(S'S5'
p2348
I0
I1
tp2349
Rp2350
(I3
S'|'
p2351
NNNI5
I1
I0
tp2352
bS'HARD1'
p2353
tp2354
Rp2355
ag2
(g3
(S'S5'
p2356
I0
I1
tp2357
Rp2358
(I3
S'|'
p2359
NNNI5
I1
I0
tp2360
bS'HARD1'
p2361
tp2362
Rp2363
ag2
(g3
(S'S5'
p2364
I0
I1
tp2365
Rp2366
(I3
S'|'
p2367
NNNI5
I1
I0
tp2368
bS'HARD1'
p2369
tp2370
Rp2371
ag2
(g3
(S'S5'
p2372
I0
I1
tp2373
Rp2374
(I3
S'|'
p2375
NNNI5
I1
I0
tp2376
bS'HARD1'
p2377
tp2378
Rp2379
ag2
(g3
(S'S5'
p2380
I0
I1
tp2381
Rp2382
(I3
S'|'
p2383
NNNI5
I1
I0
tp2384
bS'HARD1'
p2385
tp2386
Rp2387
ag2
(g3
(S'S5'
p2388
I0
I1
tp2389
Rp2390
(I3
S'|'
p2391
NNNI5
I1
I0
tp2392
bS'HARD1'
p2393
tp2394
Rp2395
ag2
(g3
(S'S5'
p2396
I0
I1
tp2397
Rp2398
(I3
S'|'
p2399
NNNI5
I1
I0
tp2400
bS'HARD1'
p2401
tp2402
Rp2403
ag2
(g3
(S'S5'
p2404
I0
I1
tp2405
Rp2406
(I3
S'|'
p2407
NNNI5
I1
I0
tp2408
bS'HARD1'
p2409
tp2410
Rp2411
ag2
(g3
(S'S5'
p2412
I0
I1
tp2413
Rp2414
(I3
S'|'
p2415
NNNI5
I1
I0
tp2416
bS'HARD1'
p2417
tp2418
Rp2419
ag2
(g3
(S'S5'
p2420
I0
I1
tp2421
Rp2422
(I3
S'|'
p2423
NNNI5
I1
I0
tp2424
bS'HARD1'
p2425
tp2426
Rp2427
ag2
(g3
(S'S5'
p2428
I0
I1
tp2429
Rp2430
(I3
S'|'
p2431
NNNI5
I1
I0
tp2432
bS'HARD1'
p2433
tp2434
Rp2435
ag2
(g3
(S'S5'
p2436
I0
I1
tp2437
Rp2438
(I3
S'|'
p2439
NNNI5
I1
I0
tp2440
bS'HARD1'
p2441
tp2442
Rp2443
ag2
(g3
(S'S5'
p2444
I0
I1
tp2445
Rp2446
(I3
S'|'
p2447
NNNI5
I1
I0
tp2448
bS'HARD1'
p2449
tp2450
Rp2451
ag2
(g3
(S'S5'
p2452
I0
I1
tp2453
Rp2454
(I3
S'|'
p2455
NNNI5
I1
I0
tp2456
bS'HARD1'
p2457
tp2458
Rp2459
ag2
(g3
(S'S5'
p2460
I0
I1
tp2461
Rp2462
(I3
S'|'
p2463
NNNI5
I1
I0
tp2464
bS'HARD1'
p2465
tp2466
Rp2467
ag2
(g3
(S'S5'
p2468
I0
I1
tp2469
Rp2470
(I3
S'|'
p2471
NNNI5
I1
I0
tp2472
bS'HARD1'
p2473
tp2474
Rp2475
ag2
(g3
(S'S5'
p2476
I0
I1
tp2477
Rp2478
(I3
S'|'
p2479
NNNI5
I1
I0
tp2480
bS'HARD1'
p2481
tp2482
Rp2483
ag2
(g3
(S'S5'
p2484
I0
I1
tp2485
Rp2486
(I3
S'|'
p2487
NNNI5
I1
I0
tp2488
bS'HARD1'
p2489
tp2490
Rp2491
ag2
(g3
(S'S5'
p2492
I0
I1
tp2493
Rp2494
(I3
S'|'
p2495
NNNI5
I1
I0
tp2496
bS'HARD1'
p2497
tp2498
Rp2499
ag2
(g3
(S'S5'
p2500
I0
I1
tp2501
Rp2502
(I3
S'|'
p2503
NNNI5
I1
I0
tp2504
bS'HARD1'
p2505
tp2506
Rp2507
ag2
(g3
(S'S5'
p2508
I0
I1
tp2509
Rp2510
(I3
S'|'
p2511
NNNI5
I1
I0
tp2512
bS'HARD1'
p2513
tp2514
Rp2515
ag2
(g3
(S'S5'
p2516
I0
I1
tp2517
Rp2518
(I3
S'|'
p2519
NNNI5
I1
I0
tp2520
bS'HARD1'
p2521
tp2522
Rp2523
ag2
(g3
(S'S5'
p2524
I0
I1
tp2525
Rp2526
(I3
S'|'
p2527
NNNI5
I1
I0
tp2528
bS'HARD1'
p2529
tp2530
Rp2531
ag2
(g3
(S'S5'
p2532
I0
I1
tp2533
Rp2534
(I3
S'|'
p2535
NNNI5
I1
I0
tp2536
bS'HARD1'
p2537
tp2538
Rp2539
ag2
(g3
(S'S5'
p2540
I0
I1
tp2541
Rp2542
(I3
S'|'
p2543
NNNI5
I1
I0
tp2544
bS'HARD1'
p2545
tp2546
Rp2547
ag2
(g3
(S'S5'
p2548
I0
I1
tp2549
Rp2550
(I3
S'|'
p2551
NNNI5
I1
I0
tp2552
bS'HARD1'
p2553
tp2554
Rp2555
ag2
(g3
(S'S5'
p2556
I0
I1
tp2557
Rp2558
(I3
S'|'
p2559
NNNI5
I1
I0
tp2560
bS'HARD1'
p2561
tp2562
Rp2563
ag2
(g3
(S'S5'
p2564
I0
I1
tp2565
Rp2566
(I3
S'|'
p2567
NNNI5
I1
I0
tp2568
bS'HARD1'
p2569
tp2570
Rp2571
ag2
(g3
(S'S5'
p2572
I0
I1
tp2573
Rp2574
(I3
S'|'
p2575
NNNI5
I1
I0
tp2576
bS'HARD1'
p2577
tp2578
Rp2579
ag2
(g3
(S'S5'
p2580
I0
I1
tp2581
Rp2582
(I3
S'|'
p2583
NNNI5
I1
I0
tp2584
bS'HARD1'
p2585
tp2586
Rp2587
ag2
(g3
(S'S5'
p2588
I0
I1
tp2589
Rp2590
(I3
S'|'
p2591
NNNI5
I1
I0
tp2592
bS'HARD1'
p2593
tp2594
Rp2595
ag2
(g3
(S'S5'
p2596
I0
I1
tp2597
Rp2598
(I3
S'|'
p2599
NNNI5
I1
I0
tp2600
bS'HARD1'
p2601
tp2602
Rp2603
ag2
(g3
(S'S5'
p2604
I0
I1
tp2605
Rp2606
(I3
S'|'
p2607
NNNI5
I1
I0
tp2608
bS'HARD1'
p2609
tp2610
Rp2611
ag2
(g3
(S'S5'
p2612
I0
I1
tp2613
Rp2614
(I3
S'|'
p2615
NNNI5
I1
I0
tp2616
bS'HARD1'
p2617
tp2618
Rp2619
ag2
(g3
(S'S5'
p2620
I0
I1
tp2621
Rp2622
(I3
S'|'
p2623
NNNI5
I1
I0
tp2624
bS'HARD1'
p2625
tp2626
Rp2627
ag2
(g3
(S'S5'
p2628
I0
I1
tp2629
Rp2630
(I3
S'|'
p2631
NNNI5
I1
I0
tp2632
bS'HARD1'
p2633
tp2634
Rp2635
ag2
(g3
(S'S5'
p2636
I0
I1
tp2637
Rp2638
(I3
S'|'
p2639
NNNI5
I1
I0
tp2640
bS'HARD1'
p2641
tp2642
Rp2643
ag2
(g3
(S'S5'
p2644
I0
I1
tp2645
Rp2646
(I3
S'|'
p2647
NNNI5
I1
I0
tp2648
bS'HARD1'
p2649
tp2650
Rp2651
ag2
(g3
(S'S5'
p2652
I0
I1
tp2653
Rp2654
(I3
S'|'
p2655
NNNI5
I1
I0
tp2656
bS'HARD1'
p2657
tp2658
Rp2659
ag2
(g3
(S'S5'
p2660
I0
I1
tp2661
Rp2662
(I3
S'|'
p2663
NNNI5
I1
I0
tp2664
bS'HARD1'
p2665
tp2666
Rp2667
ag2
(g3
(S'S5'
p2668
I0
I1
tp2669
Rp2670
(I3
S'|'
p2671
NNNI5
I1
I0
tp2672
bS'HARD1'
p2673
tp2674
Rp2675
ag2
(g3
(S'S5'
p2676
I0
I1
tp2677
Rp2678
(I3
S'|'
p2679
NNNI5
I1
I0
tp2680
bS'HARD1'
p2681
tp2682
Rp2683
ag2
(g3
(S'S5'
p2684
I0
I1
tp2685
Rp2686
(I3
S'|'
p2687
NNNI5
I1
I0
tp2688
bS'HARD1'
p2689
tp2690
Rp2691
ag2
(g3
(S'S5'
p2692
I0
I1
tp2693
Rp2694
(I3
S'|'
p2695
NNNI5
I1
I0
tp2696
bS'HARD1'
p2697
tp2698
Rp2699
ag2
(g3
(S'S5'
p2700
I0
I1
tp2701
Rp2702
(I3
S'|'
p2703
NNNI5
I1
I0
tp2704
bS'HARD1'
p2705
tp2706
Rp2707
ag2
(g3
(S'S5'
p2708
I0
I1
tp2709
Rp2710
(I3
S'|'
p2711
NNNI5
I1
I0
tp2712
bS'HARD1'
p2713
tp2714
Rp2715
ag2
(g3
(S'S5'
p2716
I0
I1
tp2717
Rp2718
(I3
S'|'
p2719
NNNI5
I1
I0
tp2720
bS'HARD1'
p2721
tp2722
Rp2723
ag2
(g3
(S'S5'
p2724
I0
I1
tp2725
Rp2726
(I3
S'|'
p2727
NNNI5
I1
I0
tp2728
bS'HARD1'
p2729
tp2730
Rp2731
ag2
(g3
(S'S5'
p2732
I0
I1
tp2733
Rp2734
(I3
S'|'
p2735
NNNI5
I1
I0
tp2736
bS'HARD1'
p2737
tp2738
Rp2739
ag2
(g3
(S'S5'
p2740
I0
I1
tp2741
Rp2742
(I3
S'|'
p2743
NNNI5
I1
I0
tp2744
bS'HARD3'
p2745
tp2746
Rp2747
ag2
(g3
(S'S5'
p2748
I0
I1
tp2749
Rp2750
(I3
S'|'
p2751
NNNI5
I1
I0
tp2752
bS'HARD1'
p2753
tp2754
Rp2755
ag2
(g3
(S'S5'
p2756
I0
I1
tp2757
Rp2758
(I3
S'|'
p2759
NNNI5
I1
I0
tp2760
bS'HARD1'
p2761
tp2762
Rp2763
ag2
(g3
(S'S5'
p2764
I0
I1
tp2765
Rp2766
(I3
S'|'
p2767
NNNI5
I1
I0
tp2768
bS'HARD1'
p2769
tp2770
Rp2771
ag2
(g3
(S'S5'
p2772
I0
I1
tp2773
Rp2774
(I3
S'|'
p2775
NNNI5
I1
I0
tp2776
bS'HARD1'
p2777
tp2778
Rp2779
ag2
(g3
(S'S5'
p2780
I0
I1
tp2781
Rp2782
(I3
S'|'
p2783
NNNI5
I1
I0
tp2784
bS'HARD2'
p2785
tp2786
Rp2787
ag2
(g3
(S'S5'
p2788
I0
I1
tp2789
Rp2790
(I3
S'|'
p2791
NNNI5
I1
I0
tp2792
bS'HARD3'
p2793
tp2794
Rp2795
ag2
(g3
(S'S5'
p2796
I0
I1
tp2797
Rp2798
(I3
S'|'
p2799
NNNI5
I1
I0
tp2800
bS'HARD2'
p2801
tp2802
Rp2803
ag2
(g3
(S'S5'
p2804
I0
I1
tp2805
Rp2806
(I3
S'|'
p2807
NNNI5
I1
I0
tp2808
bS'HARD2'
p2809
tp2810
Rp2811
ag2
(g3
(S'S5'
p2812
I0
I1
tp2813
Rp2814
(I3
S'|'
p2815
NNNI5
I1
I0
tp2816
bS'HARD1'
p2817
tp2818
Rp2819
ag2
(g3
(S'S5'
p2820
I0
I1
tp2821
Rp2822
(I3
S'|'
p2823
NNNI5
I1
I0
tp2824
bS'HARD2'
p2825
tp2826
Rp2827
ag2
(g3
(S'S5'
p2828
I0
I1
tp2829
Rp2830
(I3
S'|'
p2831
NNNI5
I1
I0
tp2832
bS'HARD2'
p2833
tp2834
Rp2835
ag2
(g3
(S'S5'
p2836
I0
I1
tp2837
Rp2838
(I3
S'|'
p2839
NNNI5
I1
I0
tp2840
bS'HARD2'
p2841
tp2842
Rp2843
ag2
(g3
(S'S5'
p2844
I0
I1
tp2845
Rp2846
(I3
S'|'
p2847
NNNI5
I1
I0
tp2848
bS'HARD1'
p2849
tp2850
Rp2851
ag2
(g3
(S'S5'
p2852
I0
I1
tp2853
Rp2854
(I3
S'|'
p2855
NNNI5
I1
I0
tp2856
bS'HARD2'
p2857
tp2858
Rp2859
ag2
(g3
(S'S5'
p2860
I0
I1
tp2861
Rp2862
(I3
S'|'
p2863
NNNI5
I1
I0
tp2864
bS'HARD1'
p2865
tp2866
Rp2867
ag2
(g3
(S'S5'
p2868
I0
I1
tp2869
Rp2870
(I3
S'|'
p2871
NNNI5
I1
I0
tp2872
bS'HARD2'
p2873
tp2874
Rp2875
ag2
(g3
(S'S5'
p2876
I0
I1
tp2877
Rp2878
(I3
S'|'
p2879
NNNI5
I1
I0
tp2880
bS'HARD1'
p2881
tp2882
Rp2883
ag2
(g3
(S'S5'
p2884
I0
I1
tp2885
Rp2886
(I3
S'|'
p2887
NNNI5
I1
I0
tp2888
bS'HARD1'
p2889
tp2890
Rp2891
ag2
(g3
(S'S5'
p2892
I0
I1
tp2893
Rp2894
(I3
S'|'
p2895
NNNI5
I1
I0
tp2896
bS'HARD2'
p2897
tp2898
Rp2899
ag2
(g3
(S'S5'
p2900
I0
I1
tp2901
Rp2902
(I3
S'|'
p2903
NNNI5
I1
I0
tp2904
bS'HARD3'
p2905
tp2906
Rp2907
ag2
(g3
(S'S5'
p2908
I0
I1
tp2909
Rp2910
(I3
S'|'
p2911
NNNI5
I1
I0
tp2912
bS'HARD2'
p2913
tp2914
Rp2915
ag2
(g3
(S'S5'
p2916
I0
I1
tp2917
Rp2918
(I3
S'|'
p2919
NNNI5
I1
I0
tp2920
bS'HARD1'
p2921
tp2922
Rp2923
ag2
(g3
(S'S5'
p2924
I0
I1
tp2925
Rp2926
(I3
S'|'
p2927
NNNI5
I1
I0
tp2928
bS'HARD1'
p2929
tp2930
Rp2931
ag2
(g3
(S'S5'
p2932
I0
I1
tp2933
Rp2934
(I3
S'|'
p2935
NNNI5
I1
I0
tp2936
bS'HARD1'
p2937
tp2938
Rp2939
ag2
(g3
(S'S5'
p2940
I0
I1
tp2941
Rp2942
(I3
S'|'
p2943
NNNI5
I1
I0
tp2944
bS'HARD2'
p2945
tp2946
Rp2947
ag2
(g3
(S'S5'
p2948
I0
I1
tp2949
Rp2950
(I3
S'|'
p2951
NNNI5
I1
I0
tp2952
bS'HARD3'
p2953
tp2954
Rp2955
ag2
(g3
(S'S5'
p2956
I0
I1
tp2957
Rp2958
(I3
S'|'
p2959
NNNI5
I1
I0
tp2960
bS'HARD2'
p2961
tp2962
Rp2963
ag2
(g3
(S'S5'
p2964
I0
I1
tp2965
Rp2966
(I3
S'|'
p2967
NNNI5
I1
I0
tp2968
bS'HARD2'
p2969
tp2970
Rp2971
ag2
(g3
(S'S5'
p2972
I0
I1
tp2973
Rp2974
(I3
S'|'
p2975
NNNI5
I1
I0
tp2976
bS'HARD2'
p2977
tp2978
Rp2979
ag2
(g3
(S'S5'
p2980
I0
I1
tp2981
Rp2982
(I3
S'|'
p2983
NNNI5
I1
I0
tp2984
bS'HARD2'
p2985
tp2986
Rp2987
ag2
(g3
(S'S5'
p2988
I0
I1
tp2989
Rp2990
(I3
S'|'
p2991
NNNI5
I1
I0
tp2992
bS'HARD1'
p2993
tp2994
Rp2995
ag2
(g3
(S'S5'
p2996
I0
I1
tp2997
Rp2998
(I3
S'|'
p2999
NNNI5
I1
I0
tp3000
bS'HARD3'
p3001
tp3002
Rp3003
ag2
(g3
(S'S5'
p3004
I0
I1
tp3005
Rp3006
(I3
S'|'
p3007
NNNI5
I1
I0
tp3008
bS'HARD2'
p3009
tp3010
Rp3011
ag2
(g3
(S'S5'
p3012
I0
I1
tp3013
Rp3014
(I3
S'|'
p3015
NNNI5
I1
I0
tp3016
bS'HARD2'
p3017
tp3018
Rp3019
ag2
(g3
(S'S5'
p3020
I0
I1
tp3021
Rp3022
(I3
S'|'
p3023
NNNI5
I1
I0
tp3024
bS'HARD1'
p3025
tp3026
Rp3027
ag2
(g3
(S'S5'
p3028
I0
I1
tp3029
Rp3030
(I3
S'|'
p3031
NNNI5
I1
I0
tp3032
bS'HARD2'
p3033
tp3034
Rp3035
ag2
(g3
(S'S5'
p3036
I0
I1
tp3037
Rp3038
(I3
S'|'
p3039
NNNI5
I1
I0
tp3040
bS'HARD2'
p3041
tp3042
Rp3043
ag2
(g3
(S'S5'
p3044
I0
I1
tp3045
Rp3046
(I3
S'|'
p3047
NNNI5
I1
I0
tp3048
bS'HARD2'
p3049
tp3050
Rp3051
ag2
(g3
(S'S5'
p3052
I0
I1
tp3053
Rp3054
(I3
S'|'
p3055
NNNI5
I1
I0
tp3056
bS'HARD2'
p3057
tp3058
Rp3059
ag2
(g3
(S'S5'
p3060
I0
I1
tp3061
Rp3062
(I3
S'|'
p3063
NNNI5
I1
I0
tp3064
bS'HARD1'
p3065
tp3066
Rp3067
ag2
(g3
(S'S5'
p3068
I0
I1
tp3069
Rp3070
(I3
S'|'
p3071
NNNI5
I1
I0
tp3072
bS'HARD2'
p3073
tp3074
Rp3075
ag2
(g3
(S'S5'
p3076
I0
I1
tp3077
Rp3078
(I3
S'|'
p3079
NNNI5
I1
I0
tp3080
bS'HARD2'
p3081
tp3082
Rp3083
ag2
(g3
(S'S5'
p3084
I0
I1
tp3085
Rp3086
(I3
S'|'
p3087
NNNI5
I1
I0
tp3088
bS'HARD1'
p3089
tp3090
Rp3091
ag2
(g3
(S'S5'
p3092
I0
I1
tp3093
Rp3094
(I3
S'|'
p3095
NNNI5
I1
I0
tp3096
bS'HARD2'
p3097
tp3098
Rp3099
ag2
(g3
(S'S5'
p3100
I0
I1
tp3101
Rp3102
(I3
S'|'
p3103
NNNI5
I1
I0
tp3104
bS'HARD1'
p3105
tp3106
Rp3107
ag2
(g3
(S'S5'
p3108
I0
I1
tp3109
Rp3110
(I3
S'|'
p3111
NNNI5
I1
I0
tp3112
bS'HARD1'
p3113
tp3114
Rp3115
ag2
(g3
(S'S5'
p3116
I0
I1
tp3117
Rp3118
(I3
S'|'
p3119
NNNI5
I1
I0
tp3120
bS'HARD2'
p3121
tp3122
Rp3123
ag2
(g3
(S'S5'
p3124
I0
I1
tp3125
Rp3126
(I3
S'|'
p3127
NNNI5
I1
I0
tp3128
bS'HARD2'
p3129
tp3130
Rp3131
ag2
(g3
(S'S5'
p3132
I0
I1
tp3133
Rp3134
(I3
S'|'
p3135
NNNI5
I1
I0
tp3136
bS'HARD2'
p3137
tp3138
Rp3139
ag2
(g3
(S'S5'
p3140
I0
I1
tp3141
Rp3142
(I3
S'|'
p3143
NNNI5
I1
I0
tp3144
bS'HARD2'
p3145
tp3146
Rp3147
ag2
(g3
(S'S5'
p3148
I0
I1
tp3149
Rp3150
(I3
S'|'
p3151
NNNI5
I1
I0
tp3152
bS'HARD2'
p3153
tp3154
Rp3155
ag2
(g3
(S'S5'
p3156
I0
I1
tp3157
Rp3158
(I3
S'|'
p3159
NNNI5
I1
I0
tp3160
bS'HARD2'
p3161
tp3162
Rp3163
ag2
(g3
(S'S5'
p3164
I0
I1
tp3165
Rp3166
(I3
S'|'
p3167
NNNI5
I1
I0
tp3168
bS'HARD3'
p3169
tp3170
Rp3171
ag2
(g3
(S'S5'
p3172
I0
I1
tp3173
Rp3174
(I3
S'|'
p3175
NNNI5
I1
I0
tp3176
bS'HARD3'
p3177
tp3178
Rp3179
ag2
(g3
(S'S5'
p3180
I0
I1
tp3181
Rp3182
(I3
S'|'
p3183
NNNI5
I1
I0
tp3184
bS'HARD3'
p3185
tp3186
Rp3187
ag2
(g3
(S'S5'
p3188
I0
I1
tp3189
Rp3190
(I3
S'|'
p3191
NNNI5
I1
I0
tp3192
bS'HARD3'
p3193
tp3194
Rp3195
ag2
(g3
(S'S5'
p3196
I0
I1
tp3197
Rp3198
(I3
S'|'
p3199
NNNI5
I1
I0
tp3200
bS'HARD3'
p3201
tp3202
Rp3203
ag2
(g3
(S'S5'
p3204
I0
I1
tp3205
Rp3206
(I3
S'|'
p3207
NNNI5
I1
I0
tp3208
bS'HARD1'
p3209
tp3210
Rp3211
ag2
(g3
(S'S5'
p3212
I0
I1
tp3213
Rp3214
(I3
S'|'
p3215
NNNI5
I1
I0
tp3216
bS'HARD3'
p3217
tp3218
Rp3219
ag2
(g3
(S'S5'
p3220
I0
I1
tp3221
Rp3222
(I3
S'|'
p3223
NNNI5
I1
I0
tp3224
bS'HARD1'
p3225
tp3226
Rp3227
ag2
(g3
(S'S5'
p3228
I0
I1
tp3229
Rp3230
(I3
S'|'
p3231
NNNI5
I1
I0
tp3232
bS'HARD2'
p3233
tp3234
Rp3235
ag2
(g3
(S'S5'
p3236
I0
I1
tp3237
Rp3238
(I3
S'|'
p3239
NNNI5
I1
I0
tp3240
bS'HARD3'
p3241
tp3242
Rp3243
ag2
(g3
(S'S5'
p3244
I0
I1
tp3245
Rp3246
(I3
S'|'
p3247
NNNI5
I1
I0
tp3248
bS'HARD3'
p3249
tp3250
Rp3251
ag2
(g3
(S'S5'
p3252
I0
I1
tp3253
Rp3254
(I3
S'|'
p3255
NNNI5
I1
I0
tp3256
bS'HARD1'
p3257
tp3258
Rp3259
ag2
(g3
(S'S5'
p3260
I0
I1
tp3261
Rp3262
(I3
S'|'
p3263
NNNI5
I1
I0
tp3264
bS'HARD3'
p3265
tp3266
Rp3267
ag2
(g3
(S'S5'
p3268
I0
I1
tp3269
Rp3270
(I3
S'|'
p3271
NNNI5
I1
I0
tp3272
bS'HARD3'
p3273
tp3274
Rp3275
ag2
(g3
(S'S5'
p3276
I0
I1
tp3277
Rp3278
(I3
S'|'
p3279
NNNI5
I1
I0
tp3280
bS'HARD3'
p3281
tp3282
Rp3283
ag2
(g3
(S'S5'
p3284
I0
I1
tp3285
Rp3286
(I3
S'|'
p3287
NNNI5
I1
I0
tp3288
bS'HARD3'
p3289
tp3290
Rp3291
ag2
(g3
(S'S5'
p3292
I0
I1
tp3293
Rp3294
(I3
S'|'
p3295
NNNI5
I1
I0
tp3296
bS'HARD3'
p3297
tp3298
Rp3299
ag2
(g3
(S'S5'
p3300
I0
I1
tp3301
Rp3302
(I3
S'|'
p3303
NNNI5
I1
I0
tp3304
bS'HARD3'
p3305
tp3306
Rp3307
ag2
(g3
(S'S5'
p3308
I0
I1
tp3309
Rp3310
(I3
S'|'
p3311
NNNI5
I1
I0
tp3312
bS'HARD3'
p3313
tp3314
Rp3315
ag2
(g3
(S'S5'
p3316
I0
I1
tp3317
Rp3318
(I3
S'|'
p3319
NNNI5
I1
I0
tp3320
bS'HARD3'
p3321
tp3322
Rp3323
ag2
(g3
(S'S5'
p3324
I0
I1
tp3325
Rp3326
(I3
S'|'
p3327
NNNI5
I1
I0
tp3328
bS'HARD3'
p3329
tp3330
Rp3331
ag2
(g3
(S'S5'
p3332
I0
I1
tp3333
Rp3334
(I3
S'|'
p3335
NNNI5
I1
I0
tp3336
bS'HARD3'
p3337
tp3338
Rp3339
ag2
(g3
(S'S5'
p3340
I0
I1
tp3341
Rp3342
(I3
S'|'
p3343
NNNI5
I1
I0
tp3344
bS'HARD1'
p3345
tp3346
Rp3347
ag2
(g3
(S'S5'
p3348
I0
I1
tp3349
Rp3350
(I3
S'|'
p3351
NNNI5
I1
I0
tp3352
bS'HARD1'
p3353
tp3354
Rp3355
ag2
(g3
(S'S5'
p3356
I0
I1
tp3357
Rp3358
(I3
S'|'
p3359
NNNI5
I1
I0
tp3360
bS'HARD3'
p3361
tp3362
Rp3363
ag2
(g3
(S'S5'
p3364
I0
I1
tp3365
Rp3366
(I3
S'|'
p3367
NNNI5
I1
I0
tp3368
bS'HARD1'
p3369
tp3370
Rp3371
ag2
(g3
(S'S5'
p3372
I0
I1
tp3373
Rp3374
(I3
S'|'
p3375
NNNI5
I1
I0
tp3376
bS'HARD3'
p3377
tp3378
Rp3379
ag2
(g3
(S'S5'
p3380
I0
I1
tp3381
Rp3382
(I3
S'|'
p3383
NNNI5
I1
I0
tp3384
bS'HARD3'
p3385
tp3386
Rp3387
ag2
(g3
(S'S5'
p3388
I0
I1
tp3389
Rp3390
(I3
S'|'
p3391
NNNI5
I1
I0
tp3392
bS'HARD1'
p3393
tp3394
Rp3395
ag2
(g3
(S'S5'
p3396
I0
I1
tp3397
Rp3398
(I3
S'|'
p3399
NNNI5
I1
I0
tp3400
bS'HARD3'
p3401
tp3402
Rp3403
ag2
(g3
(S'S5'
p3404
I0
I1
tp3405
Rp3406
(I3
S'|'
p3407
NNNI5
I1
I0
tp3408
bS'HARD1'
p3409
tp3410
Rp3411
ag2
(g3
(S'S5'
p3412
I0
I1
tp3413
Rp3414
(I3
S'|'
p3415
NNNI5
I1
I0
tp3416
bS'HARD3'
p3417
tp3418
Rp3419
ag2
(g3
(S'S5'
p3420
I0
I1
tp3421
Rp3422
(I3
S'|'
p3423
NNNI5
I1
I0
tp3424
bS'HARD3'
p3425
tp3426
Rp3427
ag2
(g3
(S'S5'
p3428
I0
I1
tp3429
Rp3430
(I3
S'|'
p3431
NNNI5
I1
I0
tp3432
bS'HARD3'
p3433
tp3434
Rp3435
ag2
(g3
(S'S5'
p3436
I0
I1
tp3437
Rp3438
(I3
S'|'
p3439
NNNI5
I1
I0
tp3440
bS'HARD3'
p3441
tp3442
Rp3443
ag2
(g3
(S'S5'
p3444
I0
I1
tp3445
Rp3446
(I3
S'|'
p3447
NNNI5
I1
I0
tp3448
bS'HARD3'
p3449
tp3450
Rp3451
ag2
(g3
(S'S5'
p3452
I0
I1
tp3453
Rp3454
(I3
S'|'
p3455
NNNI5
I1
I0
tp3456
bS'HARD2'
p3457
tp3458
Rp3459
ag2
(g3
(S'S5'
p3460
I0
I1
tp3461
Rp3462
(I3
S'|'
p3463
NNNI5
I1
I0
tp3464
bS'HARD1'
p3465
tp3466
Rp3467
aa(lp3468
g2
(g3
(S'S5'
p3469
I0
I1
tp3470
Rp3471
(I3
S'|'
p3472
NNNI5
I1
I0
tp3473
bS'HARD1'
p3474
tp3475
Rp3476
ag2
(g3
(S'S5'
p3477
I0
I1
tp3478
Rp3479
(I3
S'|'
p3480
NNNI5
I1
I0
tp3481
bS'HARD1'
p3482
tp3483
Rp3484
ag2
(g3
(S'S5'
p3485
I0
I1
tp3486
Rp3487
(I3
S'|'
p3488
NNNI5
I1
I0
tp3489
bS'HARD1'
p3490
tp3491
Rp3492
ag2
(g3
(S'S5'
p3493
I0
I1
tp3494
Rp3495
(I3
S'|'
p3496
NNNI5
I1
I0
tp3497
bS'HARD1'
p3498
tp3499
Rp3500
ag2
(g3
(S'S5'
p3501
I0
I1
tp3502
Rp3503
(I3
S'|'
p3504
NNNI5
I1
I0
tp3505
bS'HARD1'
p3506
tp3507
Rp3508
ag2
(g3
(S'S5'
p3509
I0
I1
tp3510
Rp3511
(I3
S'|'
p3512
NNNI5
I1
I0
tp3513
bS'HARD3'
p3514
tp3515
Rp3516
ag2
(g3
(S'S5'
p3517
I0
I1
tp3518
Rp3519
(I3
S'|'
p3520
NNNI5
I1
I0
tp3521
bS'HARD1'
p3522
tp3523
Rp3524
ag2
(g3
(S'S5'
p3525
I0
I1
tp3526
Rp3527
(I3
S'|'
p3528
NNNI5
I1
I0
tp3529
bS'HARD1'
p3530
tp3531
Rp3532
ag2
(g3
(S'S5'
p3533
I0
I1
tp3534
Rp3535
(I3
S'|'
p3536
NNNI5
I1
I0
tp3537
bS'HARD1'
p3538
tp3539
Rp3540
ag2
(g3
(S'S5'
p3541
I0
I1
tp3542
Rp3543
(I3
S'|'
p3544
NNNI5
I1
I0
tp3545
bS'HARD1'
p3546
tp3547
Rp3548
ag2
(g3
(S'S5'
p3549
I0
I1
tp3550
Rp3551
(I3
S'|'
p3552
NNNI5
I1
I0
tp3553
bS'HARD1'
p3554
tp3555
Rp3556
ag2
(g3
(S'S5'
p3557
I0
I1
tp3558
Rp3559
(I3
S'|'
p3560
NNNI5
I1
I0
tp3561
bS'HARD1'
p3562
tp3563
Rp3564
ag2
(g3
(S'S5'
p3565
I0
I1
tp3566
Rp3567
(I3
S'|'
p3568
NNNI5
I1
I0
tp3569
bS'HARD1'
p3570
tp3571
Rp3572
ag2
(g3
(S'S5'
p3573
I0
I1
tp3574
Rp3575
(I3
S'|'
p3576
NNNI5
I1
I0
tp3577
bS'HARD1'
p3578
tp3579
Rp3580
ag2
(g3
(S'S5'
p3581
I0
I1
tp3582
Rp3583
(I3
S'|'
p3584
NNNI5
I1
I0
tp3585
bS'HARD1'
p3586
tp3587
Rp3588
ag2
(g3
(S'S5'
p3589
I0
I1
tp3590
Rp3591
(I3
S'|'
p3592
NNNI5
I1
I0
tp3593
bS'HARD1'
p3594
tp3595
Rp3596
ag2
(g3
(S'S5'
p3597
I0
I1
tp3598
Rp3599
(I3
S'|'
p3600
NNNI5
I1
I0
tp3601
bS'HARD1'
p3602
tp3603
Rp3604
ag2
(g3
(S'S5'
p3605
I0
I1
tp3606
Rp3607
(I3
S'|'
p3608
NNNI5
I1
I0
tp3609
bS'HARD3'
p3610
tp3611
Rp3612
ag2
(g3
(S'S5'
p3613
I0
I1
tp3614
Rp3615
(I3
S'|'
p3616
NNNI5
I1
I0
tp3617
bS'HARD1'
p3618
tp3619
Rp3620
ag2
(g3
(S'S5'
p3621
I0
I1
tp3622
Rp3623
(I3
S'|'
p3624
NNNI5
I1
I0
tp3625
bS'HARD1'
p3626
tp3627
Rp3628
ag2
(g3
(S'S5'
p3629
I0
I1
tp3630
Rp3631
(I3
S'|'
p3632
NNNI5
I1
I0
tp3633
bS'HARD1'
p3634
tp3635
Rp3636
ag2
(g3
(S'S5'
p3637
I0
I1
tp3638
Rp3639
(I3
S'|'
p3640
NNNI5
I1
I0
tp3641
bS'HARD1'
p3642
tp3643
Rp3644
ag2
(g3
(S'S5'
p3645
I0
I1
tp3646
Rp3647
(I3
S'|'
p3648
NNNI5
I1
I0
tp3649
bS'HARD1'
p3650
tp3651
Rp3652
ag2
(g3
(S'S5'
p3653
I0
I1
tp3654
Rp3655
(I3
S'|'
p3656
NNNI5
I1
I0
tp3657
bS'HARD1'
p3658
tp3659
Rp3660
ag2
(g3
(S'S5'
p3661
I0
I1
tp3662
Rp3663
(I3
S'|'
p3664
NNNI5
I1
I0
tp3665
bS'HARD1'
p3666
tp3667
Rp3668
ag2
(g3
(S'S5'
p3669
I0
I1
tp3670
Rp3671
(I3
S'|'
p3672
NNNI5
I1
I0
tp3673
bS'HARD1'
p3674
tp3675
Rp3676
ag2
(g3
(S'S5'
p3677
I0
I1
tp3678
Rp3679
(I3
S'|'
p3680
NNNI5
I1
I0
tp3681
bS'HARD1'
p3682
tp3683
Rp3684
ag2
(g3
(S'S5'
p3685
I0
I1
tp3686
Rp3687
(I3
S'|'
p3688
NNNI5
I1
I0
tp3689
bS'HARD1'
p3690
tp3691
Rp3692
ag2
(g3
(S'S5'
p3693
I0
I1
tp3694
Rp3695
(I3
S'|'
p3696
NNNI5
I1
I0
tp3697
bS'HARD1'
p3698
tp3699
Rp3700
ag2
(g3
(S'S5'
p3701
I0
I1
tp3702
Rp3703
(I3
S'|'
p3704
NNNI5
I1
I0
tp3705
bS'HARD3'
p3706
tp3707
Rp3708
ag2
(g3
(S'S5'
p3709
I0
I1
tp3710
Rp3711
(I3
S'|'
p3712
NNNI5
I1
I0
tp3713
bS'HARD1'
p3714
tp3715
Rp3716
ag2
(g3
(S'S5'
p3717
I0
I1
tp3718
Rp3719
(I3
S'|'
p3720
NNNI5
I1
I0
tp3721
bS'HARD1'
p3722
tp3723
Rp3724
ag2
(g3
(S'S5'
p3725
I0
I1
tp3726
Rp3727
(I3
S'|'
p3728
NNNI5
I1
I0
tp3729
bS'HARD1'
p3730
tp3731
Rp3732
ag2
(g3
(S'S5'
p3733
I0
I1
tp3734
Rp3735
(I3
S'|'
p3736
NNNI5
I1
I0
tp3737
bS'HARD1'
p3738
tp3739
Rp3740
ag2
(g3
(S'S5'
p3741
I0
I1
tp3742
Rp3743
(I3
S'|'
p3744
NNNI5
I1
I0
tp3745
bS'HARD1'
p3746
tp3747
Rp3748
ag2
(g3
(S'S5'
p3749
I0
I1
tp3750
Rp3751
(I3
S'|'
p3752
NNNI5
I1
I0
tp3753
bS'HARD1'
p3754
tp3755
Rp3756
ag2
(g3
(S'S5'
p3757
I0
I1
tp3758
Rp3759
(I3
S'|'
p3760
NNNI5
I1
I0
tp3761
bS'HARD1'
p3762
tp3763
Rp3764
ag2
(g3
(S'S5'
p3765
I0
I1
tp3766
Rp3767
(I3
S'|'
p3768
NNNI5
I1
I0
tp3769
bS'HARD1'
p3770
tp3771
Rp3772
ag2
(g3
(S'S5'
p3773
I0
I1
tp3774
Rp3775
(I3
S'|'
p3776
NNNI5
I1
I0
tp3777
bS'HARD1'
p3778
tp3779
Rp3780
ag2
(g3
(S'S5'
p3781
I0
I1
tp3782
Rp3783
(I3
S'|'
p3784
NNNI5
I1
I0
tp3785
bS'HARD1'
p3786
tp3787
Rp3788
ag2
(g3
(S'S5'
p3789
I0
I1
tp3790
Rp3791
(I3
S'|'
p3792
NNNI5
I1
I0
tp3793
bS'HARD1'
p3794
tp3795
Rp3796
ag2
(g3
(S'S5'
p3797
I0
I1
tp3798
Rp3799
(I3
S'|'
p3800
NNNI5
I1
I0
tp3801
bS'HARD1'
p3802
tp3803
Rp3804
ag2
(g3
(S'S5'
p3805
I0
I1
tp3806
Rp3807
(I3
S'|'
p3808
NNNI5
I1
I0
tp3809
bS'HARD1'
p3810
tp3811
Rp3812
ag2
(g3
(S'S5'
p3813
I0
I1
tp3814
Rp3815
(I3
S'|'
p3816
NNNI5
I1
I0
tp3817
bS'HARD1'
p3818
tp3819
Rp3820
ag2
(g3
(S'S5'
p3821
I0
I1
tp3822
Rp3823
(I3
S'|'
p3824
NNNI5
I1
I0
tp3825
bS'HARD1'
p3826
tp3827
Rp3828
ag2
(g3
(S'S5'
p3829
I0
I1
tp3830
Rp3831
(I3
S'|'
p3832
NNNI5
I1
I0
tp3833
bS'HARD1'
p3834
tp3835
Rp3836
ag2
(g3
(S'S5'
p3837
I0
I1
tp3838
Rp3839
(I3
S'|'
p3840
NNNI5
I1
I0
tp3841
bS'HARD1'
p3842
tp3843
Rp3844
ag2
(g3
(S'S5'
p3845
I0
I1
tp3846
Rp3847
(I3
S'|'
p3848
NNNI5
I1
I0
tp3849
bS'HARD1'
p3850
tp3851
Rp3852
ag2
(g3
(S'S5'
p3853
I0
I1
tp3854
Rp3855
(I3
S'|'
p3856
NNNI5
I1
I0
tp3857
bS'HARD3'
p3858
tp3859
Rp3860
ag2
(g3
(S'S5'
p3861
I0
I1
tp3862
Rp3863
(I3
S'|'
p3864
NNNI5
I1
I0
tp3865
bS'HARD1'
p3866
tp3867
Rp3868
ag2
(g3
(S'S5'
p3869
I0
I1
tp3870
Rp3871
(I3
S'|'
p3872
NNNI5
I1
I0
tp3873
bS'HARD1'
p3874
tp3875
Rp3876
ag2
(g3
(S'S5'
p3877
I0
I1
tp3878
Rp3879
(I3
S'|'
p3880
NNNI5
I1
I0
tp3881
bS'HARD1'
p3882
tp3883
Rp3884
ag2
(g3
(S'S5'
p3885
I0
I1
tp3886
Rp3887
(I3
S'|'
p3888
NNNI5
I1
I0
tp3889
bS'HARD1'
p3890
tp3891
Rp3892
ag2
(g3
(S'S5'
p3893
I0
I1
tp3894
Rp3895
(I3
S'|'
p3896
NNNI5
I1
I0
tp3897
bS'HARD1'
p3898
tp3899
Rp3900
ag2
(g3
(S'S5'
p3901
I0
I1
tp3902
Rp3903
(I3
S'|'
p3904
NNNI5
I1
I0
tp3905
bS'HARD1'
p3906
tp3907
Rp3908
ag2
(g3
(S'S5'
p3909
I0
I1
tp3910
Rp3911
(I3
S'|'
p3912
NNNI5
I1
I0
tp3913
bS'HARD1'
p3914
tp3915
Rp3916
ag2
(g3
(S'S5'
p3917
I0
I1
tp3918
Rp3919
(I3
S'|'
p3920
NNNI5
I1
I0
tp3921
bS'HARD1'
p3922
tp3923
Rp3924
ag2
(g3
(S'S5'
p3925
I0
I1
tp3926
Rp3927
(I3
S'|'
p3928
NNNI5
I1
I0
tp3929
bS'HARD1'
p3930
tp3931
Rp3932
ag2
(g3
(S'S5'
p3933
I0
I1
tp3934
Rp3935
(I3
S'|'
p3936
NNNI5
I1
I0
tp3937
bS'HARD1'
p3938
tp3939
Rp3940
ag2
(g3
(S'S5'
p3941
I0
I1
tp3942
Rp3943
(I3
S'|'
p3944
NNNI5
I1
I0
tp3945
bS'HARD1'
p3946
tp3947
Rp3948
ag2
(g3
(S'S5'
p3949
I0
I1
tp3950
Rp3951
(I3
S'|'
p3952
NNNI5
I1
I0
tp3953
bS'HARD1'
p3954
tp3955
Rp3956
ag2
(g3
(S'S5'
p3957
I0
I1
tp3958
Rp3959
(I3
S'|'
p3960
NNNI5
I1
I0
tp3961
bS'HARD1'
p3962
tp3963
Rp3964
ag2
(g3
(S'S5'
p3965
I0
I1
tp3966
Rp3967
(I3
S'|'
p3968
NNNI5
I1
I0
tp3969
bS'HARD1'
p3970
tp3971
Rp3972
ag2
(g3
(S'S5'
p3973
I0
I1
tp3974
Rp3975
(I3
S'|'
p3976
NNNI5
I1
I0
tp3977
bS'HARD1'
p3978
tp3979
Rp3980
ag2
(g3
(S'S5'
p3981
I0
I1
tp3982
Rp3983
(I3
S'|'
p3984
NNNI5
I1
I0
tp3985
bS'HARD3'
p3986
tp3987
Rp3988
ag2
(g3
(S'S5'
p3989
I0
I1
tp3990
Rp3991
(I3
S'|'
p3992
NNNI5
I1
I0
tp3993
bS'HARD1'
p3994
tp3995
Rp3996
ag2
(g3
(S'S5'
p3997
I0
I1
tp3998
Rp3999
(I3
S'|'
p4000
NNNI5
I1
I0
tp4001
bS'HARD3'
p4002
tp4003
Rp4004
ag2
(g3
(S'S5'
p4005
I0
I1
tp4006
Rp4007
(I3
S'|'
p4008
NNNI5
I1
I0
tp4009
bS'HARD1'
p4010
tp4011
Rp4012
ag2
(g3
(S'S5'
p4013
I0
I1
tp4014
Rp4015
(I3
S'|'
p4016
NNNI5
I1
I0
tp4017
bS'HARD1'
p4018
tp4019
Rp4020
ag2
(g3
(S'S5'
p4021
I0
I1
tp4022
Rp4023
(I3
S'|'
p4024
NNNI5
I1
I0
tp4025
bS'HARD1'
p4026
tp4027
Rp4028
ag2
(g3
(S'S5'
p4029
I0
I1
tp4030
Rp4031
(I3
S'|'
p4032
NNNI5
I1
I0
tp4033
bS'HARD1'
p4034
tp4035
Rp4036
ag2
(g3
(S'S5'
p4037
I0
I1
tp4038
Rp4039
(I3
S'|'
p4040
NNNI5
I1
I0
tp4041
bS'HARD1'
p4042
tp4043
Rp4044
ag2
(g3
(S'S5'
p4045
I0
I1
tp4046
Rp4047
(I3
S'|'
p4048
NNNI5
I1
I0
tp4049
bS'HARD1'
p4050
tp4051
Rp4052
ag2
(g3
(S'S5'
p4053
I0
I1
tp4054
Rp4055
(I3
S'|'
p4056
NNNI5
I1
I0
tp4057
bS'HARD1'
p4058
tp4059
Rp4060
ag2
(g3
(S'S5'
p4061
I0
I1
tp4062
Rp4063
(I3
S'|'
p4064
NNNI5
I1
I0
tp4065
bS'HARD1'
p4066
tp4067
Rp4068
ag2
(g3
(S'S5'
p4069
I0
I1
tp4070
Rp4071
(I3
S'|'
p4072
NNNI5
I1
I0
tp4073
bS'HARD1'
p4074
tp4075
Rp4076
ag2
(g3
(S'S5'
p4077
I0
I1
tp4078
Rp4079
(I3
S'|'
p4080
NNNI5
I1
I0
tp4081
bS'HARD1'
p4082
tp4083
Rp4084
ag2
(g3
(S'S5'
p4085
I0
I1
tp4086
Rp4087
(I3
S'|'
p4088
NNNI5
I1
I0
tp4089
bS'HARD1'
p4090
tp4091
Rp4092
ag2
(g3
(S'S5'
p4093
I0
I1
tp4094
Rp4095
(I3
S'|'
p4096
NNNI5
I1
I0
tp4097
bS'HARD1'
p4098
tp4099
Rp4100
ag2
(g3
(S'S5'
p4101
I0
I1
tp4102
Rp4103
(I3
S'|'
p4104
NNNI5
I1
I0
tp4105
bS'HARD1'
p4106
tp4107
Rp4108
ag2
(g3
(S'S5'
p4109
I0
I1
tp4110
Rp4111
(I3
S'|'
p4112
NNNI5
I1
I0
tp4113
bS'HARD1'
p4114
tp4115
Rp4116
ag2
(g3
(S'S5'
p4117
I0
I1
tp4118
Rp4119
(I3
S'|'
p4120
NNNI5
I1
I0
tp4121
bS'HARD1'
p4122
tp4123
Rp4124
ag2
(g3
(S'S5'
p4125
I0
I1
tp4126
Rp4127
(I3
S'|'
p4128
NNNI5
I1
I0
tp4129
bS'HARD1'
p4130
tp4131
Rp4132
ag2
(g3
(S'S5'
p4133
I0
I1
tp4134
Rp4135
(I3
S'|'
p4136
NNNI5
I1
I0
tp4137
bS'HARD1'
p4138
tp4139
Rp4140
ag2
(g3
(S'S5'
p4141
I0
I1
tp4142
Rp4143
(I3
S'|'
p4144
NNNI5
I1
I0
tp4145
bS'HARD1'
p4146
tp4147
Rp4148
ag2
(g3
(S'S5'
p4149
I0
I1
tp4150
Rp4151
(I3
S'|'
p4152
NNNI5
I1
I0
tp4153
bS'HARD1'
p4154
tp4155
Rp4156
ag2
(g3
(S'S5'
p4157
I0
I1
tp4158
Rp4159
(I3
S'|'
p4160
NNNI5
I1
I0
tp4161
bS'HARD1'
p4162
tp4163
Rp4164
ag2
(g3
(S'S5'
p4165
I0
I1
tp4166
Rp4167
(I3
S'|'
p4168
NNNI5
I1
I0
tp4169
bS'HARD1'
p4170
tp4171
Rp4172
ag2
(g3
(S'S5'
p4173
I0
I1
tp4174
Rp4175
(I3
S'|'
p4176
NNNI5
I1
I0
tp4177
bS'HARD1'
p4178
tp4179
Rp4180
ag2
(g3
(S'S5'
p4181
I0
I1
tp4182
Rp4183
(I3
S'|'
p4184
NNNI5
I1
I0
tp4185
bS'HARD1'
p4186
tp4187
Rp4188
ag2
(g3
(S'S5'
p4189
I0
I1
tp4190
Rp4191
(I3
S'|'
p4192
NNNI5
I1
I0
tp4193
bS'HARD1'
p4194
tp4195
Rp4196
ag2
(g3
(S'S5'
p4197
I0
I1
tp4198
Rp4199
(I3
S'|'
p4200
NNNI5
I1
I0
tp4201
bS'HARD1'
p4202
tp4203
Rp4204
ag2
(g3
(S'S5'
p4205
I0
I1
tp4206
Rp4207
(I3
S'|'
p4208
NNNI5
I1
I0
tp4209
bS'HARD3'
p4210
tp4211
Rp4212
ag2
(g3
(S'S5'
p4213
I0
I1
tp4214
Rp4215
(I3
S'|'
p4216
NNNI5
I1
I0
tp4217
bS'HARD1'
p4218
tp4219
Rp4220
ag2
(g3
(S'S5'
p4221
I0
I1
tp4222
Rp4223
(I3
S'|'
p4224
NNNI5
I1
I0
tp4225
bS'HARD1'
p4226
tp4227
Rp4228
ag2
(g3
(S'S5'
p4229
I0
I1
tp4230
Rp4231
(I3
S'|'
p4232
NNNI5
I1
I0
tp4233
bS'HARD3'
p4234
tp4235
Rp4236
ag2
(g3
(S'S5'
p4237
I0
I1
tp4238
Rp4239
(I3
S'|'
p4240
NNNI5
I1
I0
tp4241
bS'HARD1'
p4242
tp4243
Rp4244
ag2
(g3
(S'S5'
p4245
I0
I1
tp4246
Rp4247
(I3
S'|'
p4248
NNNI5
I1
I0
tp4249
bS'HARD1'
p4250
tp4251
Rp4252
ag2
(g3
(S'S5'
p4253
I0
I1
tp4254
Rp4255
(I3
S'|'
p4256
NNNI5
I1
I0
tp4257
bS'HARD1'
p4258
tp4259
Rp4260
ag2
(g3
(S'S5'
p4261
I0
I1
tp4262
Rp4263
(I3
S'|'
p4264
NNNI5
I1
I0
tp4265
bS'HARD1'
p4266
tp4267
Rp4268
ag2
(g3
(S'S5'
p4269
I0
I1
tp4270
Rp4271
(I3
S'|'
p4272
NNNI5
I1
I0
tp4273
bS'HARD1'
p4274
tp4275
Rp4276
ag2
(g3
(S'S5'
p4277
I0
I1
tp4278
Rp4279
(I3
S'|'
p4280
NNNI5
I1
I0
tp4281
bS'HARD1'
p4282
tp4283
Rp4284
ag2
(g3
(S'S5'
p4285
I0
I1
tp4286
Rp4287
(I3
S'|'
p4288
NNNI5
I1
I0
tp4289
bS'HARD1'
p4290
tp4291
Rp4292
ag2
(g3
(S'S5'
p4293
I0
I1
tp4294
Rp4295
(I3
S'|'
p4296
NNNI5
I1
I0
tp4297
bS'HARD1'
p4298
tp4299
Rp4300
ag2
(g3
(S'S5'
p4301
I0
I1
tp4302
Rp4303
(I3
S'|'
p4304
NNNI5
I1
I0
tp4305
bS'HARD1'
p4306
tp4307
Rp4308
ag2
(g3
(S'S5'
p4309
I0
I1
tp4310
Rp4311
(I3
S'|'
p4312
NNNI5
I1
I0
tp4313
bS'HARD1'
p4314
tp4315
Rp4316
ag2
(g3
(S'S5'
p4317
I0
I1
tp4318
Rp4319
(I3
S'|'
p4320
NNNI5
I1
I0
tp4321
bS'HARD1'
p4322
tp4323
Rp4324
ag2
(g3
(S'S5'
p4325
I0
I1
tp4326
Rp4327
(I3
S'|'
p4328
NNNI5
I1
I0
tp4329
bS'HARD1'
p4330
tp4331
Rp4332
ag2
(g3
(S'S5'
p4333
I0
I1
tp4334
Rp4335
(I3
S'|'
p4336
NNNI5
I1
I0
tp4337
bS'HARD1'
p4338
tp4339
Rp4340
ag2
(g3
(S'S5'
p4341
I0
I1
tp4342
Rp4343
(I3
S'|'
p4344
NNNI5
I1
I0
tp4345
bS'HARD1'
p4346
tp4347
Rp4348
ag2
(g3
(S'S5'
p4349
I0
I1
tp4350
Rp4351
(I3
S'|'
p4352
NNNI5
I1
I0
tp4353
bS'HARD1'
p4354
tp4355
Rp4356
ag2
(g3
(S'S5'
p4357
I0
I1
tp4358
Rp4359
(I3
S'|'
p4360
NNNI5
I1
I0
tp4361
bS'HARD1'
p4362
tp4363
Rp4364
ag2
(g3
(S'S5'
p4365
I0
I1
tp4366
Rp4367
(I3
S'|'
p4368
NNNI5
I1
I0
tp4369
bS'HARD1'
p4370
tp4371
Rp4372
ag2
(g3
(S'S5'
p4373
I0
I1
tp4374
Rp4375
(I3
S'|'
p4376
NNNI5
I1
I0
tp4377
bS'HARD3'
p4378
tp4379
Rp4380
ag2
(g3
(S'S5'
p4381
I0
I1
tp4382
Rp4383
(I3
S'|'
p4384
NNNI5
I1
I0
tp4385
bS'HARD1'
p4386
tp4387
Rp4388
ag2
(g3
(S'S5'
p4389
I0
I1
tp4390
Rp4391
(I3
S'|'
p4392
NNNI5
I1
I0
tp4393
bS'HARD1'
p4394
tp4395
Rp4396
ag2
(g3
(S'S5'
p4397
I0
I1
tp4398
Rp4399
(I3
S'|'
p4400
NNNI5
I1
I0
tp4401
bS'HARD1'
p4402
tp4403
Rp4404
ag2
(g3
(S'S5'
p4405
I0
I1
tp4406
Rp4407
(I3
S'|'
p4408
NNNI5
I1
I0
tp4409
bS'HARD1'
p4410
tp4411
Rp4412
ag2
(g3
(S'S5'
p4413
I0
I1
tp4414
Rp4415
(I3
S'|'
p4416
NNNI5
I1
I0
tp4417
bS'HARD1'
p4418
tp4419
Rp4420
ag2
(g3
(S'S5'
p4421
I0
I1
tp4422
Rp4423
(I3
S'|'
p4424
NNNI5
I1
I0
tp4425
bS'HARD1'
p4426
tp4427
Rp4428
ag2
(g3
(S'S5'
p4429
I0
I1
tp4430
Rp4431
(I3
S'|'
p4432
NNNI5
I1
I0
tp4433
bS'HARD1'
p4434
tp4435
Rp4436
ag2
(g3
(S'S5'
p4437
I0
I1
tp4438
Rp4439
(I3
S'|'
p4440
NNNI5
I1
I0
tp4441
bS'HARD1'
p4442
tp4443
Rp4444
ag2
(g3
(S'S5'
p4445
I0
I1
tp4446
Rp4447
(I3
S'|'
p4448
NNNI5
I1
I0
tp4449
bS'HARD1'
p4450
tp4451
Rp4452
ag2
(g3
(S'S5'
p4453
I0
I1
tp4454
Rp4455
(I3
S'|'
p4456
NNNI5
I1
I0
tp4457
bS'HARD1'
p4458
tp4459
Rp4460
ag2
(g3
(S'S5'
p4461
I0
I1
tp4462
Rp4463
(I3
S'|'
p4464
NNNI5
I1
I0
tp4465
bS'HARD1'
p4466
tp4467
Rp4468
ag2
(g3
(S'S5'
p4469
I0
I1
tp4470
Rp4471
(I3
S'|'
p4472
NNNI5
I1
I0
tp4473
bS'HARD1'
p4474
tp4475
Rp4476
ag2
(g3
(S'S5'
p4477
I0
I1
tp4478
Rp4479
(I3
S'|'
p4480
NNNI5
I1
I0
tp4481
bS'HARD1'
p4482
tp4483
Rp4484
ag2
(g3
(S'S5'
p4485
I0
I1
tp4486
Rp4487
(I3
S'|'
p4488
NNNI5
I1
I0
tp4489
bS'HARD1'
p4490
tp4491
Rp4492
ag2
(g3
(S'S5'
p4493
I0
I1
tp4494
Rp4495
(I3
S'|'
p4496
NNNI5
I1
I0
tp4497
bS'HARD1'
p4498
tp4499
Rp4500
ag2
(g3
(S'S5'
p4501
I0
I1
tp4502
Rp4503
(I3
S'|'
p4504
NNNI5
I1
I0
tp4505
bS'HARD1'
p4506
tp4507
Rp4508
ag2
(g3
(S'S5'
p4509
I0
I1
tp4510
Rp4511
(I3
S'|'
p4512
NNNI5
I1
I0
tp4513
bS'HARD1'
p4514
tp4515
Rp4516
ag2
(g3
(S'S5'
p4517
I0
I1
tp4518
Rp4519
(I3
S'|'
p4520
NNNI5
I1
I0
tp4521
bS'HARD1'
p4522
tp4523
Rp4524
ag2
(g3
(S'S5'
p4525
I0
I1
tp4526
Rp4527
(I3
S'|'
p4528
NNNI5
I1
I0
tp4529
bS'HARD1'
p4530
tp4531
Rp4532
ag2
(g3
(S'S5'
p4533
I0
I1
tp4534
Rp4535
(I3
S'|'
p4536
NNNI5
I1
I0
tp4537
bS'HARD1'
p4538
tp4539
Rp4540
ag2
(g3
(S'S5'
p4541
I0
I1
tp4542
Rp4543
(I3
S'|'
p4544
NNNI5
I1
I0
tp4545
bS'HARD1'
p4546
tp4547
Rp4548
ag2
(g3
(S'S5'
p4549
I0
I1
tp4550
Rp4551
(I3
S'|'
p4552
NNNI5
I1
I0
tp4553
bS'HARD3'
p4554
tp4555
Rp4556
ag2
(g3
(S'S5'
p4557
I0
I1
tp4558
Rp4559
(I3
S'|'
p4560
NNNI5
I1
I0
tp4561
bS'HARD1'
p4562
tp4563
Rp4564
ag2
(g3
(S'S5'
p4565
I0
I1
tp4566
Rp4567
(I3
S'|'
p4568
NNNI5
I1
I0
tp4569
bS'HARD1'
p4570
tp4571
Rp4572
ag2
(g3
(S'S5'
p4573
I0
I1
tp4574
Rp4575
(I3
S'|'
p4576
NNNI5
I1
I0
tp4577
bS'HARD1'
p4578
tp4579
Rp4580
ag2
(g3
(S'S5'
p4581
I0
I1
tp4582
Rp4583
(I3
S'|'
p4584
NNNI5
I1
I0
tp4585
bS'HARD3'
p4586
tp4587
Rp4588
ag2
(g3
(S'S5'
p4589
I0
I1
tp4590
Rp4591
(I3
S'|'
p4592
NNNI5
I1
I0
tp4593
bS'HARD1'
p4594
tp4595
Rp4596
ag2
(g3
(S'S5'
p4597
I0
I1
tp4598
Rp4599
(I3
S'|'
p4600
NNNI5
I1
I0
tp4601
bS'HARD1'
p4602
tp4603
Rp4604
ag2
(g3
(S'S5'
p4605
I0
I1
tp4606
Rp4607
(I3
S'|'
p4608
NNNI5
I1
I0
tp4609
bS'HARD1'
p4610
tp4611
Rp4612
ag2
(g3
(S'S5'
p4613
I0
I1
tp4614
Rp4615
(I3
S'|'
p4616
NNNI5
I1
I0
tp4617
bS'HARD1'
p4618
tp4619
Rp4620
ag2
(g3
(S'S5'
p4621
I0
I1
tp4622
Rp4623
(I3
S'|'
p4624
NNNI5
I1
I0
tp4625
bS'HARD1'
p4626
tp4627
Rp4628
ag2
(g3
(S'S5'
p4629
I0
I1
tp4630
Rp4631
(I3
S'|'
p4632
NNNI5
I1
I0
tp4633
bS'HARD1'
p4634
tp4635
Rp4636
ag2
(g3
(S'S5'
p4637
I0
I1
tp4638
Rp4639
(I3
S'|'
p4640
NNNI5
I1
I0
tp4641
bS'HARD1'
p4642
tp4643
Rp4644
ag2
(g3
(S'S5'
p4645
I0
I1
tp4646
Rp4647
(I3
S'|'
p4648
NNNI5
I1
I0
tp4649
bS'HARD1'
p4650
tp4651
Rp4652
ag2
(g3
(S'S5'
p4653
I0
I1
tp4654
Rp4655
(I3
S'|'
p4656
NNNI5
I1
I0
tp4657
bS'HARD1'
p4658
tp4659
Rp4660
ag2
(g3
(S'S5'
p4661
I0
I1
tp4662
Rp4663
(I3
S'|'
p4664
NNNI5
I1
I0
tp4665
bS'HARD1'
p4666
tp4667
Rp4668
ag2
(g3
(S'S5'
p4669
I0
I1
tp4670
Rp4671
(I3
S'|'
p4672
NNNI5
I1
I0
tp4673
bS'HARD1'
p4674
tp4675
Rp4676
ag2
(g3
(S'S5'
p4677
I0
I1
tp4678
Rp4679
(I3
S'|'
p4680
NNNI5
I1
I0
tp4681
bS'HARD1'
p4682
tp4683
Rp4684
ag2
(g3
(S'S5'
p4685
I0
I1
tp4686
Rp4687
(I3
S'|'
p4688
NNNI5
I1
I0
tp4689
bS'HARD1'
p4690
tp4691
Rp4692
ag2
(g3
(S'S5'
p4693
I0
I1
tp4694
Rp4695
(I3
S'|'
p4696
NNNI5
I1
I0
tp4697
bS'HARD1'
p4698
tp4699
Rp4700
ag2
(g3
(S'S5'
p4701
I0
I1
tp4702
Rp4703
(I3
S'|'
p4704
NNNI5
I1
I0
tp4705
bS'HARD1'
p4706
tp4707
Rp4708
ag2
(g3
(S'S5'
p4709
I0
I1
tp4710
Rp4711
(I3
S'|'
p4712
NNNI5
I1
I0
tp4713
bS'HARD1'
p4714
tp4715
Rp4716
ag2
(g3
(S'S5'
p4717
I0
I1
tp4718
Rp4719
(I3
S'|'
p4720
NNNI5
I1
I0
tp4721
bS'HARD1'
p4722
tp4723
Rp4724
ag2
(g3
(S'S5'
p4725
I0
I1
tp4726
Rp4727
(I3
S'|'
p4728
NNNI5
I1
I0
tp4729
bS'HARD1'
p4730
tp4731
Rp4732
ag2
(g3
(S'S5'
p4733
I0
I1
tp4734
Rp4735
(I3
S'|'
p4736
NNNI5
I1
I0
tp4737
bS'HARD1'
p4738
tp4739
Rp4740
ag2
(g3
(S'S5'
p4741
I0
I1
tp4742
Rp4743
(I3
S'|'
p4744
NNNI5
I1
I0
tp4745
bS'HARD1'
p4746
tp4747
Rp4748
ag2
(g3
(S'S5'
p4749
I0
I1
tp4750
Rp4751
(I3
S'|'
p4752
NNNI5
I1
I0
tp4753
bS'HARD1'
p4754
tp4755
Rp4756
ag2
(g3
(S'S5'
p4757
I0
I1
tp4758
Rp4759
(I3
S'|'
p4760
NNNI5
I1
I0
tp4761
bS'HARD1'
p4762
tp4763
Rp4764
ag2
(g3
(S'S5'
p4765
I0
I1
tp4766
Rp4767
(I3
S'|'
p4768
NNNI5
I1
I0
tp4769
bS'HARD1'
p4770
tp4771
Rp4772
ag2
(g3
(S'S5'
p4773
I0
I1
tp4774
Rp4775
(I3
S'|'
p4776
NNNI5
I1
I0
tp4777
bS'HARD1'
p4778
tp4779
Rp4780
ag2
(g3
(S'S5'
p4781
I0
I1
tp4782
Rp4783
(I3
S'|'
p4784
NNNI5
I1
I0
tp4785
bS'HARD1'
p4786
tp4787
Rp4788
ag2
(g3
(S'S5'
p4789
I0
I1
tp4790
Rp4791
(I3
S'|'
p4792
NNNI5
I1
I0
tp4793
bS'HARD1'
p4794
tp4795
Rp4796
ag2
(g3
(S'S5'
p4797
I0
I1
tp4798
Rp4799
(I3
S'|'
p4800
NNNI5
I1
I0
tp4801
bS'HARD1'
p4802
tp4803
Rp4804
ag2
(g3
(S'S5'
p4805
I0
I1
tp4806
Rp4807
(I3
S'|'
p4808
NNNI5
I1
I0
tp4809
bS'HARD1'
p4810
tp4811
Rp4812
ag2
(g3
(S'S5'
p4813
I0
I1
tp4814
Rp4815
(I3
S'|'
p4816
NNNI5
I1
I0
tp4817
bS'HARD1'
p4818
tp4819
Rp4820
ag2
(g3
(S'S5'
p4821
I0
I1
tp4822
Rp4823
(I3
S'|'
p4824
NNNI5
I1
I0
tp4825
bS'HARD1'
p4826
tp4827
Rp4828
ag2
(g3
(S'S5'
p4829
I0
I1
tp4830
Rp4831
(I3
S'|'
p4832
NNNI5
I1
I0
tp4833
bS'HARD1'
p4834
tp4835
Rp4836
ag2
(g3
(S'S5'
p4837
I0
I1
tp4838
Rp4839
(I3
S'|'
p4840
NNNI5
I1
I0
tp4841
bS'HARD1'
p4842
tp4843
Rp4844
ag2
(g3
(S'S5'
p4845
I0
I1
tp4846
Rp4847
(I3
S'|'
p4848
NNNI5
I1
I0
tp4849
bS'HARD1'
p4850
tp4851
Rp4852
ag2
(g3
(S'S5'
p4853
I0
I1
tp4854
Rp4855
(I3
S'|'
p4856
NNNI5
I1
I0
tp4857
bS'HARD1'
p4858
tp4859
Rp4860
ag2
(g3
(S'S5'
p4861
I0
I1
tp4862
Rp4863
(I3
S'|'
p4864
NNNI5
I1
I0
tp4865
bS'HARD1'
p4866
tp4867
Rp4868
ag2
(g3
(S'S5'
p4869
I0
I1
tp4870
Rp4871
(I3
S'|'
p4872
NNNI5
I1
I0
tp4873
bS'HARD1'
p4874
tp4875
Rp4876
ag2
(g3
(S'S5'
p4877
I0
I1
tp4878
Rp4879
(I3
S'|'
p4880
NNNI5
I1
I0
tp4881
bS'HARD1'
p4882
tp4883
Rp4884
ag2
(g3
(S'S5'
p4885
I0
I1
tp4886
Rp4887
(I3
S'|'
p4888
NNNI5
I1
I0
tp4889
bS'HARD1'
p4890
tp4891
Rp4892
ag2
(g3
(S'S5'
p4893
I0
I1
tp4894
Rp4895
(I3
S'|'
p4896
NNNI5
I1
I0
tp4897
bS'HARD1'
p4898
tp4899
Rp4900
ag2
(g3
(S'S5'
p4901
I0
I1
tp4902
Rp4903
(I3
S'|'
p4904
NNNI5
I1
I0
tp4905
bS'HARD1'
p4906
tp4907
Rp4908
ag2
(g3
(S'S5'
p4909
I0
I1
tp4910
Rp4911
(I3
S'|'
p4912
NNNI5
I1
I0
tp4913
bS'HARD1'
p4914
tp4915
Rp4916
ag2
(g3
(S'S5'
p4917
I0
I1
tp4918
Rp4919
(I3
S'|'
p4920
NNNI5
I1
I0
tp4921
bS'HARD3'
p4922
tp4923
Rp4924
ag2
(g3
(S'S5'
p4925
I0
I1
tp4926
Rp4927
(I3
S'|'
p4928
NNNI5
I1
I0
tp4929
bS'HARD3'
p4930
tp4931
Rp4932
ag2
(g3
(S'S5'
p4933
I0
I1
tp4934
Rp4935
(I3
S'|'
p4936
NNNI5
I1
I0
tp4937
bS'HARD1'
p4938
tp4939
Rp4940
ag2
(g3
(S'S5'
p4941
I0
I1
tp4942
Rp4943
(I3
S'|'
p4944
NNNI5
I1
I0
tp4945
bS'HARD1'
p4946
tp4947
Rp4948
ag2
(g3
(S'S5'
p4949
I0
I1
tp4950
Rp4951
(I3
S'|'
p4952
NNNI5
I1
I0
tp4953
bS'HARD1'
p4954
tp4955
Rp4956
ag2
(g3
(S'S5'
p4957
I0
I1
tp4958
Rp4959
(I3
S'|'
p4960
NNNI5
I1
I0
tp4961
bS'HARD1'
p4962
tp4963
Rp4964
ag2
(g3
(S'S5'
p4965
I0
I1
tp4966
Rp4967
(I3
S'|'
p4968
NNNI5
I1
I0
tp4969
bS'HARD1'
p4970
tp4971
Rp4972
ag2
(g3
(S'S5'
p4973
I0
I1
tp4974
Rp4975
(I3
S'|'
p4976
NNNI5
I1
I0
tp4977
bS'HARD1'
p4978
tp4979
Rp4980
ag2
(g3
(S'S5'
p4981
I0
I1
tp4982
Rp4983
(I3
S'|'
p4984
NNNI5
I1
I0
tp4985
bS'HARD3'
p4986
tp4987
Rp4988
ag2
(g3
(S'S5'
p4989
I0
I1
tp4990
Rp4991
(I3
S'|'
p4992
NNNI5
I1
I0
tp4993
bS'HARD1'
p4994
tp4995
Rp4996
ag2
(g3
(S'S5'
p4997
I0
I1
tp4998
Rp4999
(I3
S'|'
p5000
NNNI5
I1
I0
tp5001
bS'HARD1'
p5002
tp5003
Rp5004
ag2
(g3
(S'S5'
p5005
I0
I1
tp5006
Rp5007
(I3
S'|'
p5008
NNNI5
I1
I0
tp5009
bS'HARD1'
p5010
tp5011
Rp5012
ag2
(g3
(S'S5'
p5013
I0
I1
tp5014
Rp5015
(I3
S'|'
p5016
NNNI5
I1
I0
tp5017
bS'HARD1'
p5018
tp5019
Rp5020
ag2
(g3
(S'S5'
p5021
I0
I1
tp5022
Rp5023
(I3
S'|'
p5024
NNNI5
I1
I0
tp5025
bS'HARD1'
p5026
tp5027
Rp5028
ag2
(g3
(S'S5'
p5029
I0
I1
tp5030
Rp5031
(I3
S'|'
p5032
NNNI5
I1
I0
tp5033
bS'HARD1'
p5034
tp5035
Rp5036
ag2
(g3
(S'S5'
p5037
I0
I1
tp5038
Rp5039
(I3
S'|'
p5040
NNNI5
I1
I0
tp5041
bS'HARD1'
p5042
tp5043
Rp5044
ag2
(g3
(S'S5'
p5045
I0
I1
tp5046
Rp5047
(I3
S'|'
p5048
NNNI5
I1
I0
tp5049
bS'HARD1'
p5050
tp5051
Rp5052
ag2
(g3
(S'S5'
p5053
I0
I1
tp5054
Rp5055
(I3
S'|'
p5056
NNNI5
I1
I0
tp5057
bS'HARD1'
p5058
tp5059
Rp5060
ag2
(g3
(S'S5'
p5061
I0
I1
tp5062
Rp5063
(I3
S'|'
p5064
NNNI5
I1
I0
tp5065
bS'HARD1'
p5066
tp5067
Rp5068
ag2
(g3
(S'S5'
p5069
I0
I1
tp5070
Rp5071
(I3
S'|'
p5072
NNNI5
I1
I0
tp5073
bS'HARD1'
p5074
tp5075
Rp5076
ag2
(g3
(S'S5'
p5077
I0
I1
tp5078
Rp5079
(I3
S'|'
p5080
NNNI5
I1
I0
tp5081
bS'HARD1'
p5082
tp5083
Rp5084
ag2
(g3
(S'S5'
p5085
I0
I1
tp5086
Rp5087
(I3
S'|'
p5088
NNNI5
I1
I0
tp5089
bS'HARD1'
p5090
tp5091
Rp5092
ag2
(g3
(S'S5'
p5093
I0
I1
tp5094
Rp5095
(I3
S'|'
p5096
NNNI5
I1
I0
tp5097
bS'HARD1'
p5098
tp5099
Rp5100
ag2
(g3
(S'S5'
p5101
I0
I1
tp5102
Rp5103
(I3
S'|'
p5104
NNNI5
I1
I0
tp5105
bS'HARD1'
p5106
tp5107
Rp5108
ag2
(g3
(S'S5'
p5109
I0
I1
tp5110
Rp5111
(I3
S'|'
p5112
NNNI5
I1
I0
tp5113
bS'HARD1'
p5114
tp5115
Rp5116
ag2
(g3
(S'S5'
p5117
I0
I1
tp5118
Rp5119
(I3
S'|'
p5120
NNNI5
I1
I0
tp5121
bS'HARD1'
p5122
tp5123
Rp5124
ag2
(g3
(S'S5'
p5125
I0
I1
tp5126
Rp5127
(I3
S'|'
p5128
NNNI5
I1
I0
tp5129
bS'HARD1'
p5130
tp5131
Rp5132
ag2
(g3
(S'S5'
p5133
I0
I1
tp5134
Rp5135
(I3
S'|'
p5136
NNNI5
I1
I0
tp5137
bS'HARD1'
p5138
tp5139
Rp5140
ag2
(g3
(S'S5'
p5141
I0
I1
tp5142
Rp5143
(I3
S'|'
p5144
NNNI5
I1
I0
tp5145
bS'HARD1'
p5146
tp5147
Rp5148
ag2
(g3
(S'S5'
p5149
I0
I1
tp5150
Rp5151
(I3
S'|'
p5152
NNNI5
I1
I0
tp5153
bS'HARD1'
p5154
tp5155
Rp5156
ag2
(g3
(S'S5'
p5157
I0
I1
tp5158
Rp5159
(I3
S'|'
p5160
NNNI5
I1
I0
tp5161
bS'HARD1'
p5162
tp5163
Rp5164
ag2
(g3
(S'S5'
p5165
I0
I1
tp5166
Rp5167
(I3
S'|'
p5168
NNNI5
I1
I0
tp5169
bS'HARD1'
p5170
tp5171
Rp5172
ag2
(g3
(S'S5'
p5173
I0
I1
tp5174
Rp5175
(I3
S'|'
p5176
NNNI5
I1
I0
tp5177
bS'HARD1'
p5178
tp5179
Rp5180
ag2
(g3
(S'S5'
p5181
I0
I1
tp5182
Rp5183
(I3
S'|'
p5184
NNNI5
I1
I0
tp5185
bS'HARD1'
p5186
tp5187
Rp5188
ag2
(g3
(S'S5'
p5189
I0
I1
tp5190
Rp5191
(I3
S'|'
p5192
NNNI5
I1
I0
tp5193
bS'HARD1'
p5194
tp5195
Rp5196
ag2
(g3
(S'S5'
p5197
I0
I1
tp5198
Rp5199
(I3
S'|'
p5200
NNNI5
I1
I0
tp5201
bS'HARD1'
p5202
tp5203
Rp5204
ag2
(g3
(S'S5'
p5205
I0
I1
tp5206
Rp5207
(I3
S'|'
p5208
NNNI5
I1
I0
tp5209
bS'HARD1'
p5210
tp5211
Rp5212
ag2
(g3
(S'S5'
p5213
I0
I1
tp5214
Rp5215
(I3
S'|'
p5216
NNNI5
I1
I0
tp5217
bS'HARD1'
p5218
tp5219
Rp5220
ag2
(g3
(S'S5'
p5221
I0
I1
tp5222
Rp5223
(I3
S'|'
p5224
NNNI5
I1
I0
tp5225
bS'HARD1'
p5226
tp5227
Rp5228
ag2
(g3
(S'S5'
p5229
I0
I1
tp5230
Rp5231
(I3
S'|'
p5232
NNNI5
I1
I0
tp5233
bS'HARD1'
p5234
tp5235
Rp5236
ag2
(g3
(S'S5'
p5237
I0
I1
tp5238
Rp5239
(I3
S'|'
p5240
NNNI5
I1
I0
tp5241
bS'HARD1'
p5242
tp5243
Rp5244
ag2
(g3
(S'S5'
p5245
I0
I1
tp5246
Rp5247
(I3
S'|'
p5248
NNNI5
I1
I0
tp5249
bS'HARD1'
p5250
tp5251
Rp5252
ag2
(g3
(S'S5'
p5253
I0
I1
tp5254
Rp5255
(I3
S'|'
p5256
NNNI5
I1
I0
tp5257
bS'HARD1'
p5258
tp5259
Rp5260
ag2
(g3
(S'S5'
p5261
I0
I1
tp5262
Rp5263
(I3
S'|'
p5264
NNNI5
I1
I0
tp5265
bS'HARD1'
p5266
tp5267
Rp5268
ag2
(g3
(S'S5'
p5269
I0
I1
tp5270
Rp5271
(I3
S'|'
p5272
NNNI5
I1
I0
tp5273
bS'HARD3'
p5274
tp5275
Rp5276
ag2
(g3
(S'S5'
p5277
I0
I1
tp5278
Rp5279
(I3
S'|'
p5280
NNNI5
I1
I0
tp5281
bS'HARD1'
p5282
tp5283
Rp5284
ag2
(g3
(S'S5'
p5285
I0
I1
tp5286
Rp5287
(I3
S'|'
p5288
NNNI5
I1
I0
tp5289
bS'HARD1'
p5290
tp5291
Rp5292
ag2
(g3
(S'S5'
p5293
I0
I1
tp5294
Rp5295
(I3
S'|'
p5296
NNNI5
I1
I0
tp5297
bS'HARD1'
p5298
tp5299
Rp5300
ag2
(g3
(S'S5'
p5301
I0
I1
tp5302
Rp5303
(I3
S'|'
p5304
NNNI5
I1
I0
tp5305
bS'HARD1'
p5306
tp5307
Rp5308
ag2
(g3
(S'S5'
p5309
I0
I1
tp5310
Rp5311
(I3
S'|'
p5312
NNNI5
I1
I0
tp5313
bS'HARD1'
p5314
tp5315
Rp5316
ag2
(g3
(S'S5'
p5317
I0
I1
tp5318
Rp5319
(I3
S'|'
p5320
NNNI5
I1
I0
tp5321
bS'HARD1'
p5322
tp5323
Rp5324
ag2
(g3
(S'S5'
p5325
I0
I1
tp5326
Rp5327
(I3
S'|'
p5328
NNNI5
I1
I0
tp5329
bS'HARD1'
p5330
tp5331
Rp5332
ag2
(g3
(S'S5'
p5333
I0
I1
tp5334
Rp5335
(I3
S'|'
p5336
NNNI5
I1
I0
tp5337
bS'HARD1'
p5338
tp5339
Rp5340
ag2
(g3
(S'S5'
p5341
I0
I1
tp5342
Rp5343
(I3
S'|'
p5344
NNNI5
I1
I0
tp5345
bS'HARD1'
p5346
tp5347
Rp5348
ag2
(g3
(S'S5'
p5349
I0
I1
tp5350
Rp5351
(I3
S'|'
p5352
NNNI5
I1
I0
tp5353
bS'HARD1'
p5354
tp5355
Rp5356
ag2
(g3
(S'S5'
p5357
I0
I1
tp5358
Rp5359
(I3
S'|'
p5360
NNNI5
I1
I0
tp5361
bS'HARD3'
p5362
tp5363
Rp5364
ag2
(g3
(S'S5'
p5365
I0
I1
tp5366
Rp5367
(I3
S'|'
p5368
NNNI5
I1
I0
tp5369
bS'HARD1'
p5370
tp5371
Rp5372
ag2
(g3
(S'S5'
p5373
I0
I1
tp5374
Rp5375
(I3
S'|'
p5376
NNNI5
I1
I0
tp5377
bS'HARD1'
p5378
tp5379
Rp5380
ag2
(g3
(S'S5'
p5381
I0
I1
tp5382
Rp5383
(I3
S'|'
p5384
NNNI5
I1
I0
tp5385
bS'HARD1'
p5386
tp5387
Rp5388
ag2
(g3
(S'S5'
p5389
I0
I1
tp5390
Rp5391
(I3
S'|'
p5392
NNNI5
I1
I0
tp5393
bS'HARD1'
p5394
tp5395
Rp5396
ag2
(g3
(S'S5'
p5397
I0
I1
tp5398
Rp5399
(I3
S'|'
p5400
NNNI5
I1
I0
tp5401
bS'HARD1'
p5402
tp5403
Rp5404
ag2
(g3
(S'S5'
p5405
I0
I1
tp5406
Rp5407
(I3
S'|'
p5408
NNNI5
I1
I0
tp5409
bS'HARD1'
p5410
tp5411
Rp5412
ag2
(g3
(S'S5'
p5413
I0
I1
tp5414
Rp5415
(I3
S'|'
p5416
NNNI5
I1
I0
tp5417
bS'HARD1'
p5418
tp5419
Rp5420
ag2
(g3
(S'S5'
p5421
I0
I1
tp5422
Rp5423
(I3
S'|'
p5424
NNNI5
I1
I0
tp5425
bS'HARD1'
p5426
tp5427
Rp5428
ag2
(g3
(S'S5'
p5429
I0
I1
tp5430
Rp5431
(I3
S'|'
p5432
NNNI5
I1
I0
tp5433
bS'HARD1'
p5434
tp5435
Rp5436
ag2
(g3
(S'S5'
p5437
I0
I1
tp5438
Rp5439
(I3
S'|'
p5440
NNNI5
I1
I0
tp5441
bS'HARD1'
p5442
tp5443
Rp5444
ag2
(g3
(S'S5'
p5445
I0
I1
tp5446
Rp5447
(I3
S'|'
p5448
NNNI5
I1
I0
tp5449
bS'HARD1'
p5450
tp5451
Rp5452
ag2
(g3
(S'S5'
p5453
I0
I1
tp5454
Rp5455
(I3
S'|'
p5456
NNNI5
I1
I0
tp5457
bS'HARD1'
p5458
tp5459
Rp5460
ag2
(g3
(S'S5'
p5461
I0
I1
tp5462
Rp5463
(I3
S'|'
p5464
NNNI5
I1
I0
tp5465
bS'HARD1'
p5466
tp5467
Rp5468
ag2
(g3
(S'S5'
p5469
I0
I1
tp5470
Rp5471
(I3
S'|'
p5472
NNNI5
I1
I0
tp5473
bS'HARD1'
p5474
tp5475
Rp5476
ag2
(g3
(S'S5'
p5477
I0
I1
tp5478
Rp5479
(I3
S'|'
p5480
NNNI5
I1
I0
tp5481
bS'HARD1'
p5482
tp5483
Rp5484
ag2
(g3
(S'S5'
p5485
I0
I1
tp5486
Rp5487
(I3
S'|'
p5488
NNNI5
I1
I0
tp5489
bS'HARD1'
p5490
tp5491
Rp5492
ag2
(g3
(S'S5'
p5493
I0
I1
tp5494
Rp5495
(I3
S'|'
p5496
NNNI5
I1
I0
tp5497
bS'HARD1'
p5498
tp5499
Rp5500
ag2
(g3
(S'S5'
p5501
I0
I1
tp5502
Rp5503
(I3
S'|'
p5504
NNNI5
I1
I0
tp5505
bS'HARD1'
p5506
tp5507
Rp5508
ag2
(g3
(S'S5'
p5509
I0
I1
tp5510
Rp5511
(I3
S'|'
p5512
NNNI5
I1
I0
tp5513
bS'HARD2'
p5514
tp5515
Rp5516
ag2
(g3
(S'S5'
p5517
I0
I1
tp5518
Rp5519
(I3
S'|'
p5520
NNNI5
I1
I0
tp5521
bS'HARD1'
p5522
tp5523
Rp5524
ag2
(g3
(S'S5'
p5525
I0
I1
tp5526
Rp5527
(I3
S'|'
p5528
NNNI5
I1
I0
tp5529
bS'HARD1'
p5530
tp5531
Rp5532
ag2
(g3
(S'S5'
p5533
I0
I1
tp5534
Rp5535
(I3
S'|'
p5536
NNNI5
I1
I0
tp5537
bS'HARD1'
p5538
tp5539
Rp5540
ag2
(g3
(S'S5'
p5541
I0
I1
tp5542
Rp5543
(I3
S'|'
p5544
NNNI5
I1
I0
tp5545
bS'HARD1'
p5546
tp5547
Rp5548
ag2
(g3
(S'S5'
p5549
I0
I1
tp5550
Rp5551
(I3
S'|'
p5552
NNNI5
I1
I0
tp5553
bS'HARD1'
p5554
tp5555
Rp5556
ag2
(g3
(S'S5'
p5557
I0
I1
tp5558
Rp5559
(I3
S'|'
p5560
NNNI5
I1
I0
tp5561
bS'HARD1'
p5562
tp5563
Rp5564
ag2
(g3
(S'S5'
p5565
I0
I1
tp5566
Rp5567
(I3
S'|'
p5568
NNNI5
I1
I0
tp5569
bS'HARD1'
p5570
tp5571
Rp5572
ag2
(g3
(S'S5'
p5573
I0
I1
tp5574
Rp5575
(I3
S'|'
p5576
NNNI5
I1
I0
tp5577
bS'HARD1'
p5578
tp5579
Rp5580
ag2
(g3
(S'S5'
p5581
I0
I1
tp5582
Rp5583
(I3
S'|'
p5584
NNNI5
I1
I0
tp5585
bS'HARD1'
p5586
tp5587
Rp5588
ag2
(g3
(S'S5'
p5589
I0
I1
tp5590
Rp5591
(I3
S'|'
p5592
NNNI5
I1
I0
tp5593
bS'HARD1'
p5594
tp5595
Rp5596
ag2
(g3
(S'S5'
p5597
I0
I1
tp5598
Rp5599
(I3
S'|'
p5600
NNNI5
I1
I0
tp5601
bS'HARD1'
p5602
tp5603
Rp5604
ag2
(g3
(S'S5'
p5605
I0
I1
tp5606
Rp5607
(I3
S'|'
p5608
NNNI5
I1
I0
tp5609
bS'HARD1'
p5610
tp5611
Rp5612
ag2
(g3
(S'S5'
p5613
I0
I1
tp5614
Rp5615
(I3
S'|'
p5616
NNNI5
I1
I0
tp5617
bS'HARD1'
p5618
tp5619
Rp5620
ag2
(g3
(S'S5'
p5621
I0
I1
tp5622
Rp5623
(I3
S'|'
p5624
NNNI5
I1
I0
tp5625
bS'HARD1'
p5626
tp5627
Rp5628
ag2
(g3
(S'S5'
p5629
I0
I1
tp5630
Rp5631
(I3
S'|'
p5632
NNNI5
I1
I0
tp5633
bS'HARD1'
p5634
tp5635
Rp5636
ag2
(g3
(S'S5'
p5637
I0
I1
tp5638
Rp5639
(I3
S'|'
p5640
NNNI5
I1
I0
tp5641
bS'HARD1'
p5642
tp5643
Rp5644
ag2
(g3
(S'S5'
p5645
I0
I1
tp5646
Rp5647
(I3
S'|'
p5648
NNNI5
I1
I0
tp5649
bS'HARD1'
p5650
tp5651
Rp5652
ag2
(g3
(S'S5'
p5653
I0
I1
tp5654
Rp5655
(I3
S'|'
p5656
NNNI5
I1
I0
tp5657
bS'HARD1'
p5658
tp5659
Rp5660
ag2
(g3
(S'S5'
p5661
I0
I1
tp5662
Rp5663
(I3
S'|'
p5664
NNNI5
I1
I0
tp5665
bS'HARD1'
p5666
tp5667
Rp5668
ag2
(g3
(S'S5'
p5669
I0
I1
tp5670
Rp5671
(I3
S'|'
p5672
NNNI5
I1
I0
tp5673
bS'HARD1'
p5674
tp5675
Rp5676
ag2
(g3
(S'S5'
p5677
I0
I1
tp5678
Rp5679
(I3
S'|'
p5680
NNNI5
I1
I0
tp5681
bS'HARD1'
p5682
tp5683
Rp5684
ag2
(g3
(S'S5'
p5685
I0
I1
tp5686
Rp5687
(I3
S'|'
p5688
NNNI5
I1
I0
tp5689
bS'HARD1'
p5690
tp5691
Rp5692
ag2
(g3
(S'S5'
p5693
I0
I1
tp5694
Rp5695
(I3
S'|'
p5696
NNNI5
I1
I0
tp5697
bS'HARD1'
p5698
tp5699
Rp5700
ag2
(g3
(S'S5'
p5701
I0
I1
tp5702
Rp5703
(I3
S'|'
p5704
NNNI5
I1
I0
tp5705
bS'HARD3'
p5706
tp5707
Rp5708
ag2
(g3
(S'S5'
p5709
I0
I1
tp5710
Rp5711
(I3
S'|'
p5712
NNNI5
I1
I0
tp5713
bS'HARD1'
p5714
tp5715
Rp5716
ag2
(g3
(S'S5'
p5717
I0
I1
tp5718
Rp5719
(I3
S'|'
p5720
NNNI5
I1
I0
tp5721
bS'HARD1'
p5722
tp5723
Rp5724
ag2
(g3
(S'S5'
p5725
I0
I1
tp5726
Rp5727
(I3
S'|'
p5728
NNNI5
I1
I0
tp5729
bS'HARD1'
p5730
tp5731
Rp5732
ag2
(g3
(S'S5'
p5733
I0
I1
tp5734
Rp5735
(I3
S'|'
p5736
NNNI5
I1
I0
tp5737
bS'HARD1'
p5738
tp5739
Rp5740
ag2
(g3
(S'S5'
p5741
I0
I1
tp5742
Rp5743
(I3
S'|'
p5744
NNNI5
I1
I0
tp5745
bS'HARD1'
p5746
tp5747
Rp5748
ag2
(g3
(S'S5'
p5749
I0
I1
tp5750
Rp5751
(I3
S'|'
p5752
NNNI5
I1
I0
tp5753
bS'HARD1'
p5754
tp5755
Rp5756
ag2
(g3
(S'S5'
p5757
I0
I1
tp5758
Rp5759
(I3
S'|'
p5760
NNNI5
I1
I0
tp5761
bS'HARD1'
p5762
tp5763
Rp5764
ag2
(g3
(S'S5'
p5765
I0
I1
tp5766
Rp5767
(I3
S'|'
p5768
NNNI5
I1
I0
tp5769
bS'HARD1'
p5770
tp5771
Rp5772
ag2
(g3
(S'S5'
p5773
I0
I1
tp5774
Rp5775
(I3
S'|'
p5776
NNNI5
I1
I0
tp5777
bS'HARD1'
p5778
tp5779
Rp5780
ag2
(g3
(S'S5'
p5781
I0
I1
tp5782
Rp5783
(I3
S'|'
p5784
NNNI5
I1
I0
tp5785
bS'HARD1'
p5786
tp5787
Rp5788
ag2
(g3
(S'S5'
p5789
I0
I1
tp5790
Rp5791
(I3
S'|'
p5792
NNNI5
I1
I0
tp5793
bS'HARD1'
p5794
tp5795
Rp5796
ag2
(g3
(S'S5'
p5797
I0
I1
tp5798
Rp5799
(I3
S'|'
p5800
NNNI5
I1
I0
tp5801
bS'HARD1'
p5802
tp5803
Rp5804
ag2
(g3
(S'S5'
p5805
I0
I1
tp5806
Rp5807
(I3
S'|'
p5808
NNNI5
I1
I0
tp5809
bS'HARD1'
p5810
tp5811
Rp5812
ag2
(g3
(S'S5'
p5813
I0
I1
tp5814
Rp5815
(I3
S'|'
p5816
NNNI5
I1
I0
tp5817
bS'HARD1'
p5818
tp5819
Rp5820
ag2
(g3
(S'S5'
p5821
I0
I1
tp5822
Rp5823
(I3
S'|'
p5824
NNNI5
I1
I0
tp5825
bS'HARD1'
p5826
tp5827
Rp5828
ag2
(g3
(S'S5'
p5829
I0
I1
tp5830
Rp5831
(I3
S'|'
p5832
NNNI5
I1
I0
tp5833
bS'HARD1'
p5834
tp5835
Rp5836
ag2
(g3
(S'S5'
p5837
I0
I1
tp5838
Rp5839
(I3
S'|'
p5840
NNNI5
I1
I0
tp5841
bS'HARD1'
p5842
tp5843
Rp5844
ag2
(g3
(S'S5'
p5845
I0
I1
tp5846
Rp5847
(I3
S'|'
p5848
NNNI5
I1
I0
tp5849
bS'HARD1'
p5850
tp5851
Rp5852
ag2
(g3
(S'S5'
p5853
I0
I1
tp5854
Rp5855
(I3
S'|'
p5856
NNNI5
I1
I0
tp5857
bS'HARD1'
p5858
tp5859
Rp5860
ag2
(g3
(S'S5'
p5861
I0
I1
tp5862
Rp5863
(I3
S'|'
p5864
NNNI5
I1
I0
tp5865
bS'HARD1'
p5866
tp5867
Rp5868
ag2
(g3
(S'S5'
p5869
I0
I1
tp5870
Rp5871
(I3
S'|'
p5872
NNNI5
I1
I0
tp5873
bS'HARD1'
p5874
tp5875
Rp5876
ag2
(g3
(S'S5'
p5877
I0
I1
tp5878
Rp5879
(I3
S'|'
p5880
NNNI5
I1
I0
tp5881
bS'HARD1'
p5882
tp5883
Rp5884
ag2
(g3
(S'S5'
p5885
I0
I1
tp5886
Rp5887
(I3
S'|'
p5888
NNNI5
I1
I0
tp5889
bS'HARD1'
p5890
tp5891
Rp5892
ag2
(g3
(S'S5'
p5893
I0
I1
tp5894
Rp5895
(I3
S'|'
p5896
NNNI5
I1
I0
tp5897
bS'HARD1'
p5898
tp5899
Rp5900
ag2
(g3
(S'S5'
p5901
I0
I1
tp5902
Rp5903
(I3
S'|'
p5904
NNNI5
I1
I0
tp5905
bS'HARD3'
p5906
tp5907
Rp5908
ag2
(g3
(S'S5'
p5909
I0
I1
tp5910
Rp5911
(I3
S'|'
p5912
NNNI5
I1
I0
tp5913
bS'HARD1'
p5914
tp5915
Rp5916
ag2
(g3
(S'S5'
p5917
I0
I1
tp5918
Rp5919
(I3
S'|'
p5920
NNNI5
I1
I0
tp5921
bS'HARD1'
p5922
tp5923
Rp5924
ag2
(g3
(S'S5'
p5925
I0
I1
tp5926
Rp5927
(I3
S'|'
p5928
NNNI5
I1
I0
tp5929
bS'HARD1'
p5930
tp5931
Rp5932
ag2
(g3
(S'S5'
p5933
I0
I1
tp5934
Rp5935
(I3
S'|'
p5936
NNNI5
I1
I0
tp5937
bS'HARD1'
p5938
tp5939
Rp5940
ag2
(g3
(S'S5'
p5941
I0
I1
tp5942
Rp5943
(I3
S'|'
p5944
NNNI5
I1
I0
tp5945
bS'HARD1'
p5946
tp5947
Rp5948
ag2
(g3
(S'S5'
p5949
I0
I1
tp5950
Rp5951
(I3
S'|'
p5952
NNNI5
I1
I0
tp5953
bS'HARD1'
p5954
tp5955
Rp5956
ag2
(g3
(S'S5'
p5957
I0
I1
tp5958
Rp5959
(I3
S'|'
p5960
NNNI5
I1
I0
tp5961
bS'HARD1'
p5962
tp5963
Rp5964
ag2
(g3
(S'S5'
p5965
I0
I1
tp5966
Rp5967
(I3
S'|'
p5968
NNNI5
I1
I0
tp5969
bS'HARD1'
p5970
tp5971
Rp5972
ag2
(g3
(S'S5'
p5973
I0
I1
tp5974
Rp5975
(I3
S'|'
p5976
NNNI5
I1
I0
tp5977
bS'HARD1'
p5978
tp5979
Rp5980
ag2
(g3
(S'S5'
p5981
I0
I1
tp5982
Rp5983
(I3
S'|'
p5984
NNNI5
I1
I0
tp5985
bS'HARD1'
p5986
tp5987
Rp5988
ag2
(g3
(S'S5'
p5989
I0
I1
tp5990
Rp5991
(I3
S'|'
p5992
NNNI5
I1
I0
tp5993
bS'HARD1'
p5994
tp5995
Rp5996
ag2
(g3
(S'S5'
p5997
I0
I1
tp5998
Rp5999
(I3
S'|'
p6000
NNNI5
I1
I0
tp6001
bS'HARD1'
p6002
tp6003
Rp6004
ag2
(g3
(S'S5'
p6005
I0
I1
tp6006
Rp6007
(I3
S'|'
p6008
NNNI5
I1
I0
tp6009
bS'HARD1'
p6010
tp6011
Rp6012
ag2
(g3
(S'S5'
p6013
I0
I1
tp6014
Rp6015
(I3
S'|'
p6016
NNNI5
I1
I0
tp6017
bS'HARD1'
p6018
tp6019
Rp6020
ag2
(g3
(S'S5'
p6021
I0
I1
tp6022
Rp6023
(I3
S'|'
p6024
NNNI5
I1
I0
tp6025
bS'HARD1'
p6026
tp6027
Rp6028
ag2
(g3
(S'S5'
p6029
I0
I1
tp6030
Rp6031
(I3
S'|'
p6032
NNNI5
I1
I0
tp6033
bS'HARD1'
p6034
tp6035
Rp6036
ag2
(g3
(S'S5'
p6037
I0
I1
tp6038
Rp6039
(I3
S'|'
p6040
NNNI5
I1
I0
tp6041
bS'HARD1'
p6042
tp6043
Rp6044
ag2
(g3
(S'S5'
p6045
I0
I1
tp6046
Rp6047
(I3
S'|'
p6048
NNNI5
I1
I0
tp6049
bS'HARD1'
p6050
tp6051
Rp6052
ag2
(g3
(S'S5'
p6053
I0
I1
tp6054
Rp6055
(I3
S'|'
p6056
NNNI5
I1
I0
tp6057
bS'HARD1'
p6058
tp6059
Rp6060
ag2
(g3
(S'S5'
p6061
I0
I1
tp6062
Rp6063
(I3
S'|'
p6064
NNNI5
I1
I0
tp6065
bS'HARD1'
p6066
tp6067
Rp6068
ag2
(g3
(S'S5'
p6069
I0
I1
tp6070
Rp6071
(I3
S'|'
p6072
NNNI5
I1
I0
tp6073
bS'HARD1'
p6074
tp6075
Rp6076
ag2
(g3
(S'S5'
p6077
I0
I1
tp6078
Rp6079
(I3
S'|'
p6080
NNNI5
I1
I0
tp6081
bS'HARD1'
p6082
tp6083
Rp6084
ag2
(g3
(S'S5'
p6085
I0
I1
tp6086
Rp6087
(I3
S'|'
p6088
NNNI5
I1
I0
tp6089
bS'HARD1'
p6090
tp6091
Rp6092
ag2
(g3
(S'S5'
p6093
I0
I1
tp6094
Rp6095
(I3
S'|'
p6096
NNNI5
I1
I0
tp6097
bS'HARD1'
p6098
tp6099
Rp6100
ag2
(g3
(S'S5'
p6101
I0
I1
tp6102
Rp6103
(I3
S'|'
p6104
NNNI5
I1
I0
tp6105
bS'HARD1'
p6106
tp6107
Rp6108
ag2
(g3
(S'S5'
p6109
I0
I1
tp6110
Rp6111
(I3
S'|'
p6112
NNNI5
I1
I0
tp6113
bS'HARD1'
p6114
tp6115
Rp6116
ag2
(g3
(S'S5'
p6117
I0
I1
tp6118
Rp6119
(I3
S'|'
p6120
NNNI5
I1
I0
tp6121
bS'HARD1'
p6122
tp6123
Rp6124
ag2
(g3
(S'S5'
p6125
I0
I1
tp6126
Rp6127
(I3
S'|'
p6128
NNNI5
I1
I0
tp6129
bS'HARD1'
p6130
tp6131
Rp6132
ag2
(g3
(S'S5'
p6133
I0
I1
tp6134
Rp6135
(I3
S'|'
p6136
NNNI5
I1
I0
tp6137
bS'HARD1'
p6138
tp6139
Rp6140
ag2
(g3
(S'S5'
p6141
I0
I1
tp6142
Rp6143
(I3
S'|'
p6144
NNNI5
I1
I0
tp6145
bS'HARD1'
p6146
tp6147
Rp6148
ag2
(g3
(S'S5'
p6149
I0
I1
tp6150
Rp6151
(I3
S'|'
p6152
NNNI5
I1
I0
tp6153
bS'HARD1'
p6154
tp6155
Rp6156
ag2
(g3
(S'S5'
p6157
I0
I1
tp6158
Rp6159
(I3
S'|'
p6160
NNNI5
I1
I0
tp6161
bS'HARD1'
p6162
tp6163
Rp6164
ag2
(g3
(S'S5'
p6165
I0
I1
tp6166
Rp6167
(I3
S'|'
p6168
NNNI5
I1
I0
tp6169
bS'HARD1'
p6170
tp6171
Rp6172
ag2
(g3
(S'S5'
p6173
I0
I1
tp6174
Rp6175
(I3
S'|'
p6176
NNNI5
I1
I0
tp6177
bS'HARD1'
p6178
tp6179
Rp6180
ag2
(g3
(S'S5'
p6181
I0
I1
tp6182
Rp6183
(I3
S'|'
p6184
NNNI5
I1
I0
tp6185
bS'HARD3'
p6186
tp6187
Rp6188
ag2
(g3
(S'S5'
p6189
I0
I1
tp6190
Rp6191
(I3
S'|'
p6192
NNNI5
I1
I0
tp6193
bS'HARD1'
p6194
tp6195
Rp6196
ag2
(g3
(S'S5'
p6197
I0
I1
tp6198
Rp6199
(I3
S'|'
p6200
NNNI5
I1
I0
tp6201
bS'HARD1'
p6202
tp6203
Rp6204
ag2
(g3
(S'S5'
p6205
I0
I1
tp6206
Rp6207
(I3
S'|'
p6208
NNNI5
I1
I0
tp6209
bS'HARD1'
p6210
tp6211
Rp6212
ag2
(g3
(S'S5'
p6213
I0
I1
tp6214
Rp6215
(I3
S'|'
p6216
NNNI5
I1
I0
tp6217
bS'HARD1'
p6218
tp6219
Rp6220
ag2
(g3
(S'S5'
p6221
I0
I1
tp6222
Rp6223
(I3
S'|'
p6224
NNNI5
I1
I0
tp6225
bS'HARD1'
p6226
tp6227
Rp6228
ag2
(g3
(S'S5'
p6229
I0
I1
tp6230
Rp6231
(I3
S'|'
p6232
NNNI5
I1
I0
tp6233
bS'HARD1'
p6234
tp6235
Rp6236
ag2
(g3
(S'S5'
p6237
I0
I1
tp6238
Rp6239
(I3
S'|'
p6240
NNNI5
I1
I0
tp6241
bS'HARD1'
p6242
tp6243
Rp6244
ag2
(g3
(S'S5'
p6245
I0
I1
tp6246
Rp6247
(I3
S'|'
p6248
NNNI5
I1
I0
tp6249
bS'HARD2'
p6250
tp6251
Rp6252
ag2
(g3
(S'S5'
p6253
I0
I1
tp6254
Rp6255
(I3
S'|'
p6256
NNNI5
I1
I0
tp6257
bS'HARD2'
p6258
tp6259
Rp6260
ag2
(g3
(S'S5'
p6261
I0
I1
tp6262
Rp6263
(I3
S'|'
p6264
NNNI5
I1
I0
tp6265
bS'HARD2'
p6266
tp6267
Rp6268
ag2
(g3
(S'S5'
p6269
I0
I1
tp6270
Rp6271
(I3
S'|'
p6272
NNNI5
I1
I0
tp6273
bS'HARD2'
p6274
tp6275
Rp6276
ag2
(g3
(S'S5'
p6277
I0
I1
tp6278
Rp6279
(I3
S'|'
p6280
NNNI5
I1
I0
tp6281
bS'HARD1'
p6282
tp6283
Rp6284
ag2
(g3
(S'S5'
p6285
I0
I1
tp6286
Rp6287
(I3
S'|'
p6288
NNNI5
I1
I0
tp6289
bS'HARD2'
p6290
tp6291
Rp6292
ag2
(g3
(S'S5'
p6293
I0
I1
tp6294
Rp6295
(I3
S'|'
p6296
NNNI5
I1
I0
tp6297
bS'HARD2'
p6298
tp6299
Rp6300
ag2
(g3
(S'S5'
p6301
I0
I1
tp6302
Rp6303
(I3
S'|'
p6304
NNNI5
I1
I0
tp6305
bS'HARD2'
p6306
tp6307
Rp6308
ag2
(g3
(S'S5'
p6309
I0
I1
tp6310
Rp6311
(I3
S'|'
p6312
NNNI5
I1
I0
tp6313
bS'HARD1'
p6314
tp6315
Rp6316
ag2
(g3
(S'S5'
p6317
I0
I1
tp6318
Rp6319
(I3
S'|'
p6320
NNNI5
I1
I0
tp6321
bS'HARD2'
p6322
tp6323
Rp6324
ag2
(g3
(S'S5'
p6325
I0
I1
tp6326
Rp6327
(I3
S'|'
p6328
NNNI5
I1
I0
tp6329
bS'HARD1'
p6330
tp6331
Rp6332
ag2
(g3
(S'S5'
p6333
I0
I1
tp6334
Rp6335
(I3
S'|'
p6336
NNNI5
I1
I0
tp6337
bS'HARD2'
p6338
tp6339
Rp6340
ag2
(g3
(S'S5'
p6341
I0
I1
tp6342
Rp6343
(I3
S'|'
p6344
NNNI5
I1
I0
tp6345
bS'HARD2'
p6346
tp6347
Rp6348
ag2
(g3
(S'S5'
p6349
I0
I1
tp6350
Rp6351
(I3
S'|'
p6352
NNNI5
I1
I0
tp6353
bS'HARD2'
p6354
tp6355
Rp6356
ag2
(g3
(S'S5'
p6357
I0
I1
tp6358
Rp6359
(I3
S'|'
p6360
NNNI5
I1
I0
tp6361
bS'HARD1'
p6362
tp6363
Rp6364
ag2
(g3
(S'S5'
p6365
I0
I1
tp6366
Rp6367
(I3
S'|'
p6368
NNNI5
I1
I0
tp6369
bS'HARD1'
p6370
tp6371
Rp6372
ag2
(g3
(S'S5'
p6373
I0
I1
tp6374
Rp6375
(I3
S'|'
p6376
NNNI5
I1
I0
tp6377
bS'HARD2'
p6378
tp6379
Rp6380
ag2
(g3
(S'S5'
p6381
I0
I1
tp6382
Rp6383
(I3
S'|'
p6384
NNNI5
I1
I0
tp6385
bS'HARD1'
p6386
tp6387
Rp6388
ag2
(g3
(S'S5'
p6389
I0
I1
tp6390
Rp6391
(I3
S'|'
p6392
NNNI5
I1
I0
tp6393
bS'HARD2'
p6394
tp6395
Rp6396
ag2
(g3
(S'S5'
p6397
I0
I1
tp6398
Rp6399
(I3
S'|'
p6400
NNNI5
I1
I0
tp6401
bS'HARD2'
p6402
tp6403
Rp6404
ag2
(g3
(S'S5'
p6405
I0
I1
tp6406
Rp6407
(I3
S'|'
p6408
NNNI5
I1
I0
tp6409
bS'HARD2'
p6410
tp6411
Rp6412
ag2
(g3
(S'S5'
p6413
I0
I1
tp6414
Rp6415
(I3
S'|'
p6416
NNNI5
I1
I0
tp6417
bS'HARD2'
p6418
tp6419
Rp6420
ag2
(g3
(S'S5'
p6421
I0
I1
tp6422
Rp6423
(I3
S'|'
p6424
NNNI5
I1
I0
tp6425
bS'HARD2'
p6426
tp6427
Rp6428
ag2
(g3
(S'S5'
p6429
I0
I1
tp6430
Rp6431
(I3
S'|'
p6432
NNNI5
I1
I0
tp6433
bS'HARD2'
p6434
tp6435
Rp6436
ag2
(g3
(S'S5'
p6437
I0
I1
tp6438
Rp6439
(I3
S'|'
p6440
NNNI5
I1
I0
tp6441
bS'HARD2'
p6442
tp6443
Rp6444
ag2
(g3
(S'S5'
p6445
I0
I1
tp6446
Rp6447
(I3
S'|'
p6448
NNNI5
I1
I0
tp6449
bS'HARD2'
p6450
tp6451
Rp6452
ag2
(g3
(S'S5'
p6453
I0
I1
tp6454
Rp6455
(I3
S'|'
p6456
NNNI5
I1
I0
tp6457
bS'HARD1'
p6458
tp6459
Rp6460
ag2
(g3
(S'S5'
p6461
I0
I1
tp6462
Rp6463
(I3
S'|'
p6464
NNNI5
I1
I0
tp6465
bS'HARD1'
p6466
tp6467
Rp6468
ag2
(g3
(S'S5'
p6469
I0
I1
tp6470
Rp6471
(I3
S'|'
p6472
NNNI5
I1
I0
tp6473
bS'HARD2'
p6474
tp6475
Rp6476
ag2
(g3
(S'S5'
p6477
I0
I1
tp6478
Rp6479
(I3
S'|'
p6480
NNNI5
I1
I0
tp6481
bS'HARD2'
p6482
tp6483
Rp6484
ag2
(g3
(S'S5'
p6485
I0
I1
tp6486
Rp6487
(I3
S'|'
p6488
NNNI5
I1
I0
tp6489
bS'HARD1'
p6490
tp6491
Rp6492
ag2
(g3
(S'S5'
p6493
I0
I1
tp6494
Rp6495
(I3
S'|'
p6496
NNNI5
I1
I0
tp6497
bS'HARD2'
p6498
tp6499
Rp6500
ag2
(g3
(S'S5'
p6501
I0
I1
tp6502
Rp6503
(I3
S'|'
p6504
NNNI5
I1
I0
tp6505
bS'HARD2'
p6506
tp6507
Rp6508
ag2
(g3
(S'S5'
p6509
I0
I1
tp6510
Rp6511
(I3
S'|'
p6512
NNNI5
I1
I0
tp6513
bS'HARD2'
p6514
tp6515
Rp6516
ag2
(g3
(S'S5'
p6517
I0
I1
tp6518
Rp6519
(I3
S'|'
p6520
NNNI5
I1
I0
tp6521
bS'HARD2'
p6522
tp6523
Rp6524
ag2
(g3
(S'S5'
p6525
I0
I1
tp6526
Rp6527
(I3
S'|'
p6528
NNNI5
I1
I0
tp6529
bS'HARD2'
p6530
tp6531
Rp6532
ag2
(g3
(S'S5'
p6533
I0
I1
tp6534
Rp6535
(I3
S'|'
p6536
NNNI5
I1
I0
tp6537
bS'HARD1'
p6538
tp6539
Rp6540
ag2
(g3
(S'S5'
p6541
I0
I1
tp6542
Rp6543
(I3
S'|'
p6544
NNNI5
I1
I0
tp6545
bS'HARD2'
p6546
tp6547
Rp6548
ag2
(g3
(S'S5'
p6549
I0
I1
tp6550
Rp6551
(I3
S'|'
p6552
NNNI5
I1
I0
tp6553
bS'HARD1'
p6554
tp6555
Rp6556
ag2
(g3
(S'S5'
p6557
I0
I1
tp6558
Rp6559
(I3
S'|'
p6560
NNNI5
I1
I0
tp6561
bS'HARD2'
p6562
tp6563
Rp6564
ag2
(g3
(S'S5'
p6565
I0
I1
tp6566
Rp6567
(I3
S'|'
p6568
NNNI5
I1
I0
tp6569
bS'HARD1'
p6570
tp6571
Rp6572
ag2
(g3
(S'S5'
p6573
I0
I1
tp6574
Rp6575
(I3
S'|'
p6576
NNNI5
I1
I0
tp6577
bS'HARD1'
p6578
tp6579
Rp6580
ag2
(g3
(S'S5'
p6581
I0
I1
tp6582
Rp6583
(I3
S'|'
p6584
NNNI5
I1
I0
tp6585
bS'HARD2'
p6586
tp6587
Rp6588
ag2
(g3
(S'S5'
p6589
I0
I1
tp6590
Rp6591
(I3
S'|'
p6592
NNNI5
I1
I0
tp6593
bS'HARD2'
p6594
tp6595
Rp6596
ag2
(g3
(S'S5'
p6597
I0
I1
tp6598
Rp6599
(I3
S'|'
p6600
NNNI5
I1
I0
tp6601
bS'HARD2'
p6602
tp6603
Rp6604
ag2
(g3
(S'S5'
p6605
I0
I1
tp6606
Rp6607
(I3
S'|'
p6608
NNNI5
I1
I0
tp6609
bS'HARD2'
p6610
tp6611
Rp6612
ag2
(g3
(S'S5'
p6613
I0
I1
tp6614
Rp6615
(I3
S'|'
p6616
NNNI5
I1
I0
tp6617
bS'HARD2'
p6618
tp6619
Rp6620
ag2
(g3
(S'S5'
p6621
I0
I1
tp6622
Rp6623
(I3
S'|'
p6624
NNNI5
I1
I0
tp6625
bS'HARD2'
p6626
tp6627
Rp6628
ag2
(g3
(S'S5'
p6629
I0
I1
tp6630
Rp6631
(I3
S'|'
p6632
NNNI5
I1
I0
tp6633
bS'HARD3'
p6634
tp6635
Rp6636
ag2
(g3
(S'S5'
p6637
I0
I1
tp6638
Rp6639
(I3
S'|'
p6640
NNNI5
I1
I0
tp6641
bS'HARD1'
p6642
tp6643
Rp6644
ag2
(g3
(S'S5'
p6645
I0
I1
tp6646
Rp6647
(I3
S'|'
p6648
NNNI5
I1
I0
tp6649
bS'HARD2'
p6650
tp6651
Rp6652
ag2
(g3
(S'S5'
p6653
I0
I1
tp6654
Rp6655
(I3
S'|'
p6656
NNNI5
I1
I0
tp6657
bS'HARD2'
p6658
tp6659
Rp6660
ag2
(g3
(S'S5'
p6661
I0
I1
tp6662
Rp6663
(I3
S'|'
p6664
NNNI5
I1
I0
tp6665
bS'HARD3'
p6666
tp6667
Rp6668
ag2
(g3
(S'S5'
p6669
I0
I1
tp6670
Rp6671
(I3
S'|'
p6672
NNNI5
I1
I0
tp6673
bS'HARD3'
p6674
tp6675
Rp6676
ag2
(g3
(S'S5'
p6677
I0
I1
tp6678
Rp6679
(I3
S'|'
p6680
NNNI5
I1
I0
tp6681
bS'HARD3'
p6682
tp6683
Rp6684
ag2
(g3
(S'S5'
p6685
I0
I1
tp6686
Rp6687
(I3
S'|'
p6688
NNNI5
I1
I0
tp6689
bS'HARD3'
p6690
tp6691
Rp6692
ag2
(g3
(S'S5'
p6693
I0
I1
tp6694
Rp6695
(I3
S'|'
p6696
NNNI5
I1
I0
tp6697
bS'HARD3'
p6698
tp6699
Rp6700
ag2
(g3
(S'S5'
p6701
I0
I1
tp6702
Rp6703
(I3
S'|'
p6704
NNNI5
I1
I0
tp6705
bS'HARD1'
p6706
tp6707
Rp6708
ag2
(g3
(S'S5'
p6709
I0
I1
tp6710
Rp6711
(I3
S'|'
p6712
NNNI5
I1
I0
tp6713
bS'HARD3'
p6714
tp6715
Rp6716
ag2
(g3
(S'S5'
p6717
I0
I1
tp6718
Rp6719
(I3
S'|'
p6720
NNNI5
I1
I0
tp6721
bS'HARD1'
p6722
tp6723
Rp6724
ag2
(g3
(S'S5'
p6725
I0
I1
tp6726
Rp6727
(I3
S'|'
p6728
NNNI5
I1
I0
tp6729
bS'HARD3'
p6730
tp6731
Rp6732
ag2
(g3
(S'S5'
p6733
I0
I1
tp6734
Rp6735
(I3
S'|'
p6736
NNNI5
I1
I0
tp6737
bS'HARD3'
p6738
tp6739
Rp6740
ag2
(g3
(S'S5'
p6741
I0
I1
tp6742
Rp6743
(I3
S'|'
p6744
NNNI5
I1
I0
tp6745
bS'HARD3'
p6746
tp6747
Rp6748
ag2
(g3
(S'S5'
p6749
I0
I1
tp6750
Rp6751
(I3
S'|'
p6752
NNNI5
I1
I0
tp6753
bS'HARD1'
p6754
tp6755
Rp6756
ag2
(g3
(S'S5'
p6757
I0
I1
tp6758
Rp6759
(I3
S'|'
p6760
NNNI5
I1
I0
tp6761
bS'HARD3'
p6762
tp6763
Rp6764
ag2
(g3
(S'S5'
p6765
I0
I1
tp6766
Rp6767
(I3
S'|'
p6768
NNNI5
I1
I0
tp6769
bS'HARD3'
p6770
tp6771
Rp6772
ag2
(g3
(S'S5'
p6773
I0
I1
tp6774
Rp6775
(I3
S'|'
p6776
NNNI5
I1
I0
tp6777
bS'HARD1'
p6778
tp6779
Rp6780
ag2
(g3
(S'S5'
p6781
I0
I1
tp6782
Rp6783
(I3
S'|'
p6784
NNNI5
I1
I0
tp6785
bS'HARD3'
p6786
tp6787
Rp6788
ag2
(g3
(S'S5'
p6789
I0
I1
tp6790
Rp6791
(I3
S'|'
p6792
NNNI5
I1
I0
tp6793
bS'HARD2'
p6794
tp6795
Rp6796
ag2
(g3
(S'S5'
p6797
I0
I1
tp6798
Rp6799
(I3
S'|'
p6800
NNNI5
I1
I0
tp6801
bS'HARD3'
p6802
tp6803
Rp6804
ag2
(g3
(S'S5'
p6805
I0
I1
tp6806
Rp6807
(I3
S'|'
p6808
NNNI5
I1
I0
tp6809
bS'HARD1'
p6810
tp6811
Rp6812
ag2
(g3
(S'S5'
p6813
I0
I1
tp6814
Rp6815
(I3
S'|'
p6816
NNNI5
I1
I0
tp6817
bS'HARD3'
p6818
tp6819
Rp6820
ag2
(g3
(S'S5'
p6821
I0
I1
tp6822
Rp6823
(I3
S'|'
p6824
NNNI5
I1
I0
tp6825
bS'HARD2'
p6826
tp6827
Rp6828
ag2
(g3
(S'S5'
p6829
I0
I1
tp6830
Rp6831
(I3
S'|'
p6832
NNNI5
I1
I0
tp6833
bS'HARD1'
p6834
tp6835
Rp6836
ag2
(g3
(S'S5'
p6837
I0
I1
tp6838
Rp6839
(I3
S'|'
p6840
NNNI5
I1
I0
tp6841
bS'HARD1'
p6842
tp6843
Rp6844
ag2
(g3
(S'S5'
p6845
I0
I1
tp6846
Rp6847
(I3
S'|'
p6848
NNNI5
I1
I0
tp6849
bS'HARD2'
p6850
tp6851
Rp6852
ag2
(g3
(S'S5'
p6853
I0
I1
tp6854
Rp6855
(I3
S'|'
p6856
NNNI5
I1
I0
tp6857
bS'HARD1'
p6858
tp6859
Rp6860
ag2
(g3
(S'S5'
p6861
I0
I1
tp6862
Rp6863
(I3
S'|'
p6864
NNNI5
I1
I0
tp6865
bS'HARD1'
p6866
tp6867
Rp6868
ag2
(g3
(S'S5'
p6869
I0
I1
tp6870
Rp6871
(I3
S'|'
p6872
NNNI5
I1
I0
tp6873
bS'HARD1'
p6874
tp6875
Rp6876
ag2
(g3
(S'S5'
p6877
I0
I1
tp6878
Rp6879
(I3
S'|'
p6880
NNNI5
I1
I0
tp6881
bS'HARD3'
p6882
tp6883
Rp6884
ag2
(g3
(S'S5'
p6885
I0
I1
tp6886
Rp6887
(I3
S'|'
p6888
NNNI5
I1
I0
tp6889
bS'HARD3'
p6890
tp6891
Rp6892
ag2
(g3
(S'S5'
p6893
I0
I1
tp6894
Rp6895
(I3
S'|'
p6896
NNNI5
I1
I0
tp6897
bS'HARD3'
p6898
tp6899
Rp6900
ag2
(g3
(S'S5'
p6901
I0
I1
tp6902
Rp6903
(I3
S'|'
p6904
NNNI5
I1
I0
tp6905
bS'HARD3'
p6906
tp6907
Rp6908
ag2
(g3
(S'S5'
p6909
I0
I1
tp6910
Rp6911
(I3
S'|'
p6912
NNNI5
I1
I0
tp6913
bS'HARD3'
p6914
tp6915
Rp6916
ag2
(g3
(S'S5'
p6917
I0
I1
tp6918
Rp6919
(I3
S'|'
p6920
NNNI5
I1
I0
tp6921
bS'HARD3'
p6922
tp6923
Rp6924
ag2
(g3
(S'S5'
p6925
I0
I1
tp6926
Rp6927
(I3
S'|'
p6928
NNNI5
I1
I0
tp6929
bS'HARD1'
p6930
tp6931
Rp6932
aa(lp6933
S'HARD1'
p6934
ag6934
ag6934
ag6934
aS'HARD2'
p6935
aS'HARD3'
p6936
ag6934
ag6934
ag6934
ag6934
ag6934
ag6934
ag6934
ag6934
ag6935
ag6934
ag6934
ag6936
ag6934
ag6934
ag6934
ag6934
ag6934
ag6936
ag6934
ag6934
ag6934
ag6934
ag6934
ag6935
ag6934
ag6934
ag6935
ag6934
ag6934
ag6934
ag6935
ag6936
ag6934
ag6934
ag6934
ag6934
ag6934
ag6934
ag6935
ag6934
ag6934
ag6934
ag6935
ag6934
ag6934
ag6934
ag6934
ag6934
ag6934
ag6934
ag6934
ag6934
ag6934
ag6934
ag6934
ag6934
ag6934
ag6934
ag6935
ag6934
ag6934
ag6934
ag6934
ag6934
ag6934
ag6934
ag6934
ag6934
ag6935
ag6934
ag6934
ag6934
ag6934
ag6934
ag6934
ag6934
ag6936
ag6934
ag6934
ag6934
ag6934
ag6935
ag6934
ag6934
ag6934
ag6934
ag6935
ag6934
ag6935
ag6934
ag6934
ag6934
ag6934
ag6936
ag6934
ag6934
ag6934
ag6934
ag6934
ag6934
ag6934
ag6934
ag6934
ag6934
ag6935
ag6934
ag6934
ag6934
ag6934
ag6934
ag6934
ag6934
ag6934
ag6934
ag6934
ag6934
ag6934
ag6934
ag6934
ag6934
ag6934
ag6934
ag6934
ag6934
ag6934
ag6934
ag6935
ag6934
ag6934
ag6936
ag6934
ag6934
ag6934
ag6934
ag6934
ag6934
ag6934
ag6934
ag6934
ag6934
ag6934
ag6934
ag6934
ag6935
ag6934
ag6934
ag6935
ag6934
ag6934
ag6934
ag6934
ag6934
ag6934
ag6934
ag6934
ag6934
ag6934
ag6934
ag6934
ag6934
ag6934
ag6934
ag6935
ag6934
ag6934
ag6934
ag6936
ag6934
ag6934
ag6934
ag6934
ag6934
ag6934
ag6934
ag6934
ag6936
ag6936
ag6934
ag6934
ag6934
ag6934
ag6935
ag6934
ag6936
ag6934
ag6934
ag6934
ag6934
ag6934
ag6934
ag6934
ag6934
ag6934
ag6934
ag6934
ag6934
ag6934
ag6934
ag6934
ag6934
ag6934
ag6934
ag6934
ag6934
ag6934
ag6934
ag6934
ag6934
ag6934
ag6936
ag6934
ag6934
ag6935
ag6934
ag6934
ag6934
ag6934
ag6935
ag6934
ag6935
ag6934
ag6934
ag6934
ag6934
ag6934
ag6934
ag6934
ag6934
ag6934
ag6934
ag6935
ag6934
ag6934
ag6934
ag6934
ag6934
ag6934
ag6934
ag6935
ag6934
ag6934
ag6934
ag6934
ag6934
ag6934
ag6934
ag6934
ag6934
ag6934
ag6935
ag6934
ag6934
ag6934
ag6934
ag6934
ag6934
ag6934
ag6934
ag6935
ag6934
ag6934
ag6934
ag6934
ag6934
ag6935
ag6934
ag6934
ag6934
ag6934
ag6934
ag6934
ag6934
ag6934
ag6935
ag6934
ag6934
ag6935
ag6934
ag6934
ag6934
ag6934
ag6934
ag6934
ag6934
ag6934
ag6934
ag6934
ag6934
ag6934
ag6934
ag6935
ag6934
ag6934
ag6934
ag6934
ag6934
ag6934
ag6934
ag6936
ag6934
ag6934
ag6934
ag6934
ag6935
ag6934
ag6934
ag6934
ag6934
ag6934
ag6934
ag6934
ag6934
ag6934
ag6934
ag6934
ag6935
ag6934
ag6934
ag6934
ag6934
ag6934
ag6934
ag6934
ag6934
ag6934
ag6934
ag6934
ag6935
ag6934
ag6934
ag6934
ag6935
ag6934
ag6936
ag6934
ag6934
ag6936
ag6934
ag6934
ag6935
ag6936
ag6935
ag6936
ag6935
ag6935
ag6935
ag6935
ag6935
ag6935
ag6935
ag6935
ag6935
ag6935
ag6935
ag6935
ag6936
ag6936
ag6935
ag6934
ag6934
ag6935
ag6935
ag6936
ag6935
ag6935
ag6935
ag6935
ag6935
ag6936
ag6935
ag6935
ag6934
ag6935
ag6935
ag6935
ag6935
ag6935
ag6935
ag6935
ag6935
ag6935
ag6935
ag6934
ag6935
ag6935
ag6935
ag6935
ag6935
ag6935
ag6936
ag6935
ag6936
ag6936
ag6936
ag6936
ag6936
ag6934
ag6936
ag6936
ag6936
ag6936
ag6936
ag6936
ag6936
ag6936
ag6936
ag6936
ag6936
ag6936
ag6936
ag6936
ag6936
ag6936
ag6936
ag6935
ag6936
ag6936
ag6936
ag6936
ag6935
ag6936
ag6936
ag6936
ag6936
ag6936
ag6935
ag6936
aa(lp6937
g6934
ag6934
ag6934
ag6934
ag6934
ag6934
ag6934
ag6934
ag6934
ag6934
ag6934
ag6934
ag6934
ag6934
ag6934
ag6934
ag6934
ag6934
ag6934
ag6934
ag6934
ag6934
ag6934
ag6934
ag6934
ag6934
ag6934
ag6934
ag6934
ag6934
ag6934
ag6934
ag6934
ag6934
ag6934
ag6934
ag6934
ag6934
ag6934
ag6934
ag6934
ag6934
ag6934
ag6934
ag6934
ag6934
ag6934
ag6934
ag6934
ag6934
ag6934
ag6934
ag6934
ag6934
ag6934
ag6934
ag6934
ag6934
ag6934
ag6934
ag6934
ag6934
ag6934
ag6934
ag6934
ag6934
ag6934
ag6934
ag6934
ag6934
ag6934
ag6934
ag6934
ag6934
ag6934
ag6934
ag6934
ag6934
ag6934
ag6934
ag6934
ag6934
ag6934
ag6934
ag6934
ag6934
ag6934
ag6934
ag6934
ag6934
ag6934
ag6934
ag6934
ag6934
ag6934
ag6934
ag6934
ag6934
ag6934
ag6934
ag6934
ag6934
ag6934
ag6934
ag6934
ag6934
ag6934
ag6934
ag6934
ag6934
ag6934
ag6934
ag6934
ag6934
ag6934
ag6934
ag6934
ag6934
ag6934
ag6934
ag6934
ag6934
ag6934
ag6934
ag6934
ag6934
ag6934
ag6934
ag6934
ag6934
ag6934
ag6934
ag6934
ag6934
ag6934
ag6934
ag6934
ag6934
ag6934
ag6934
ag6934
ag6934
ag6934
ag6934
ag6934
ag6934
ag6934
ag6934
ag6934
ag6934
ag6934
ag6934
ag6934
ag6934
ag6934
ag6934
ag6934
ag6934
ag6934
ag6934
ag6934
ag6934
ag6934
ag6934
ag6934
ag6934
ag6934
ag6934
ag6934
ag6934
ag6934
ag6934
ag6934
ag6934
ag6934
ag6934
ag6934
ag6934
ag6934
ag6934
ag6934
ag6934
ag6934
ag6934
ag6934
ag6934
ag6934
ag6934
ag6934
ag6934
ag6934
ag6934
ag6934
ag6934
ag6934
ag6934
ag6934
ag6934
ag6934
ag6934
ag6934
ag6934
ag6934
ag6934
ag6934
ag6934
ag6934
ag6934
ag6934
ag6934
ag6934
ag6934
ag6934
ag6934
ag6934
ag6934
ag6934
ag6934
ag6934
ag6934
ag6934
ag6934
ag6934
ag6934
ag6934
ag6934
ag6934
ag6934
ag6934
ag6934
ag6934
ag6934
ag6934
ag6934
ag6934
ag6934
ag6934
ag6934
ag6934
ag6934
ag6934
ag6934
ag6934
ag6934
ag6934
ag6934
ag6934
ag6934
ag6934
ag6934
ag6934
ag6934
ag6934
ag6934
ag6934
ag6934
ag6934
ag6934
ag6934
ag6934
ag6934
ag6934
ag6934
ag6934
ag6934
ag6934
ag6934
ag6934
ag6934
ag6934
ag6934
ag6934
ag6934
ag6934
ag6934
ag6934
ag6934
ag6934
ag6934
ag6934
ag6934
ag6934
ag6934
ag6934
ag6934
ag6934
ag6934
ag6934
ag6934
ag6934
ag6934
ag6934
ag6934
ag6934
ag6934
ag6934
ag6934
ag6934
ag6934
ag6934
ag6934
ag6934
ag6934
ag6934
ag6934
ag6934
ag6934
ag6934
ag6934
ag6934
ag6934
ag6934
ag6934
ag6934
ag6934
ag6934
ag6934
ag6934
ag6934
ag6934
ag6934
ag6934
ag6934
ag6934
ag6934
ag6934
ag6934
ag6934
ag6934
ag6934
ag6934
ag6934
ag6934
ag6934
ag6934
ag6934
ag6934
ag6934
ag6934
ag6934
ag6934
ag6934
ag6934
ag6934
ag6934
ag6934
ag6934
ag6934
ag6934
ag6934
ag6934
ag6934
ag6934
ag6935
ag6934
ag6934
ag6934
ag6934
ag6935
ag6934
ag6934
ag6934
ag6934
ag6934
ag6934
ag6934
ag6934
ag6934
ag6934
ag6934
ag6934
ag6935
ag6934
ag6934
ag6934
ag6934
ag6934
ag6934
ag6934
ag6934
ag6935
ag6934
ag6934
ag6934
ag6934
ag6934
ag6935
ag6934
ag6934
ag6935
ag6934
ag6935
ag6935
ag6934
ag6934
ag6934
ag6934
ag6934
ag6934
ag6934
ag6934
ag6934
ag6934
ag6934
ag6934
ag6934
ag6934
ag6934
ag6934
ag6934
ag6934
ag6934
ag6934
ag6934
ag6934
ag6936
ag6934
ag6934
ag6934
ag6934
ag6934
ag6934
ag6934
ag6934
ag6936
ag6934
ag6934
ag6934
ag6934
ag6934
ag6936
ag6934
ag6934
aa(lp6938
g2
(g3
(S'S5'
p6939
I0
I1
tp6940
Rp6941
(I3
S'|'
p6942
NNNI5
I1
I0
tp6943
bS'HARD1'
p6944
tp6945
Rp6946
ag2
(g3
(S'S5'
p6947
I0
I1
tp6948
Rp6949
(I3
S'|'
p6950
NNNI5
I1
I0
tp6951
bS'HARD1'
p6952
tp6953
Rp6954
ag2
(g3
(S'S5'
p6955
I0
I1
tp6956
Rp6957
(I3
S'|'
p6958
NNNI5
I1
I0
tp6959
bS'HARD1'
p6960
tp6961
Rp6962
ag2
(g3
(S'S5'
p6963
I0
I1
tp6964
Rp6965
(I3
S'|'
p6966
NNNI5
I1
I0
tp6967
bS'HARD1'
p6968
tp6969
Rp6970
ag2
(g3
(S'S5'
p6971
I0
I1
tp6972
Rp6973
(I3
S'|'
p6974
NNNI5
I1
I0
tp6975
bS'HARD1'
p6976
tp6977
Rp6978
ag2
(g3
(S'S5'
p6979
I0
I1
tp6980
Rp6981
(I3
S'|'
p6982
NNNI5
I1
I0
tp6983
bS'HARD1'
p6984
tp6985
Rp6986
ag2
(g3
(S'S5'
p6987
I0
I1
tp6988
Rp6989
(I3
S'|'
p6990
NNNI5
I1
I0
tp6991
bS'HARD1'
p6992
tp6993
Rp6994
ag2
(g3
(S'S5'
p6995
I0
I1
tp6996
Rp6997
(I3
S'|'
p6998
NNNI5
I1
I0
tp6999
bS'HARD1'
p7000
tp7001
Rp7002
ag2
(g3
(S'S5'
p7003
I0
I1
tp7004
Rp7005
(I3
S'|'
p7006
NNNI5
I1
I0
tp7007
bS'HARD1'
p7008
tp7009
Rp7010
ag2
(g3
(S'S5'
p7011
I0
I1
tp7012
Rp7013
(I3
S'|'
p7014
NNNI5
I1
I0
tp7015
bS'HARD1'
p7016
tp7017
Rp7018
ag2
(g3
(S'S5'
p7019
I0
I1
tp7020
Rp7021
(I3
S'|'
p7022
NNNI5
I1
I0
tp7023
bS'HARD1'
p7024
tp7025
Rp7026
ag2
(g3
(S'S5'
p7027
I0
I1
tp7028
Rp7029
(I3
S'|'
p7030
NNNI5
I1
I0
tp7031
bS'HARD1'
p7032
tp7033
Rp7034
ag2
(g3
(S'S5'
p7035
I0
I1
tp7036
Rp7037
(I3
S'|'
p7038
NNNI5
I1
I0
tp7039
bS'HARD1'
p7040
tp7041
Rp7042
ag2
(g3
(S'S5'
p7043
I0
I1
tp7044
Rp7045
(I3
S'|'
p7046
NNNI5
I1
I0
tp7047
bS'HARD1'
p7048
tp7049
Rp7050
ag2
(g3
(S'S5'
p7051
I0
I1
tp7052
Rp7053
(I3
S'|'
p7054
NNNI5
I1
I0
tp7055
bS'HARD1'
p7056
tp7057
Rp7058
ag2
(g3
(S'S5'
p7059
I0
I1
tp7060
Rp7061
(I3
S'|'
p7062
NNNI5
I1
I0
tp7063
bS'HARD1'
p7064
tp7065
Rp7066
ag2
(g3
(S'S5'
p7067
I0
I1
tp7068
Rp7069
(I3
S'|'
p7070
NNNI5
I1
I0
tp7071
bS'HARD1'
p7072
tp7073
Rp7074
ag2
(g3
(S'S5'
p7075
I0
I1
tp7076
Rp7077
(I3
S'|'
p7078
NNNI5
I1
I0
tp7079
bS'HARD2'
p7080
tp7081
Rp7082
ag2
(g3
(S'S5'
p7083
I0
I1
tp7084
Rp7085
(I3
S'|'
p7086
NNNI5
I1
I0
tp7087
bS'HARD1'
p7088
tp7089
Rp7090
ag2
(g3
(S'S5'
p7091
I0
I1
tp7092
Rp7093
(I3
S'|'
p7094
NNNI5
I1
I0
tp7095
bS'HARD1'
p7096
tp7097
Rp7098
ag2
(g3
(S'S5'
p7099
I0
I1
tp7100
Rp7101
(I3
S'|'
p7102
NNNI5
I1
I0
tp7103
bS'HARD1'
p7104
tp7105
Rp7106
ag2
(g3
(S'S5'
p7107
I0
I1
tp7108
Rp7109
(I3
S'|'
p7110
NNNI5
I1
I0
tp7111
bS'HARD1'
p7112
tp7113
Rp7114
ag2
(g3
(S'S5'
p7115
I0
I1
tp7116
Rp7117
(I3
S'|'
p7118
NNNI5
I1
I0
tp7119
bS'HARD1'
p7120
tp7121
Rp7122
ag2
(g3
(S'S5'
p7123
I0
I1
tp7124
Rp7125
(I3
S'|'
p7126
NNNI5
I1
I0
tp7127
bS'HARD1'
p7128
tp7129
Rp7130
ag2
(g3
(S'S5'
p7131
I0
I1
tp7132
Rp7133
(I3
S'|'
p7134
NNNI5
I1
I0
tp7135
bS'HARD1'
p7136
tp7137
Rp7138
ag2
(g3
(S'S5'
p7139
I0
I1
tp7140
Rp7141
(I3
S'|'
p7142
NNNI5
I1
I0
tp7143
bS'HARD1'
p7144
tp7145
Rp7146
ag2
(g3
(S'S5'
p7147
I0
I1
tp7148
Rp7149
(I3
S'|'
p7150
NNNI5
I1
I0
tp7151
bS'HARD1'
p7152
tp7153
Rp7154
ag2
(g3
(S'S5'
p7155
I0
I1
tp7156
Rp7157
(I3
S'|'
p7158
NNNI5
I1
I0
tp7159
bS'HARD1'
p7160
tp7161
Rp7162
ag2
(g3
(S'S5'
p7163
I0
I1
tp7164
Rp7165
(I3
S'|'
p7166
NNNI5
I1
I0
tp7167
bS'HARD1'
p7168
tp7169
Rp7170
ag2
(g3
(S'S5'
p7171
I0
I1
tp7172
Rp7173
(I3
S'|'
p7174
NNNI5
I1
I0
tp7175
bS'HARD1'
p7176
tp7177
Rp7178
ag2
(g3
(S'S5'
p7179
I0
I1
tp7180
Rp7181
(I3
S'|'
p7182
NNNI5
I1
I0
tp7183
bS'HARD1'
p7184
tp7185
Rp7186
ag2
(g3
(S'S5'
p7187
I0
I1
tp7188
Rp7189
(I3
S'|'
p7190
NNNI5
I1
I0
tp7191
bS'HARD1'
p7192
tp7193
Rp7194
ag2
(g3
(S'S5'
p7195
I0
I1
tp7196
Rp7197
(I3
S'|'
p7198
NNNI5
I1
I0
tp7199
bS'HARD1'
p7200
tp7201
Rp7202
ag2
(g3
(S'S5'
p7203
I0
I1
tp7204
Rp7205
(I3
S'|'
p7206
NNNI5
I1
I0
tp7207
bS'HARD1'
p7208
tp7209
Rp7210
ag2
(g3
(S'S5'
p7211
I0
I1
tp7212
Rp7213
(I3
S'|'
p7214
NNNI5
I1
I0
tp7215
bS'HARD1'
p7216
tp7217
Rp7218
ag2
(g3
(S'S5'
p7219
I0
I1
tp7220
Rp7221
(I3
S'|'
p7222
NNNI5
I1
I0
tp7223
bS'HARD1'
p7224
tp7225
Rp7226
ag2
(g3
(S'S5'
p7227
I0
I1
tp7228
Rp7229
(I3
S'|'
p7230
NNNI5
I1
I0
tp7231
bS'HARD1'
p7232
tp7233
Rp7234
ag2
(g3
(S'S5'
p7235
I0
I1
tp7236
Rp7237
(I3
S'|'
p7238
NNNI5
I1
I0
tp7239
bS'HARD1'
p7240
tp7241
Rp7242
ag2
(g3
(S'S5'
p7243
I0
I1
tp7244
Rp7245
(I3
S'|'
p7246
NNNI5
I1
I0
tp7247
bS'HARD1'
p7248
tp7249
Rp7250
ag2
(g3
(S'S5'
p7251
I0
I1
tp7252
Rp7253
(I3
S'|'
p7254
NNNI5
I1
I0
tp7255
bS'HARD1'
p7256
tp7257
Rp7258
ag2
(g3
(S'S5'
p7259
I0
I1
tp7260
Rp7261
(I3
S'|'
p7262
NNNI5
I1
I0
tp7263
bS'HARD1'
p7264
tp7265
Rp7266
ag2
(g3
(S'S5'
p7267
I0
I1
tp7268
Rp7269
(I3
S'|'
p7270
NNNI5
I1
I0
tp7271
bS'HARD1'
p7272
tp7273
Rp7274
ag2
(g3
(S'S5'
p7275
I0
I1
tp7276
Rp7277
(I3
S'|'
p7278
NNNI5
I1
I0
tp7279
bS'HARD1'
p7280
tp7281
Rp7282
ag2
(g3
(S'S5'
p7283
I0
I1
tp7284
Rp7285
(I3
S'|'
p7286
NNNI5
I1
I0
tp7287
bS'HARD1'
p7288
tp7289
Rp7290
ag2
(g3
(S'S5'
p7291
I0
I1
tp7292
Rp7293
(I3
S'|'
p7294
NNNI5
I1
I0
tp7295
bS'HARD1'
p7296
tp7297
Rp7298
ag2
(g3
(S'S5'
p7299
I0
I1
tp7300
Rp7301
(I3
S'|'
p7302
NNNI5
I1
I0
tp7303
bS'HARD1'
p7304
tp7305
Rp7306
ag2
(g3
(S'S5'
p7307
I0
I1
tp7308
Rp7309
(I3
S'|'
p7310
NNNI5
I1
I0
tp7311
bS'HARD1'
p7312
tp7313
Rp7314
ag2
(g3
(S'S5'
p7315
I0
I1
tp7316
Rp7317
(I3
S'|'
p7318
NNNI5
I1
I0
tp7319
bS'HARD1'
p7320
tp7321
Rp7322
ag2
(g3
(S'S5'
p7323
I0
I1
tp7324
Rp7325
(I3
S'|'
p7326
NNNI5
I1
I0
tp7327
bS'HARD1'
p7328
tp7329
Rp7330
ag2
(g3
(S'S5'
p7331
I0
I1
tp7332
Rp7333
(I3
S'|'
p7334
NNNI5
I1
I0
tp7335
bS'HARD1'
p7336
tp7337
Rp7338
ag2
(g3
(S'S5'
p7339
I0
I1
tp7340
Rp7341
(I3
S'|'
p7342
NNNI5
I1
I0
tp7343
bS'HARD1'
p7344
tp7345
Rp7346
ag2
(g3
(S'S5'
p7347
I0
I1
tp7348
Rp7349
(I3
S'|'
p7350
NNNI5
I1
I0
tp7351
bS'HARD1'
p7352
tp7353
Rp7354
ag2
(g3
(S'S5'
p7355
I0
I1
tp7356
Rp7357
(I3
S'|'
p7358
NNNI5
I1
I0
tp7359
bS'HARD1'
p7360
tp7361
Rp7362
ag2
(g3
(S'S5'
p7363
I0
I1
tp7364
Rp7365
(I3
S'|'
p7366
NNNI5
I1
I0
tp7367
bS'HARD1'
p7368
tp7369
Rp7370
ag2
(g3
(S'S5'
p7371
I0
I1
tp7372
Rp7373
(I3
S'|'
p7374
NNNI5
I1
I0
tp7375
bS'HARD1'
p7376
tp7377
Rp7378
ag2
(g3
(S'S5'
p7379
I0
I1
tp7380
Rp7381
(I3
S'|'
p7382
NNNI5
I1
I0
tp7383
bS'HARD1'
p7384
tp7385
Rp7386
ag2
(g3
(S'S5'
p7387
I0
I1
tp7388
Rp7389
(I3
S'|'
p7390
NNNI5
I1
I0
tp7391
bS'HARD1'
p7392
tp7393
Rp7394
ag2
(g3
(S'S5'
p7395
I0
I1
tp7396
Rp7397
(I3
S'|'
p7398
NNNI5
I1
I0
tp7399
bS'HARD1'
p7400
tp7401
Rp7402
ag2
(g3
(S'S5'
p7403
I0
I1
tp7404
Rp7405
(I3
S'|'
p7406
NNNI5
I1
I0
tp7407
bS'HARD1'
p7408
tp7409
Rp7410
ag2
(g3
(S'S5'
p7411
I0
I1
tp7412
Rp7413
(I3
S'|'
p7414
NNNI5
I1
I0
tp7415
bS'HARD1'
p7416
tp7417
Rp7418
ag2
(g3
(S'S5'
p7419
I0
I1
tp7420
Rp7421
(I3
S'|'
p7422
NNNI5
I1
I0
tp7423
bS'HARD1'
p7424
tp7425
Rp7426
ag2
(g3
(S'S5'
p7427
I0
I1
tp7428
Rp7429
(I3
S'|'
p7430
NNNI5
I1
I0
tp7431
bS'HARD1'
p7432
tp7433
Rp7434
ag2
(g3
(S'S5'
p7435
I0
I1
tp7436
Rp7437
(I3
S'|'
p7438
NNNI5
I1
I0
tp7439
bS'HARD1'
p7440
tp7441
Rp7442
ag2
(g3
(S'S5'
p7443
I0
I1
tp7444
Rp7445
(I3
S'|'
p7446
NNNI5
I1
I0
tp7447
bS'HARD1'
p7448
tp7449
Rp7450
ag2
(g3
(S'S5'
p7451
I0
I1
tp7452
Rp7453
(I3
S'|'
p7454
NNNI5
I1
I0
tp7455
bS'HARD1'
p7456
tp7457
Rp7458
ag2
(g3
(S'S5'
p7459
I0
I1
tp7460
Rp7461
(I3
S'|'
p7462
NNNI5
I1
I0
tp7463
bS'HARD1'
p7464
tp7465
Rp7466
ag2
(g3
(S'S5'
p7467
I0
I1
tp7468
Rp7469
(I3
S'|'
p7470
NNNI5
I1
I0
tp7471
bS'HARD1'
p7472
tp7473
Rp7474
ag2
(g3
(S'S5'
p7475
I0
I1
tp7476
Rp7477
(I3
S'|'
p7478
NNNI5
I1
I0
tp7479
bS'HARD1'
p7480
tp7481
Rp7482
ag2
(g3
(S'S5'
p7483
I0
I1
tp7484
Rp7485
(I3
S'|'
p7486
NNNI5
I1
I0
tp7487
bS'HARD1'
p7488
tp7489
Rp7490
ag2
(g3
(S'S5'
p7491
I0
I1
tp7492
Rp7493
(I3
S'|'
p7494
NNNI5
I1
I0
tp7495
bS'HARD1'
p7496
tp7497
Rp7498
ag2
(g3
(S'S5'
p7499
I0
I1
tp7500
Rp7501
(I3
S'|'
p7502
NNNI5
I1
I0
tp7503
bS'HARD1'
p7504
tp7505
Rp7506
ag2
(g3
(S'S5'
p7507
I0
I1
tp7508
Rp7509
(I3
S'|'
p7510
NNNI5
I1
I0
tp7511
bS'HARD1'
p7512
tp7513
Rp7514
ag2
(g3
(S'S5'
p7515
I0
I1
tp7516
Rp7517
(I3
S'|'
p7518
NNNI5
I1
I0
tp7519
bS'HARD1'
p7520
tp7521
Rp7522
ag2
(g3
(S'S5'
p7523
I0
I1
tp7524
Rp7525
(I3
S'|'
p7526
NNNI5
I1
I0
tp7527
bS'HARD1'
p7528
tp7529
Rp7530
ag2
(g3
(S'S5'
p7531
I0
I1
tp7532
Rp7533
(I3
S'|'
p7534
NNNI5
I1
I0
tp7535
bS'HARD1'
p7536
tp7537
Rp7538
ag2
(g3
(S'S5'
p7539
I0
I1
tp7540
Rp7541
(I3
S'|'
p7542
NNNI5
I1
I0
tp7543
bS'HARD1'
p7544
tp7545
Rp7546
ag2
(g3
(S'S5'
p7547
I0
I1
tp7548
Rp7549
(I3
S'|'
p7550
NNNI5
I1
I0
tp7551
bS'HARD1'
p7552
tp7553
Rp7554
ag2
(g3
(S'S5'
p7555
I0
I1
tp7556
Rp7557
(I3
S'|'
p7558
NNNI5
I1
I0
tp7559
bS'HARD1'
p7560
tp7561
Rp7562
ag2
(g3
(S'S5'
p7563
I0
I1
tp7564
Rp7565
(I3
S'|'
p7566
NNNI5
I1
I0
tp7567
bS'HARD1'
p7568
tp7569
Rp7570
ag2
(g3
(S'S5'
p7571
I0
I1
tp7572
Rp7573
(I3
S'|'
p7574
NNNI5
I1
I0
tp7575
bS'HARD1'
p7576
tp7577
Rp7578
ag2
(g3
(S'S5'
p7579
I0
I1
tp7580
Rp7581
(I3
S'|'
p7582
NNNI5
I1
I0
tp7583
bS'HARD1'
p7584
tp7585
Rp7586
ag2
(g3
(S'S5'
p7587
I0
I1
tp7588
Rp7589
(I3
S'|'
p7590
NNNI5
I1
I0
tp7591
bS'HARD1'
p7592
tp7593
Rp7594
ag2
(g3
(S'S5'
p7595
I0
I1
tp7596
Rp7597
(I3
S'|'
p7598
NNNI5
I1
I0
tp7599
bS'HARD1'
p7600
tp7601
Rp7602
ag2
(g3
(S'S5'
p7603
I0
I1
tp7604
Rp7605
(I3
S'|'
p7606
NNNI5
I1
I0
tp7607
bS'HARD1'
p7608
tp7609
Rp7610
ag2
(g3
(S'S5'
p7611
I0
I1
tp7612
Rp7613
(I3
S'|'
p7614
NNNI5
I1
I0
tp7615
bS'HARD1'
p7616
tp7617
Rp7618
ag2
(g3
(S'S5'
p7619
I0
I1
tp7620
Rp7621
(I3
S'|'
p7622
NNNI5
I1
I0
tp7623
bS'HARD1'
p7624
tp7625
Rp7626
ag2
(g3
(S'S5'
p7627
I0
I1
tp7628
Rp7629
(I3
S'|'
p7630
NNNI5
I1
I0
tp7631
bS'HARD1'
p7632
tp7633
Rp7634
ag2
(g3
(S'S5'
p7635
I0
I1
tp7636
Rp7637
(I3
S'|'
p7638
NNNI5
I1
I0
tp7639
bS'HARD1'
p7640
tp7641
Rp7642
ag2
(g3
(S'S5'
p7643
I0
I1
tp7644
Rp7645
(I3
S'|'
p7646
NNNI5
I1
I0
tp7647
bS'HARD1'
p7648
tp7649
Rp7650
ag2
(g3
(S'S5'
p7651
I0
I1
tp7652
Rp7653
(I3
S'|'
p7654
NNNI5
I1
I0
tp7655
bS'HARD1'
p7656
tp7657
Rp7658
ag2
(g3
(S'S5'
p7659
I0
I1
tp7660
Rp7661
(I3
S'|'
p7662
NNNI5
I1
I0
tp7663
bS'HARD1'
p7664
tp7665
Rp7666
ag2
(g3
(S'S5'
p7667
I0
I1
tp7668
Rp7669
(I3
S'|'
p7670
NNNI5
I1
I0
tp7671
bS'HARD1'
p7672
tp7673
Rp7674
ag2
(g3
(S'S5'
p7675
I0
I1
tp7676
Rp7677
(I3
S'|'
p7678
NNNI5
I1
I0
tp7679
bS'HARD1'
p7680
tp7681
Rp7682
ag2
(g3
(S'S5'
p7683
I0
I1
tp7684
Rp7685
(I3
S'|'
p7686
NNNI5
I1
I0
tp7687
bS'HARD1'
p7688
tp7689
Rp7690
ag2
(g3
(S'S5'
p7691
I0
I1
tp7692
Rp7693
(I3
S'|'
p7694
NNNI5
I1
I0
tp7695
bS'HARD1'
p7696
tp7697
Rp7698
ag2
(g3
(S'S5'
p7699
I0
I1
tp7700
Rp7701
(I3
S'|'
p7702
NNNI5
I1
I0
tp7703
bS'HARD1'
p7704
tp7705
Rp7706
ag2
(g3
(S'S5'
p7707
I0
I1
tp7708
Rp7709
(I3
S'|'
p7710
NNNI5
I1
I0
tp7711
bS'HARD1'
p7712
tp7713
Rp7714
ag2
(g3
(S'S5'
p7715
I0
I1
tp7716
Rp7717
(I3
S'|'
p7718
NNNI5
I1
I0
tp7719
bS'HARD1'
p7720
tp7721
Rp7722
ag2
(g3
(S'S5'
p7723
I0
I1
tp7724
Rp7725
(I3
S'|'
p7726
NNNI5
I1
I0
tp7727
bS'HARD1'
p7728
tp7729
Rp7730
ag2
(g3
(S'S5'
p7731
I0
I1
tp7732
Rp7733
(I3
S'|'
p7734
NNNI5
I1
I0
tp7735
bS'HARD1'
p7736
tp7737
Rp7738
ag2
(g3
(S'S5'
p7739
I0
I1
tp7740
Rp7741
(I3
S'|'
p7742
NNNI5
I1
I0
tp7743
bS'HARD1'
p7744
tp7745
Rp7746
ag2
(g3
(S'S5'
p7747
I0
I1
tp7748
Rp7749
(I3
S'|'
p7750
NNNI5
I1
I0
tp7751
bS'HARD1'
p7752
tp7753
Rp7754
ag2
(g3
(S'S5'
p7755
I0
I1
tp7756
Rp7757
(I3
S'|'
p7758
NNNI5
I1
I0
tp7759
bS'HARD1'
p7760
tp7761
Rp7762
ag2
(g3
(S'S5'
p7763
I0
I1
tp7764
Rp7765
(I3
S'|'
p7766
NNNI5
I1
I0
tp7767
bS'HARD1'
p7768
tp7769
Rp7770
ag2
(g3
(S'S5'
p7771
I0
I1
tp7772
Rp7773
(I3
S'|'
p7774
NNNI5
I1
I0
tp7775
bS'HARD1'
p7776
tp7777
Rp7778
ag2
(g3
(S'S5'
p7779
I0
I1
tp7780
Rp7781
(I3
S'|'
p7782
NNNI5
I1
I0
tp7783
bS'HARD1'
p7784
tp7785
Rp7786
ag2
(g3
(S'S5'
p7787
I0
I1
tp7788
Rp7789
(I3
S'|'
p7790
NNNI5
I1
I0
tp7791
bS'HARD1'
p7792
tp7793
Rp7794
ag2
(g3
(S'S5'
p7795
I0
I1
tp7796
Rp7797
(I3
S'|'
p7798
NNNI5
I1
I0
tp7799
bS'HARD1'
p7800
tp7801
Rp7802
ag2
(g3
(S'S5'
p7803
I0
I1
tp7804
Rp7805
(I3
S'|'
p7806
NNNI5
I1
I0
tp7807
bS'HARD1'
p7808
tp7809
Rp7810
ag2
(g3
(S'S5'
p7811
I0
I1
tp7812
Rp7813
(I3
S'|'
p7814
NNNI5
I1
I0
tp7815
bS'HARD1'
p7816
tp7817
Rp7818
ag2
(g3
(S'S5'
p7819
I0
I1
tp7820
Rp7821
(I3
S'|'
p7822
NNNI5
I1
I0
tp7823
bS'HARD1'
p7824
tp7825
Rp7826
ag2
(g3
(S'S5'
p7827
I0
I1
tp7828
Rp7829
(I3
S'|'
p7830
NNNI5
I1
I0
tp7831
bS'HARD1'
p7832
tp7833
Rp7834
ag2
(g3
(S'S5'
p7835
I0
I1
tp7836
Rp7837
(I3
S'|'
p7838
NNNI5
I1
I0
tp7839
bS'HARD1'
p7840
tp7841
Rp7842
ag2
(g3
(S'S5'
p7843
I0
I1
tp7844
Rp7845
(I3
S'|'
p7846
NNNI5
I1
I0
tp7847
bS'HARD1'
p7848
tp7849
Rp7850
ag2
(g3
(S'S5'
p7851
I0
I1
tp7852
Rp7853
(I3
S'|'
p7854
NNNI5
I1
I0
tp7855
bS'HARD1'
p7856
tp7857
Rp7858
ag2
(g3
(S'S5'
p7859
I0
I1
tp7860
Rp7861
(I3
S'|'
p7862
NNNI5
I1
I0
tp7863
bS'HARD1'
p7864
tp7865
Rp7866
ag2
(g3
(S'S5'
p7867
I0
I1
tp7868
Rp7869
(I3
S'|'
p7870
NNNI5
I1
I0
tp7871
bS'HARD1'
p7872
tp7873
Rp7874
ag2
(g3
(S'S5'
p7875
I0
I1
tp7876
Rp7877
(I3
S'|'
p7878
NNNI5
I1
I0
tp7879
bS'HARD1'
p7880
tp7881
Rp7882
ag2
(g3
(S'S5'
p7883
I0
I1
tp7884
Rp7885
(I3
S'|'
p7886
NNNI5
I1
I0
tp7887
bS'HARD1'
p7888
tp7889
Rp7890
ag2
(g3
(S'S5'
p7891
I0
I1
tp7892
Rp7893
(I3
S'|'
p7894
NNNI5
I1
I0
tp7895
bS'HARD1'
p7896
tp7897
Rp7898
ag2
(g3
(S'S5'
p7899
I0
I1
tp7900
Rp7901
(I3
S'|'
p7902
NNNI5
I1
I0
tp7903
bS'HARD1'
p7904
tp7905
Rp7906
ag2
(g3
(S'S5'
p7907
I0
I1
tp7908
Rp7909
(I3
S'|'
p7910
NNNI5
I1
I0
tp7911
bS'HARD1'
p7912
tp7913
Rp7914
ag2
(g3
(S'S5'
p7915
I0
I1
tp7916
Rp7917
(I3
S'|'
p7918
NNNI5
I1
I0
tp7919
bS'HARD1'
p7920
tp7921
Rp7922
ag2
(g3
(S'S5'
p7923
I0
I1
tp7924
Rp7925
(I3
S'|'
p7926
NNNI5
I1
I0
tp7927
bS'HARD1'
p7928
tp7929
Rp7930
ag2
(g3
(S'S5'
p7931
I0
I1
tp7932
Rp7933
(I3
S'|'
p7934
NNNI5
I1
I0
tp7935
bS'HARD1'
p7936
tp7937
Rp7938
ag2
(g3
(S'S5'
p7939
I0
I1
tp7940
Rp7941
(I3
S'|'
p7942
NNNI5
I1
I0
tp7943
bS'HARD1'
p7944
tp7945
Rp7946
ag2
(g3
(S'S5'
p7947
I0
I1
tp7948
Rp7949
(I3
S'|'
p7950
NNNI5
I1
I0
tp7951
bS'HARD1'
p7952
tp7953
Rp7954
ag2
(g3
(S'S5'
p7955
I0
I1
tp7956
Rp7957
(I3
S'|'
p7958
NNNI5
I1
I0
tp7959
bS'HARD1'
p7960
tp7961
Rp7962
ag2
(g3
(S'S5'
p7963
I0
I1
tp7964
Rp7965
(I3
S'|'
p7966
NNNI5
I1
I0
tp7967
bS'HARD1'
p7968
tp7969
Rp7970
ag2
(g3
(S'S5'
p7971
I0
I1
tp7972
Rp7973
(I3
S'|'
p7974
NNNI5
I1
I0
tp7975
bS'HARD1'
p7976
tp7977
Rp7978
ag2
(g3
(S'S5'
p7979
I0
I1
tp7980
Rp7981
(I3
S'|'
p7982
NNNI5
I1
I0
tp7983
bS'HARD1'
p7984
tp7985
Rp7986
ag2
(g3
(S'S5'
p7987
I0
I1
tp7988
Rp7989
(I3
S'|'
p7990
NNNI5
I1
I0
tp7991
bS'HARD1'
p7992
tp7993
Rp7994
ag2
(g3
(S'S5'
p7995
I0
I1
tp7996
Rp7997
(I3
S'|'
p7998
NNNI5
I1
I0
tp7999
bS'HARD1'
p8000
tp8001
Rp8002
ag2
(g3
(S'S5'
p8003
I0
I1
tp8004
Rp8005
(I3
S'|'
p8006
NNNI5
I1
I0
tp8007
bS'HARD1'
p8008
tp8009
Rp8010
ag2
(g3
(S'S5'
p8011
I0
I1
tp8012
Rp8013
(I3
S'|'
p8014
NNNI5
I1
I0
tp8015
bS'HARD1'
p8016
tp8017
Rp8018
ag2
(g3
(S'S5'
p8019
I0
I1
tp8020
Rp8021
(I3
S'|'
p8022
NNNI5
I1
I0
tp8023
bS'HARD1'
p8024
tp8025
Rp8026
ag2
(g3
(S'S5'
p8027
I0
I1
tp8028
Rp8029
(I3
S'|'
p8030
NNNI5
I1
I0
tp8031
bS'HARD1'
p8032
tp8033
Rp8034
ag2
(g3
(S'S5'
p8035
I0
I1
tp8036
Rp8037
(I3
S'|'
p8038
NNNI5
I1
I0
tp8039
bS'HARD1'
p8040
tp8041
Rp8042
ag2
(g3
(S'S5'
p8043
I0
I1
tp8044
Rp8045
(I3
S'|'
p8046
NNNI5
I1
I0
tp8047
bS'HARD1'
p8048
tp8049
Rp8050
ag2
(g3
(S'S5'
p8051
I0
I1
tp8052
Rp8053
(I3
S'|'
p8054
NNNI5
I1
I0
tp8055
bS'HARD1'
p8056
tp8057
Rp8058
ag2
(g3
(S'S5'
p8059
I0
I1
tp8060
Rp8061
(I3
S'|'
p8062
NNNI5
I1
I0
tp8063
bS'HARD1'
p8064
tp8065
Rp8066
ag2
(g3
(S'S5'
p8067
I0
I1
tp8068
Rp8069
(I3
S'|'
p8070
NNNI5
I1
I0
tp8071
bS'HARD1'
p8072
tp8073
Rp8074
ag2
(g3
(S'S5'
p8075
I0
I1
tp8076
Rp8077
(I3
S'|'
p8078
NNNI5
I1
I0
tp8079
bS'HARD1'
p8080
tp8081
Rp8082
ag2
(g3
(S'S5'
p8083
I0
I1
tp8084
Rp8085
(I3
S'|'
p8086
NNNI5
I1
I0
tp8087
bS'HARD1'
p8088
tp8089
Rp8090
ag2
(g3
(S'S5'
p8091
I0
I1
tp8092
Rp8093
(I3
S'|'
p8094
NNNI5
I1
I0
tp8095
bS'HARD1'
p8096
tp8097
Rp8098
ag2
(g3
(S'S5'
p8099
I0
I1
tp8100
Rp8101
(I3
S'|'
p8102
NNNI5
I1
I0
tp8103
bS'HARD1'
p8104
tp8105
Rp8106
ag2
(g3
(S'S5'
p8107
I0
I1
tp8108
Rp8109
(I3
S'|'
p8110
NNNI5
I1
I0
tp8111
bS'HARD1'
p8112
tp8113
Rp8114
ag2
(g3
(S'S5'
p8115
I0
I1
tp8116
Rp8117
(I3
S'|'
p8118
NNNI5
I1
I0
tp8119
bS'HARD1'
p8120
tp8121
Rp8122
ag2
(g3
(S'S5'
p8123
I0
I1
tp8124
Rp8125
(I3
S'|'
p8126
NNNI5
I1
I0
tp8127
bS'HARD1'
p8128
tp8129
Rp8130
ag2
(g3
(S'S5'
p8131
I0
I1
tp8132
Rp8133
(I3
S'|'
p8134
NNNI5
I1
I0
tp8135
bS'HARD1'
p8136
tp8137
Rp8138
ag2
(g3
(S'S5'
p8139
I0
I1
tp8140
Rp8141
(I3
S'|'
p8142
NNNI5
I1
I0
tp8143
bS'HARD1'
p8144
tp8145
Rp8146
ag2
(g3
(S'S5'
p8147
I0
I1
tp8148
Rp8149
(I3
S'|'
p8150
NNNI5
I1
I0
tp8151
bS'HARD1'
p8152
tp8153
Rp8154
ag2
(g3
(S'S5'
p8155
I0
I1
tp8156
Rp8157
(I3
S'|'
p8158
NNNI5
I1
I0
tp8159
bS'HARD1'
p8160
tp8161
Rp8162
ag2
(g3
(S'S5'
p8163
I0
I1
tp8164
Rp8165
(I3
S'|'
p8166
NNNI5
I1
I0
tp8167
bS'HARD1'
p8168
tp8169
Rp8170
ag2
(g3
(S'S5'
p8171
I0
I1
tp8172
Rp8173
(I3
S'|'
p8174
NNNI5
I1
I0
tp8175
bS'HARD1'
p8176
tp8177
Rp8178
ag2
(g3
(S'S5'
p8179
I0
I1
tp8180
Rp8181
(I3
S'|'
p8182
NNNI5
I1
I0
tp8183
bS'HARD1'
p8184
tp8185
Rp8186
ag2
(g3
(S'S5'
p8187
I0
I1
tp8188
Rp8189
(I3
S'|'
p8190
NNNI5
I1
I0
tp8191
bS'HARD1'
p8192
tp8193
Rp8194
ag2
(g3
(S'S5'
p8195
I0
I1
tp8196
Rp8197
(I3
S'|'
p8198
NNNI5
I1
I0
tp8199
bS'HARD1'
p8200
tp8201
Rp8202
ag2
(g3
(S'S5'
p8203
I0
I1
tp8204
Rp8205
(I3
S'|'
p8206
NNNI5
I1
I0
tp8207
bS'HARD1'
p8208
tp8209
Rp8210
ag2
(g3
(S'S5'
p8211
I0
I1
tp8212
Rp8213
(I3
S'|'
p8214
NNNI5
I1
I0
tp8215
bS'HARD1'
p8216
tp8217
Rp8218
ag2
(g3
(S'S5'
p8219
I0
I1
tp8220
Rp8221
(I3
S'|'
p8222
NNNI5
I1
I0
tp8223
bS'HARD1'
p8224
tp8225
Rp8226
ag2
(g3
(S'S5'
p8227
I0
I1
tp8228
Rp8229
(I3
S'|'
p8230
NNNI5
I1
I0
tp8231
bS'HARD1'
p8232
tp8233
Rp8234
ag2
(g3
(S'S5'
p8235
I0
I1
tp8236
Rp8237
(I3
S'|'
p8238
NNNI5
I1
I0
tp8239
bS'HARD1'
p8240
tp8241
Rp8242
ag2
(g3
(S'S5'
p8243
I0
I1
tp8244
Rp8245
(I3
S'|'
p8246
NNNI5
I1
I0
tp8247
bS'HARD1'
p8248
tp8249
Rp8250
ag2
(g3
(S'S5'
p8251
I0
I1
tp8252
Rp8253
(I3
S'|'
p8254
NNNI5
I1
I0
tp8255
bS'HARD1'
p8256
tp8257
Rp8258
ag2
(g3
(S'S5'
p8259
I0
I1
tp8260
Rp8261
(I3
S'|'
p8262
NNNI5
I1
I0
tp8263
bS'HARD1'
p8264
tp8265
Rp8266
ag2
(g3
(S'S5'
p8267
I0
I1
tp8268
Rp8269
(I3
S'|'
p8270
NNNI5
I1
I0
tp8271
bS'HARD1'
p8272
tp8273
Rp8274
ag2
(g3
(S'S5'
p8275
I0
I1
tp8276
Rp8277
(I3
S'|'
p8278
NNNI5
I1
I0
tp8279
bS'HARD1'
p8280
tp8281
Rp8282
ag2
(g3
(S'S5'
p8283
I0
I1
tp8284
Rp8285
(I3
S'|'
p8286
NNNI5
I1
I0
tp8287
bS'HARD2'
p8288
tp8289
Rp8290
ag2
(g3
(S'S5'
p8291
I0
I1
tp8292
Rp8293
(I3
S'|'
p8294
NNNI5
I1
I0
tp8295
bS'HARD1'
p8296
tp8297
Rp8298
ag2
(g3
(S'S5'
p8299
I0
I1
tp8300
Rp8301
(I3
S'|'
p8302
NNNI5
I1
I0
tp8303
bS'HARD1'
p8304
tp8305
Rp8306
ag2
(g3
(S'S5'
p8307
I0
I1
tp8308
Rp8309
(I3
S'|'
p8310
NNNI5
I1
I0
tp8311
bS'HARD1'
p8312
tp8313
Rp8314
ag2
(g3
(S'S5'
p8315
I0
I1
tp8316
Rp8317
(I3
S'|'
p8318
NNNI5
I1
I0
tp8319
bS'HARD1'
p8320
tp8321
Rp8322
ag2
(g3
(S'S5'
p8323
I0
I1
tp8324
Rp8325
(I3
S'|'
p8326
NNNI5
I1
I0
tp8327
bS'HARD1'
p8328
tp8329
Rp8330
ag2
(g3
(S'S5'
p8331
I0
I1
tp8332
Rp8333
(I3
S'|'
p8334
NNNI5
I1
I0
tp8335
bS'HARD1'
p8336
tp8337
Rp8338
ag2
(g3
(S'S5'
p8339
I0
I1
tp8340
Rp8341
(I3
S'|'
p8342
NNNI5
I1
I0
tp8343
bS'HARD1'
p8344
tp8345
Rp8346
ag2
(g3
(S'S5'
p8347
I0
I1
tp8348
Rp8349
(I3
S'|'
p8350
NNNI5
I1
I0
tp8351
bS'HARD1'
p8352
tp8353
Rp8354
ag2
(g3
(S'S5'
p8355
I0
I1
tp8356
Rp8357
(I3
S'|'
p8358
NNNI5
I1
I0
tp8359
bS'HARD1'
p8360
tp8361
Rp8362
ag2
(g3
(S'S5'
p8363
I0
I1
tp8364
Rp8365
(I3
S'|'
p8366
NNNI5
I1
I0
tp8367
bS'HARD1'
p8368
tp8369
Rp8370
ag2
(g3
(S'S5'
p8371
I0
I1
tp8372
Rp8373
(I3
S'|'
p8374
NNNI5
I1
I0
tp8375
bS'HARD1'
p8376
tp8377
Rp8378
ag2
(g3
(S'S5'
p8379
I0
I1
tp8380
Rp8381
(I3
S'|'
p8382
NNNI5
I1
I0
tp8383
bS'HARD1'
p8384
tp8385
Rp8386
ag2
(g3
(S'S5'
p8387
I0
I1
tp8388
Rp8389
(I3
S'|'
p8390
NNNI5
I1
I0
tp8391
bS'HARD1'
p8392
tp8393
Rp8394
ag2
(g3
(S'S5'
p8395
I0
I1
tp8396
Rp8397
(I3
S'|'
p8398
NNNI5
I1
I0
tp8399
bS'HARD1'
p8400
tp8401
Rp8402
ag2
(g3
(S'S5'
p8403
I0
I1
tp8404
Rp8405
(I3
S'|'
p8406
NNNI5
I1
I0
tp8407
bS'HARD1'
p8408
tp8409
Rp8410
ag2
(g3
(S'S5'
p8411
I0
I1
tp8412
Rp8413
(I3
S'|'
p8414
NNNI5
I1
I0
tp8415
bS'HARD1'
p8416
tp8417
Rp8418
ag2
(g3
(S'S5'
p8419
I0
I1
tp8420
Rp8421
(I3
S'|'
p8422
NNNI5
I1
I0
tp8423
bS'HARD1'
p8424
tp8425
Rp8426
ag2
(g3
(S'S5'
p8427
I0
I1
tp8428
Rp8429
(I3
S'|'
p8430
NNNI5
I1
I0
tp8431
bS'HARD1'
p8432
tp8433
Rp8434
ag2
(g3
(S'S5'
p8435
I0
I1
tp8436
Rp8437
(I3
S'|'
p8438
NNNI5
I1
I0
tp8439
bS'HARD1'
p8440
tp8441
Rp8442
ag2
(g3
(S'S5'
p8443
I0
I1
tp8444
Rp8445
(I3
S'|'
p8446
NNNI5
I1
I0
tp8447
bS'HARD1'
p8448
tp8449
Rp8450
ag2
(g3
(S'S5'
p8451
I0
I1
tp8452
Rp8453
(I3
S'|'
p8454
NNNI5
I1
I0
tp8455
bS'HARD1'
p8456
tp8457
Rp8458
ag2
(g3
(S'S5'
p8459
I0
I1
tp8460
Rp8461
(I3
S'|'
p8462
NNNI5
I1
I0
tp8463
bS'HARD1'
p8464
tp8465
Rp8466
ag2
(g3
(S'S5'
p8467
I0
I1
tp8468
Rp8469
(I3
S'|'
p8470
NNNI5
I1
I0
tp8471
bS'HARD1'
p8472
tp8473
Rp8474
ag2
(g3
(S'S5'
p8475
I0
I1
tp8476
Rp8477
(I3
S'|'
p8478
NNNI5
I1
I0
tp8479
bS'HARD1'
p8480
tp8481
Rp8482
ag2
(g3
(S'S5'
p8483
I0
I1
tp8484
Rp8485
(I3
S'|'
p8486
NNNI5
I1
I0
tp8487
bS'HARD1'
p8488
tp8489
Rp8490
ag2
(g3
(S'S5'
p8491
I0
I1
tp8492
Rp8493
(I3
S'|'
p8494
NNNI5
I1
I0
tp8495
bS'HARD1'
p8496
tp8497
Rp8498
ag2
(g3
(S'S5'
p8499
I0
I1
tp8500
Rp8501
(I3
S'|'
p8502
NNNI5
I1
I0
tp8503
bS'HARD1'
p8504
tp8505
Rp8506
ag2
(g3
(S'S5'
p8507
I0
I1
tp8508
Rp8509
(I3
S'|'
p8510
NNNI5
I1
I0
tp8511
bS'HARD1'
p8512
tp8513
Rp8514
ag2
(g3
(S'S5'
p8515
I0
I1
tp8516
Rp8517
(I3
S'|'
p8518
NNNI5
I1
I0
tp8519
bS'HARD1'
p8520
tp8521
Rp8522
ag2
(g3
(S'S5'
p8523
I0
I1
tp8524
Rp8525
(I3
S'|'
p8526
NNNI5
I1
I0
tp8527
bS'HARD1'
p8528
tp8529
Rp8530
ag2
(g3
(S'S5'
p8531
I0
I1
tp8532
Rp8533
(I3
S'|'
p8534
NNNI5
I1
I0
tp8535
bS'HARD1'
p8536
tp8537
Rp8538
ag2
(g3
(S'S5'
p8539
I0
I1
tp8540
Rp8541
(I3
S'|'
p8542
NNNI5
I1
I0
tp8543
bS'HARD1'
p8544
tp8545
Rp8546
ag2
(g3
(S'S5'
p8547
I0
I1
tp8548
Rp8549
(I3
S'|'
p8550
NNNI5
I1
I0
tp8551
bS'HARD1'
p8552
tp8553
Rp8554
ag2
(g3
(S'S5'
p8555
I0
I1
tp8556
Rp8557
(I3
S'|'
p8558
NNNI5
I1
I0
tp8559
bS'HARD1'
p8560
tp8561
Rp8562
ag2
(g3
(S'S5'
p8563
I0
I1
tp8564
Rp8565
(I3
S'|'
p8566
NNNI5
I1
I0
tp8567
bS'HARD1'
p8568
tp8569
Rp8570
ag2
(g3
(S'S5'
p8571
I0
I1
tp8572
Rp8573
(I3
S'|'
p8574
NNNI5
I1
I0
tp8575
bS'HARD1'
p8576
tp8577
Rp8578
ag2
(g3
(S'S5'
p8579
I0
I1
tp8580
Rp8581
(I3
S'|'
p8582
NNNI5
I1
I0
tp8583
bS'HARD1'
p8584
tp8585
Rp8586
ag2
(g3
(S'S5'
p8587
I0
I1
tp8588
Rp8589
(I3
S'|'
p8590
NNNI5
I1
I0
tp8591
bS'HARD1'
p8592
tp8593
Rp8594
ag2
(g3
(S'S5'
p8595
I0
I1
tp8596
Rp8597
(I3
S'|'
p8598
NNNI5
I1
I0
tp8599
bS'HARD1'
p8600
tp8601
Rp8602
ag2
(g3
(S'S5'
p8603
I0
I1
tp8604
Rp8605
(I3
S'|'
p8606
NNNI5
I1
I0
tp8607
bS'HARD1'
p8608
tp8609
Rp8610
ag2
(g3
(S'S5'
p8611
I0
I1
tp8612
Rp8613
(I3
S'|'
p8614
NNNI5
I1
I0
tp8615
bS'HARD1'
p8616
tp8617
Rp8618
ag2
(g3
(S'S5'
p8619
I0
I1
tp8620
Rp8621
(I3
S'|'
p8622
NNNI5
I1
I0
tp8623
bS'HARD1'
p8624
tp8625
Rp8626
ag2
(g3
(S'S5'
p8627
I0
I1
tp8628
Rp8629
(I3
S'|'
p8630
NNNI5
I1
I0
tp8631
bS'HARD1'
p8632
tp8633
Rp8634
ag2
(g3
(S'S5'
p8635
I0
I1
tp8636
Rp8637
(I3
S'|'
p8638
NNNI5
I1
I0
tp8639
bS'HARD1'
p8640
tp8641
Rp8642
ag2
(g3
(S'S5'
p8643
I0
I1
tp8644
Rp8645
(I3
S'|'
p8646
NNNI5
I1
I0
tp8647
bS'HARD1'
p8648
tp8649
Rp8650
ag2
(g3
(S'S5'
p8651
I0
I1
tp8652
Rp8653
(I3
S'|'
p8654
NNNI5
I1
I0
tp8655
bS'HARD1'
p8656
tp8657
Rp8658
ag2
(g3
(S'S5'
p8659
I0
I1
tp8660
Rp8661
(I3
S'|'
p8662
NNNI5
I1
I0
tp8663
bS'HARD1'
p8664
tp8665
Rp8666
ag2
(g3
(S'S5'
p8667
I0
I1
tp8668
Rp8669
(I3
S'|'
p8670
NNNI5
I1
I0
tp8671
bS'HARD1'
p8672
tp8673
Rp8674
ag2
(g3
(S'S5'
p8675
I0
I1
tp8676
Rp8677
(I3
S'|'
p8678
NNNI5
I1
I0
tp8679
bS'HARD1'
p8680
tp8681
Rp8682
ag2
(g3
(S'S5'
p8683
I0
I1
tp8684
Rp8685
(I3
S'|'
p8686
NNNI5
I1
I0
tp8687
bS'HARD1'
p8688
tp8689
Rp8690
ag2
(g3
(S'S5'
p8691
I0
I1
tp8692
Rp8693
(I3
S'|'
p8694
NNNI5
I1
I0
tp8695
bS'HARD1'
p8696
tp8697
Rp8698
ag2
(g3
(S'S5'
p8699
I0
I1
tp8700
Rp8701
(I3
S'|'
p8702
NNNI5
I1
I0
tp8703
bS'HARD1'
p8704
tp8705
Rp8706
ag2
(g3
(S'S5'
p8707
I0
I1
tp8708
Rp8709
(I3
S'|'
p8710
NNNI5
I1
I0
tp8711
bS'HARD1'
p8712
tp8713
Rp8714
ag2
(g3
(S'S5'
p8715
I0
I1
tp8716
Rp8717
(I3
S'|'
p8718
NNNI5
I1
I0
tp8719
bS'HARD1'
p8720
tp8721
Rp8722
ag2
(g3
(S'S5'
p8723
I0
I1
tp8724
Rp8725
(I3
S'|'
p8726
NNNI5
I1
I0
tp8727
bS'HARD1'
p8728
tp8729
Rp8730
ag2
(g3
(S'S5'
p8731
I0
I1
tp8732
Rp8733
(I3
S'|'
p8734
NNNI5
I1
I0
tp8735
bS'HARD1'
p8736
tp8737
Rp8738
ag2
(g3
(S'S5'
p8739
I0
I1
tp8740
Rp8741
(I3
S'|'
p8742
NNNI5
I1
I0
tp8743
bS'HARD2'
p8744
tp8745
Rp8746
ag2
(g3
(S'S5'
p8747
I0
I1
tp8748
Rp8749
(I3
S'|'
p8750
NNNI5
I1
I0
tp8751
bS'HARD1'
p8752
tp8753
Rp8754
ag2
(g3
(S'S5'
p8755
I0
I1
tp8756
Rp8757
(I3
S'|'
p8758
NNNI5
I1
I0
tp8759
bS'HARD1'
p8760
tp8761
Rp8762
ag2
(g3
(S'S5'
p8763
I0
I1
tp8764
Rp8765
(I3
S'|'
p8766
NNNI5
I1
I0
tp8767
bS'HARD1'
p8768
tp8769
Rp8770
ag2
(g3
(S'S5'
p8771
I0
I1
tp8772
Rp8773
(I3
S'|'
p8774
NNNI5
I1
I0
tp8775
bS'HARD1'
p8776
tp8777
Rp8778
ag2
(g3
(S'S5'
p8779
I0
I1
tp8780
Rp8781
(I3
S'|'
p8782
NNNI5
I1
I0
tp8783
bS'HARD1'
p8784
tp8785
Rp8786
ag2
(g3
(S'S5'
p8787
I0
I1
tp8788
Rp8789
(I3
S'|'
p8790
NNNI5
I1
I0
tp8791
bS'HARD1'
p8792
tp8793
Rp8794
ag2
(g3
(S'S5'
p8795
I0
I1
tp8796
Rp8797
(I3
S'|'
p8798
NNNI5
I1
I0
tp8799
bS'HARD1'
p8800
tp8801
Rp8802
ag2
(g3
(S'S5'
p8803
I0
I1
tp8804
Rp8805
(I3
S'|'
p8806
NNNI5
I1
I0
tp8807
bS'HARD1'
p8808
tp8809
Rp8810
ag2
(g3
(S'S5'
p8811
I0
I1
tp8812
Rp8813
(I3
S'|'
p8814
NNNI5
I1
I0
tp8815
bS'HARD1'
p8816
tp8817
Rp8818
ag2
(g3
(S'S5'
p8819
I0
I1
tp8820
Rp8821
(I3
S'|'
p8822
NNNI5
I1
I0
tp8823
bS'HARD1'
p8824
tp8825
Rp8826
ag2
(g3
(S'S5'
p8827
I0
I1
tp8828
Rp8829
(I3
S'|'
p8830
NNNI5
I1
I0
tp8831
bS'HARD1'
p8832
tp8833
Rp8834
ag2
(g3
(S'S5'
p8835
I0
I1
tp8836
Rp8837
(I3
S'|'
p8838
NNNI5
I1
I0
tp8839
bS'HARD1'
p8840
tp8841
Rp8842
ag2
(g3
(S'S5'
p8843
I0
I1
tp8844
Rp8845
(I3
S'|'
p8846
NNNI5
I1
I0
tp8847
bS'HARD1'
p8848
tp8849
Rp8850
ag2
(g3
(S'S5'
p8851
I0
I1
tp8852
Rp8853
(I3
S'|'
p8854
NNNI5
I1
I0
tp8855
bS'HARD1'
p8856
tp8857
Rp8858
ag2
(g3
(S'S5'
p8859
I0
I1
tp8860
Rp8861
(I3
S'|'
p8862
NNNI5
I1
I0
tp8863
bS'HARD1'
p8864
tp8865
Rp8866
ag2
(g3
(S'S5'
p8867
I0
I1
tp8868
Rp8869
(I3
S'|'
p8870
NNNI5
I1
I0
tp8871
bS'HARD1'
p8872
tp8873
Rp8874
ag2
(g3
(S'S5'
p8875
I0
I1
tp8876
Rp8877
(I3
S'|'
p8878
NNNI5
I1
I0
tp8879
bS'HARD1'
p8880
tp8881
Rp8882
ag2
(g3
(S'S5'
p8883
I0
I1
tp8884
Rp8885
(I3
S'|'
p8886
NNNI5
I1
I0
tp8887
bS'HARD1'
p8888
tp8889
Rp8890
ag2
(g3
(S'S5'
p8891
I0
I1
tp8892
Rp8893
(I3
S'|'
p8894
NNNI5
I1
I0
tp8895
bS'HARD1'
p8896
tp8897
Rp8898
ag2
(g3
(S'S5'
p8899
I0
I1
tp8900
Rp8901
(I3
S'|'
p8902
NNNI5
I1
I0
tp8903
bS'HARD1'
p8904
tp8905
Rp8906
ag2
(g3
(S'S5'
p8907
I0
I1
tp8908
Rp8909
(I3
S'|'
p8910
NNNI5
I1
I0
tp8911
bS'HARD1'
p8912
tp8913
Rp8914
ag2
(g3
(S'S5'
p8915
I0
I1
tp8916
Rp8917
(I3
S'|'
p8918
NNNI5
I1
I0
tp8919
bS'HARD1'
p8920
tp8921
Rp8922
ag2
(g3
(S'S5'
p8923
I0
I1
tp8924
Rp8925
(I3
S'|'
p8926
NNNI5
I1
I0
tp8927
bS'HARD1'
p8928
tp8929
Rp8930
ag2
(g3
(S'S5'
p8931
I0
I1
tp8932
Rp8933
(I3
S'|'
p8934
NNNI5
I1
I0
tp8935
bS'HARD1'
p8936
tp8937
Rp8938
ag2
(g3
(S'S5'
p8939
I0
I1
tp8940
Rp8941
(I3
S'|'
p8942
NNNI5
I1
I0
tp8943
bS'HARD1'
p8944
tp8945
Rp8946
ag2
(g3
(S'S5'
p8947
I0
I1
tp8948
Rp8949
(I3
S'|'
p8950
NNNI5
I1
I0
tp8951
bS'HARD1'
p8952
tp8953
Rp8954
ag2
(g3
(S'S5'
p8955
I0
I1
tp8956
Rp8957
(I3
S'|'
p8958
NNNI5
I1
I0
tp8959
bS'HARD1'
p8960
tp8961
Rp8962
ag2
(g3
(S'S5'
p8963
I0
I1
tp8964
Rp8965
(I3
S'|'
p8966
NNNI5
I1
I0
tp8967
bS'HARD1'
p8968
tp8969
Rp8970
ag2
(g3
(S'S5'
p8971
I0
I1
tp8972
Rp8973
(I3
S'|'
p8974
NNNI5
I1
I0
tp8975
bS'HARD1'
p8976
tp8977
Rp8978
ag2
(g3
(S'S5'
p8979
I0
I1
tp8980
Rp8981
(I3
S'|'
p8982
NNNI5
I1
I0
tp8983
bS'HARD1'
p8984
tp8985
Rp8986
ag2
(g3
(S'S5'
p8987
I0
I1
tp8988
Rp8989
(I3
S'|'
p8990
NNNI5
I1
I0
tp8991
bS'HARD1'
p8992
tp8993
Rp8994
ag2
(g3
(S'S5'
p8995
I0
I1
tp8996
Rp8997
(I3
S'|'
p8998
NNNI5
I1
I0
tp8999
bS'HARD1'
p9000
tp9001
Rp9002
ag2
(g3
(S'S5'
p9003
I0
I1
tp9004
Rp9005
(I3
S'|'
p9006
NNNI5
I1
I0
tp9007
bS'HARD1'
p9008
tp9009
Rp9010
ag2
(g3
(S'S5'
p9011
I0
I1
tp9012
Rp9013
(I3
S'|'
p9014
NNNI5
I1
I0
tp9015
bS'HARD1'
p9016
tp9017
Rp9018
ag2
(g3
(S'S5'
p9019
I0
I1
tp9020
Rp9021
(I3
S'|'
p9022
NNNI5
I1
I0
tp9023
bS'HARD1'
p9024
tp9025
Rp9026
ag2
(g3
(S'S5'
p9027
I0
I1
tp9028
Rp9029
(I3
S'|'
p9030
NNNI5
I1
I0
tp9031
bS'HARD1'
p9032
tp9033
Rp9034
ag2
(g3
(S'S5'
p9035
I0
I1
tp9036
Rp9037
(I3
S'|'
p9038
NNNI5
I1
I0
tp9039
bS'HARD1'
p9040
tp9041
Rp9042
ag2
(g3
(S'S5'
p9043
I0
I1
tp9044
Rp9045
(I3
S'|'
p9046
NNNI5
I1
I0
tp9047
bS'HARD1'
p9048
tp9049
Rp9050
ag2
(g3
(S'S5'
p9051
I0
I1
tp9052
Rp9053
(I3
S'|'
p9054
NNNI5
I1
I0
tp9055
bS'HARD1'
p9056
tp9057
Rp9058
ag2
(g3
(S'S5'
p9059
I0
I1
tp9060
Rp9061
(I3
S'|'
p9062
NNNI5
I1
I0
tp9063
bS'HARD1'
p9064
tp9065
Rp9066
ag2
(g3
(S'S5'
p9067
I0
I1
tp9068
Rp9069
(I3
S'|'
p9070
NNNI5
I1
I0
tp9071
bS'HARD1'
p9072
tp9073
Rp9074
ag2
(g3
(S'S5'
p9075
I0
I1
tp9076
Rp9077
(I3
S'|'
p9078
NNNI5
I1
I0
tp9079
bS'HARD1'
p9080
tp9081
Rp9082
ag2
(g3
(S'S5'
p9083
I0
I1
tp9084
Rp9085
(I3
S'|'
p9086
NNNI5
I1
I0
tp9087
bS'HARD1'
p9088
tp9089
Rp9090
ag2
(g3
(S'S5'
p9091
I0
I1
tp9092
Rp9093
(I3
S'|'
p9094
NNNI5
I1
I0
tp9095
bS'HARD1'
p9096
tp9097
Rp9098
ag2
(g3
(S'S5'
p9099
I0
I1
tp9100
Rp9101
(I3
S'|'
p9102
NNNI5
I1
I0
tp9103
bS'HARD1'
p9104
tp9105
Rp9106
ag2
(g3
(S'S5'
p9107
I0
I1
tp9108
Rp9109
(I3
S'|'
p9110
NNNI5
I1
I0
tp9111
bS'HARD1'
p9112
tp9113
Rp9114
ag2
(g3
(S'S5'
p9115
I0
I1
tp9116
Rp9117
(I3
S'|'
p9118
NNNI5
I1
I0
tp9119
bS'HARD1'
p9120
tp9121
Rp9122
ag2
(g3
(S'S5'
p9123
I0
I1
tp9124
Rp9125
(I3
S'|'
p9126
NNNI5
I1
I0
tp9127
bS'HARD1'
p9128
tp9129
Rp9130
ag2
(g3
(S'S5'
p9131
I0
I1
tp9132
Rp9133
(I3
S'|'
p9134
NNNI5
I1
I0
tp9135
bS'HARD1'
p9136
tp9137
Rp9138
ag2
(g3
(S'S5'
p9139
I0
I1
tp9140
Rp9141
(I3
S'|'
p9142
NNNI5
I1
I0
tp9143
bS'HARD1'
p9144
tp9145
Rp9146
ag2
(g3
(S'S5'
p9147
I0
I1
tp9148
Rp9149
(I3
S'|'
p9150
NNNI5
I1
I0
tp9151
bS'HARD1'
p9152
tp9153
Rp9154
ag2
(g3
(S'S5'
p9155
I0
I1
tp9156
Rp9157
(I3
S'|'
p9158
NNNI5
I1
I0
tp9159
bS'HARD1'
p9160
tp9161
Rp9162
ag2
(g3
(S'S5'
p9163
I0
I1
tp9164
Rp9165
(I3
S'|'
p9166
NNNI5
I1
I0
tp9167
bS'HARD1'
p9168
tp9169
Rp9170
ag2
(g3
(S'S5'
p9171
I0
I1
tp9172
Rp9173
(I3
S'|'
p9174
NNNI5
I1
I0
tp9175
bS'HARD1'
p9176
tp9177
Rp9178
ag2
(g3
(S'S5'
p9179
I0
I1
tp9180
Rp9181
(I3
S'|'
p9182
NNNI5
I1
I0
tp9183
bS'HARD1'
p9184
tp9185
Rp9186
ag2
(g3
(S'S5'
p9187
I0
I1
tp9188
Rp9189
(I3
S'|'
p9190
NNNI5
I1
I0
tp9191
bS'HARD1'
p9192
tp9193
Rp9194
ag2
(g3
(S'S5'
p9195
I0
I1
tp9196
Rp9197
(I3
S'|'
p9198
NNNI5
I1
I0
tp9199
bS'HARD1'
p9200
tp9201
Rp9202
ag2
(g3
(S'S5'
p9203
I0
I1
tp9204
Rp9205
(I3
S'|'
p9206
NNNI5
I1
I0
tp9207
bS'HARD1'
p9208
tp9209
Rp9210
ag2
(g3
(S'S5'
p9211
I0
I1
tp9212
Rp9213
(I3
S'|'
p9214
NNNI5
I1
I0
tp9215
bS'HARD1'
p9216
tp9217
Rp9218
ag2
(g3
(S'S5'
p9219
I0
I1
tp9220
Rp9221
(I3
S'|'
p9222
NNNI5
I1
I0
tp9223
bS'HARD1'
p9224
tp9225
Rp9226
ag2
(g3
(S'S5'
p9227
I0
I1
tp9228
Rp9229
(I3
S'|'
p9230
NNNI5
I1
I0
tp9231
bS'HARD1'
p9232
tp9233
Rp9234
ag2
(g3
(S'S5'
p9235
I0
I1
tp9236
Rp9237
(I3
S'|'
p9238
NNNI5
I1
I0
tp9239
bS'HARD1'
p9240
tp9241
Rp9242
ag2
(g3
(S'S5'
p9243
I0
I1
tp9244
Rp9245
(I3
S'|'
p9246
NNNI5
I1
I0
tp9247
bS'HARD1'
p9248
tp9249
Rp9250
ag2
(g3
(S'S5'
p9251
I0
I1
tp9252
Rp9253
(I3
S'|'
p9254
NNNI5
I1
I0
tp9255
bS'HARD1'
p9256
tp9257
Rp9258
ag2
(g3
(S'S5'
p9259
I0
I1
tp9260
Rp9261
(I3
S'|'
p9262
NNNI5
I1
I0
tp9263
bS'HARD1'
p9264
tp9265
Rp9266
ag2
(g3
(S'S5'
p9267
I0
I1
tp9268
Rp9269
(I3
S'|'
p9270
NNNI5
I1
I0
tp9271
bS'HARD1'
p9272
tp9273
Rp9274
ag2
(g3
(S'S5'
p9275
I0
I1
tp9276
Rp9277
(I3
S'|'
p9278
NNNI5
I1
I0
tp9279
bS'HARD1'
p9280
tp9281
Rp9282
ag2
(g3
(S'S5'
p9283
I0
I1
tp9284
Rp9285
(I3
S'|'
p9286
NNNI5
I1
I0
tp9287
bS'HARD1'
p9288
tp9289
Rp9290
ag2
(g3
(S'S5'
p9291
I0
I1
tp9292
Rp9293
(I3
S'|'
p9294
NNNI5
I1
I0
tp9295
bS'HARD1'
p9296
tp9297
Rp9298
ag2
(g3
(S'S5'
p9299
I0
I1
tp9300
Rp9301
(I3
S'|'
p9302
NNNI5
I1
I0
tp9303
bS'HARD1'
p9304
tp9305
Rp9306
ag2
(g3
(S'S5'
p9307
I0
I1
tp9308
Rp9309
(I3
S'|'
p9310
NNNI5
I1
I0
tp9311
bS'HARD1'
p9312
tp9313
Rp9314
ag2
(g3
(S'S5'
p9315
I0
I1
tp9316
Rp9317
(I3
S'|'
p9318
NNNI5
I1
I0
tp9319
bS'HARD1'
p9320
tp9321
Rp9322
ag2
(g3
(S'S5'
p9323
I0
I1
tp9324
Rp9325
(I3
S'|'
p9326
NNNI5
I1
I0
tp9327
bS'HARD1'
p9328
tp9329
Rp9330
ag2
(g3
(S'S5'
p9331
I0
I1
tp9332
Rp9333
(I3
S'|'
p9334
NNNI5
I1
I0
tp9335
bS'HARD1'
p9336
tp9337
Rp9338
ag2
(g3
(S'S5'
p9339
I0
I1
tp9340
Rp9341
(I3
S'|'
p9342
NNNI5
I1
I0
tp9343
bS'HARD1'
p9344
tp9345
Rp9346
ag2
(g3
(S'S5'
p9347
I0
I1
tp9348
Rp9349
(I3
S'|'
p9350
NNNI5
I1
I0
tp9351
bS'HARD1'
p9352
tp9353
Rp9354
ag2
(g3
(S'S5'
p9355
I0
I1
tp9356
Rp9357
(I3
S'|'
p9358
NNNI5
I1
I0
tp9359
bS'HARD1'
p9360
tp9361
Rp9362
ag2
(g3
(S'S5'
p9363
I0
I1
tp9364
Rp9365
(I3
S'|'
p9366
NNNI5
I1
I0
tp9367
bS'HARD1'
p9368
tp9369
Rp9370
ag2
(g3
(S'S5'
p9371
I0
I1
tp9372
Rp9373
(I3
S'|'
p9374
NNNI5
I1
I0
tp9375
bS'HARD1'
p9376
tp9377
Rp9378
ag2
(g3
(S'S5'
p9379
I0
I1
tp9380
Rp9381
(I3
S'|'
p9382
NNNI5
I1
I0
tp9383
bS'HARD1'
p9384
tp9385
Rp9386
ag2
(g3
(S'S5'
p9387
I0
I1
tp9388
Rp9389
(I3
S'|'
p9390
NNNI5
I1
I0
tp9391
bS'HARD1'
p9392
tp9393
Rp9394
ag2
(g3
(S'S5'
p9395
I0
I1
tp9396
Rp9397
(I3
S'|'
p9398
NNNI5
I1
I0
tp9399
bS'HARD1'
p9400
tp9401
Rp9402
ag2
(g3
(S'S5'
p9403
I0
I1
tp9404
Rp9405
(I3
S'|'
p9406
NNNI5
I1
I0
tp9407
bS'HARD1'
p9408
tp9409
Rp9410
ag2
(g3
(S'S5'
p9411
I0
I1
tp9412
Rp9413
(I3
S'|'
p9414
NNNI5
I1
I0
tp9415
bS'HARD1'
p9416
tp9417
Rp9418
ag2
(g3
(S'S5'
p9419
I0
I1
tp9420
Rp9421
(I3
S'|'
p9422
NNNI5
I1
I0
tp9423
bS'HARD1'
p9424
tp9425
Rp9426
ag2
(g3
(S'S5'
p9427
I0
I1
tp9428
Rp9429
(I3
S'|'
p9430
NNNI5
I1
I0
tp9431
bS'HARD1'
p9432
tp9433
Rp9434
ag2
(g3
(S'S5'
p9435
I0
I1
tp9436
Rp9437
(I3
S'|'
p9438
NNNI5
I1
I0
tp9439
bS'HARD1'
p9440
tp9441
Rp9442
ag2
(g3
(S'S5'
p9443
I0
I1
tp9444
Rp9445
(I3
S'|'
p9446
NNNI5
I1
I0
tp9447
bS'HARD1'
p9448
tp9449
Rp9450
ag2
(g3
(S'S5'
p9451
I0
I1
tp9452
Rp9453
(I3
S'|'
p9454
NNNI5
I1
I0
tp9455
bS'HARD1'
p9456
tp9457
Rp9458
ag2
(g3
(S'S5'
p9459
I0
I1
tp9460
Rp9461
(I3
S'|'
p9462
NNNI5
I1
I0
tp9463
bS'HARD1'
p9464
tp9465
Rp9466
ag2
(g3
(S'S5'
p9467
I0
I1
tp9468
Rp9469
(I3
S'|'
p9470
NNNI5
I1
I0
tp9471
bS'HARD1'
p9472
tp9473
Rp9474
ag2
(g3
(S'S5'
p9475
I0
I1
tp9476
Rp9477
(I3
S'|'
p9478
NNNI5
I1
I0
tp9479
bS'HARD1'
p9480
tp9481
Rp9482
ag2
(g3
(S'S5'
p9483
I0
I1
tp9484
Rp9485
(I3
S'|'
p9486
NNNI5
I1
I0
tp9487
bS'HARD1'
p9488
tp9489
Rp9490
ag2
(g3
(S'S5'
p9491
I0
I1
tp9492
Rp9493
(I3
S'|'
p9494
NNNI5
I1
I0
tp9495
bS'HARD1'
p9496
tp9497
Rp9498
ag2
(g3
(S'S5'
p9499
I0
I1
tp9500
Rp9501
(I3
S'|'
p9502
NNNI5
I1
I0
tp9503
bS'HARD1'
p9504
tp9505
Rp9506
ag2
(g3
(S'S5'
p9507
I0
I1
tp9508
Rp9509
(I3
S'|'
p9510
NNNI5
I1
I0
tp9511
bS'HARD1'
p9512
tp9513
Rp9514
ag2
(g3
(S'S5'
p9515
I0
I1
tp9516
Rp9517
(I3
S'|'
p9518
NNNI5
I1
I0
tp9519
bS'HARD1'
p9520
tp9521
Rp9522
ag2
(g3
(S'S5'
p9523
I0
I1
tp9524
Rp9525
(I3
S'|'
p9526
NNNI5
I1
I0
tp9527
bS'HARD1'
p9528
tp9529
Rp9530
ag2
(g3
(S'S5'
p9531
I0
I1
tp9532
Rp9533
(I3
S'|'
p9534
NNNI5
I1
I0
tp9535
bS'HARD1'
p9536
tp9537
Rp9538
ag2
(g3
(S'S5'
p9539
I0
I1
tp9540
Rp9541
(I3
S'|'
p9542
NNNI5
I1
I0
tp9543
bS'HARD1'
p9544
tp9545
Rp9546
ag2
(g3
(S'S5'
p9547
I0
I1
tp9548
Rp9549
(I3
S'|'
p9550
NNNI5
I1
I0
tp9551
bS'HARD1'
p9552
tp9553
Rp9554
ag2
(g3
(S'S5'
p9555
I0
I1
tp9556
Rp9557
(I3
S'|'
p9558
NNNI5
I1
I0
tp9559
bS'HARD1'
p9560
tp9561
Rp9562
ag2
(g3
(S'S5'
p9563
I0
I1
tp9564
Rp9565
(I3
S'|'
p9566
NNNI5
I1
I0
tp9567
bS'HARD1'
p9568
tp9569
Rp9570
ag2
(g3
(S'S5'
p9571
I0
I1
tp9572
Rp9573
(I3
S'|'
p9574
NNNI5
I1
I0
tp9575
bS'HARD1'
p9576
tp9577
Rp9578
ag2
(g3
(S'S5'
p9579
I0
I1
tp9580
Rp9581
(I3
S'|'
p9582
NNNI5
I1
I0
tp9583
bS'HARD1'
p9584
tp9585
Rp9586
ag2
(g3
(S'S5'
p9587
I0
I1
tp9588
Rp9589
(I3
S'|'
p9590
NNNI5
I1
I0
tp9591
bS'HARD1'
p9592
tp9593
Rp9594
ag2
(g3
(S'S5'
p9595
I0
I1
tp9596
Rp9597
(I3
S'|'
p9598
NNNI5
I1
I0
tp9599
bS'HARD1'
p9600
tp9601
Rp9602
ag2
(g3
(S'S5'
p9603
I0
I1
tp9604
Rp9605
(I3
S'|'
p9606
NNNI5
I1
I0
tp9607
bS'HARD1'
p9608
tp9609
Rp9610
ag2
(g3
(S'S5'
p9611
I0
I1
tp9612
Rp9613
(I3
S'|'
p9614
NNNI5
I1
I0
tp9615
bS'HARD1'
p9616
tp9617
Rp9618
ag2
(g3
(S'S5'
p9619
I0
I1
tp9620
Rp9621
(I3
S'|'
p9622
NNNI5
I1
I0
tp9623
bS'HARD1'
p9624
tp9625
Rp9626
ag2
(g3
(S'S5'
p9627
I0
I1
tp9628
Rp9629
(I3
S'|'
p9630
NNNI5
I1
I0
tp9631
bS'HARD1'
p9632
tp9633
Rp9634
ag2
(g3
(S'S5'
p9635
I0
I1
tp9636
Rp9637
(I3
S'|'
p9638
NNNI5
I1
I0
tp9639
bS'HARD1'
p9640
tp9641
Rp9642
ag2
(g3
(S'S5'
p9643
I0
I1
tp9644
Rp9645
(I3
S'|'
p9646
NNNI5
I1
I0
tp9647
bS'HARD1'
p9648
tp9649
Rp9650
ag2
(g3
(S'S5'
p9651
I0
I1
tp9652
Rp9653
(I3
S'|'
p9654
NNNI5
I1
I0
tp9655
bS'HARD1'
p9656
tp9657
Rp9658
ag2
(g3
(S'S5'
p9659
I0
I1
tp9660
Rp9661
(I3
S'|'
p9662
NNNI5
I1
I0
tp9663
bS'HARD1'
p9664
tp9665
Rp9666
ag2
(g3
(S'S5'
p9667
I0
I1
tp9668
Rp9669
(I3
S'|'
p9670
NNNI5
I1
I0
tp9671
bS'HARD1'
p9672
tp9673
Rp9674
ag2
(g3
(S'S5'
p9675
I0
I1
tp9676
Rp9677
(I3
S'|'
p9678
NNNI5
I1
I0
tp9679
bS'HARD1'
p9680
tp9681
Rp9682
ag2
(g3
(S'S5'
p9683
I0
I1
tp9684
Rp9685
(I3
S'|'
p9686
NNNI5
I1
I0
tp9687
bS'HARD1'
p9688
tp9689
Rp9690
ag2
(g3
(S'S5'
p9691
I0
I1
tp9692
Rp9693
(I3
S'|'
p9694
NNNI5
I1
I0
tp9695
bS'HARD1'
p9696
tp9697
Rp9698
ag2
(g3
(S'S5'
p9699
I0
I1
tp9700
Rp9701
(I3
S'|'
p9702
NNNI5
I1
I0
tp9703
bS'HARD1'
p9704
tp9705
Rp9706
ag2
(g3
(S'S5'
p9707
I0
I1
tp9708
Rp9709
(I3
S'|'
p9710
NNNI5
I1
I0
tp9711
bS'HARD3'
p9712
tp9713
Rp9714
ag2
(g3
(S'S5'
p9715
I0
I1
tp9716
Rp9717
(I3
S'|'
p9718
NNNI5
I1
I0
tp9719
bS'HARD1'
p9720
tp9721
Rp9722
ag2
(g3
(S'S5'
p9723
I0
I1
tp9724
Rp9725
(I3
S'|'
p9726
NNNI5
I1
I0
tp9727
bS'HARD1'
p9728
tp9729
Rp9730
ag2
(g3
(S'S5'
p9731
I0
I1
tp9732
Rp9733
(I3
S'|'
p9734
NNNI5
I1
I0
tp9735
bS'HARD1'
p9736
tp9737
Rp9738
ag2
(g3
(S'S5'
p9739
I0
I1
tp9740
Rp9741
(I3
S'|'
p9742
NNNI5
I1
I0
tp9743
bS'HARD2'
p9744
tp9745
Rp9746
ag2
(g3
(S'S5'
p9747
I0
I1
tp9748
Rp9749
(I3
S'|'
p9750
NNNI5
I1
I0
tp9751
bS'HARD1'
p9752
tp9753
Rp9754
ag2
(g3
(S'S5'
p9755
I0
I1
tp9756
Rp9757
(I3
S'|'
p9758
NNNI5
I1
I0
tp9759
bS'HARD2'
p9760
tp9761
Rp9762
ag2
(g3
(S'S5'
p9763
I0
I1
tp9764
Rp9765
(I3
S'|'
p9766
NNNI5
I1
I0
tp9767
bS'HARD2'
p9768
tp9769
Rp9770
ag2
(g3
(S'S5'
p9771
I0
I1
tp9772
Rp9773
(I3
S'|'
p9774
NNNI5
I1
I0
tp9775
bS'HARD2'
p9776
tp9777
Rp9778
ag2
(g3
(S'S5'
p9779
I0
I1
tp9780
Rp9781
(I3
S'|'
p9782
NNNI5
I1
I0
tp9783
bS'HARD1'
p9784
tp9785
Rp9786
ag2
(g3
(S'S5'
p9787
I0
I1
tp9788
Rp9789
(I3
S'|'
p9790
NNNI5
I1
I0
tp9791
bS'HARD2'
p9792
tp9793
Rp9794
ag2
(g3
(S'S5'
p9795
I0
I1
tp9796
Rp9797
(I3
S'|'
p9798
NNNI5
I1
I0
tp9799
bS'HARD1'
p9800
tp9801
Rp9802
ag2
(g3
(S'S5'
p9803
I0
I1
tp9804
Rp9805
(I3
S'|'
p9806
NNNI5
I1
I0
tp9807
bS'HARD2'
p9808
tp9809
Rp9810
ag2
(g3
(S'S5'
p9811
I0
I1
tp9812
Rp9813
(I3
S'|'
p9814
NNNI5
I1
I0
tp9815
bS'HARD2'
p9816
tp9817
Rp9818
ag2
(g3
(S'S5'
p9819
I0
I1
tp9820
Rp9821
(I3
S'|'
p9822
NNNI5
I1
I0
tp9823
bS'HARD1'
p9824
tp9825
Rp9826
ag2
(g3
(S'S5'
p9827
I0
I1
tp9828
Rp9829
(I3
S'|'
p9830
NNNI5
I1
I0
tp9831
bS'HARD1'
p9832
tp9833
Rp9834
ag2
(g3
(S'S5'
p9835
I0
I1
tp9836
Rp9837
(I3
S'|'
p9838
NNNI5
I1
I0
tp9839
bS'HARD1'
p9840
tp9841
Rp9842
ag2
(g3
(S'S5'
p9843
I0
I1
tp9844
Rp9845
(I3
S'|'
p9846
NNNI5
I1
I0
tp9847
bS'HARD2'
p9848
tp9849
Rp9850
ag2
(g3
(S'S5'
p9851
I0
I1
tp9852
Rp9853
(I3
S'|'
p9854
NNNI5
I1
I0
tp9855
bS'HARD1'
p9856
tp9857
Rp9858
ag2
(g3
(S'S5'
p9859
I0
I1
tp9860
Rp9861
(I3
S'|'
p9862
NNNI5
I1
I0
tp9863
bS'HARD1'
p9864
tp9865
Rp9866
ag2
(g3
(S'S5'
p9867
I0
I1
tp9868
Rp9869
(I3
S'|'
p9870
NNNI5
I1
I0
tp9871
bS'HARD1'
p9872
tp9873
Rp9874
ag2
(g3
(S'S5'
p9875
I0
I1
tp9876
Rp9877
(I3
S'|'
p9878
NNNI5
I1
I0
tp9879
bS'HARD2'
p9880
tp9881
Rp9882
ag2
(g3
(S'S5'
p9883
I0
I1
tp9884
Rp9885
(I3
S'|'
p9886
NNNI5
I1
I0
tp9887
bS'HARD1'
p9888
tp9889
Rp9890
ag2
(g3
(S'S5'
p9891
I0
I1
tp9892
Rp9893
(I3
S'|'
p9894
NNNI5
I1
I0
tp9895
bS'HARD2'
p9896
tp9897
Rp9898
ag2
(g3
(S'S5'
p9899
I0
I1
tp9900
Rp9901
(I3
S'|'
p9902
NNNI5
I1
I0
tp9903
bS'HARD1'
p9904
tp9905
Rp9906
ag2
(g3
(S'S5'
p9907
I0
I1
tp9908
Rp9909
(I3
S'|'
p9910
NNNI5
I1
I0
tp9911
bS'HARD2'
p9912
tp9913
Rp9914
ag2
(g3
(S'S5'
p9915
I0
I1
tp9916
Rp9917
(I3
S'|'
p9918
NNNI5
I1
I0
tp9919
bS'HARD3'
p9920
tp9921
Rp9922
ag2
(g3
(S'S5'
p9923
I0
I1
tp9924
Rp9925
(I3
S'|'
p9926
NNNI5
I1
I0
tp9927
bS'HARD1'
p9928
tp9929
Rp9930
ag2
(g3
(S'S5'
p9931
I0
I1
tp9932
Rp9933
(I3
S'|'
p9934
NNNI5
I1
I0
tp9935
bS'HARD1'
p9936
tp9937
Rp9938
ag2
(g3
(S'S5'
p9939
I0
I1
tp9940
Rp9941
(I3
S'|'
p9942
NNNI5
I1
I0
tp9943
bS'HARD1'
p9944
tp9945
Rp9946
ag2
(g3
(S'S5'
p9947
I0
I1
tp9948
Rp9949
(I3
S'|'
p9950
NNNI5
I1
I0
tp9951
bS'HARD2'
p9952
tp9953
Rp9954
ag2
(g3
(S'S5'
p9955
I0
I1
tp9956
Rp9957
(I3
S'|'
p9958
NNNI5
I1
I0
tp9959
bS'HARD1'
p9960
tp9961
Rp9962
ag2
(g3
(S'S5'
p9963
I0
I1
tp9964
Rp9965
(I3
S'|'
p9966
NNNI5
I1
I0
tp9967
bS'HARD1'
p9968
tp9969
Rp9970
ag2
(g3
(S'S5'
p9971
I0
I1
tp9972
Rp9973
(I3
S'|'
p9974
NNNI5
I1
I0
tp9975
bS'HARD2'
p9976
tp9977
Rp9978
ag2
(g3
(S'S5'
p9979
I0
I1
tp9980
Rp9981
(I3
S'|'
p9982
NNNI5
I1
I0
tp9983
bS'HARD2'
p9984
tp9985
Rp9986
ag2
(g3
(S'S5'
p9987
I0
I1
tp9988
Rp9989
(I3
S'|'
p9990
NNNI5
I1
I0
tp9991
bS'HARD2'
p9992
tp9993
Rp9994
ag2
(g3
(S'S5'
p9995
I0
I1
tp9996
Rp9997
(I3
S'|'
p9998
NNNI5
I1
I0
tp9999
bS'HARD1'
p10000
tp10001
Rp10002
ag2
(g3
(S'S5'
p10003
I0
I1
tp10004
Rp10005
(I3
S'|'
p10006
NNNI5
I1
I0
tp10007
bS'HARD1'
p10008
tp10009
Rp10010
ag2
(g3
(S'S5'
p10011
I0
I1
tp10012
Rp10013
(I3
S'|'
p10014
NNNI5
I1
I0
tp10015
bS'HARD2'
p10016
tp10017
Rp10018
ag2
(g3
(S'S5'
p10019
I0
I1
tp10020
Rp10021
(I3
S'|'
p10022
NNNI5
I1
I0
tp10023
bS'HARD1'
p10024
tp10025
Rp10026
ag2
(g3
(S'S5'
p10027
I0
I1
tp10028
Rp10029
(I3
S'|'
p10030
NNNI5
I1
I0
tp10031
bS'HARD2'
p10032
tp10033
Rp10034
ag2
(g3
(S'S5'
p10035
I0
I1
tp10036
Rp10037
(I3
S'|'
p10038
NNNI5
I1
I0
tp10039
bS'HARD1'
p10040
tp10041
Rp10042
ag2
(g3
(S'S5'
p10043
I0
I1
tp10044
Rp10045
(I3
S'|'
p10046
NNNI5
I1
I0
tp10047
bS'HARD1'
p10048
tp10049
Rp10050
ag2
(g3
(S'S5'
p10051
I0
I1
tp10052
Rp10053
(I3
S'|'
p10054
NNNI5
I1
I0
tp10055
bS'HARD2'
p10056
tp10057
Rp10058
ag2
(g3
(S'S5'
p10059
I0
I1
tp10060
Rp10061
(I3
S'|'
p10062
NNNI5
I1
I0
tp10063
bS'HARD2'
p10064
tp10065
Rp10066
ag2
(g3
(S'S5'
p10067
I0
I1
tp10068
Rp10069
(I3
S'|'
p10070
NNNI5
I1
I0
tp10071
bS'HARD2'
p10072
tp10073
Rp10074
ag2
(g3
(S'S5'
p10075
I0
I1
tp10076
Rp10077
(I3
S'|'
p10078
NNNI5
I1
I0
tp10079
bS'HARD2'
p10080
tp10081
Rp10082
ag2
(g3
(S'S5'
p10083
I0
I1
tp10084
Rp10085
(I3
S'|'
p10086
NNNI5
I1
I0
tp10087
bS'HARD2'
p10088
tp10089
Rp10090
ag2
(g3
(S'S5'
p10091
I0
I1
tp10092
Rp10093
(I3
S'|'
p10094
NNNI5
I1
I0
tp10095
bS'HARD1'
p10096
tp10097
Rp10098
ag2
(g3
(S'S5'
p10099
I0
I1
tp10100
Rp10101
(I3
S'|'
p10102
NNNI5
I1
I0
tp10103
bS'HARD1'
p10104
tp10105
Rp10106
ag2
(g3
(S'S5'
p10107
I0
I1
tp10108
Rp10109
(I3
S'|'
p10110
NNNI5
I1
I0
tp10111
bS'HARD1'
p10112
tp10113
Rp10114
ag2
(g3
(S'S5'
p10115
I0
I1
tp10116
Rp10117
(I3
S'|'
p10118
NNNI5
I1
I0
tp10119
bS'HARD1'
p10120
tp10121
Rp10122
ag2
(g3
(S'S5'
p10123
I0
I1
tp10124
Rp10125
(I3
S'|'
p10126
NNNI5
I1
I0
tp10127
bS'HARD2'
p10128
tp10129
Rp10130
ag2
(g3
(S'S5'
p10131
I0
I1
tp10132
Rp10133
(I3
S'|'
p10134
NNNI5
I1
I0
tp10135
bS'HARD1'
p10136
tp10137
Rp10138
ag2
(g3
(S'S5'
p10139
I0
I1
tp10140
Rp10141
(I3
S'|'
p10142
NNNI5
I1
I0
tp10143
bS'HARD1'
p10144
tp10145
Rp10146
ag2
(g3
(S'S5'
p10147
I0
I1
tp10148
Rp10149
(I3
S'|'
p10150
NNNI5
I1
I0
tp10151
bS'HARD3'
p10152
tp10153
Rp10154
ag2
(g3
(S'S5'
p10155
I0
I1
tp10156
Rp10157
(I3
S'|'
p10158
NNNI5
I1
I0
tp10159
bS'HARD1'
p10160
tp10161
Rp10162
ag2
(g3
(S'S5'
p10163
I0
I1
tp10164
Rp10165
(I3
S'|'
p10166
NNNI5
I1
I0
tp10167
bS'HARD1'
p10168
tp10169
Rp10170
ag2
(g3
(S'S5'
p10171
I0
I1
tp10172
Rp10173
(I3
S'|'
p10174
NNNI5
I1
I0
tp10175
bS'HARD1'
p10176
tp10177
Rp10178
ag2
(g3
(S'S5'
p10179
I0
I1
tp10180
Rp10181
(I3
S'|'
p10182
NNNI5
I1
I0
tp10183
bS'HARD1'
p10184
tp10185
Rp10186
ag2
(g3
(S'S5'
p10187
I0
I1
tp10188
Rp10189
(I3
S'|'
p10190
NNNI5
I1
I0
tp10191
bS'HARD1'
p10192
tp10193
Rp10194
ag2
(g3
(S'S5'
p10195
I0
I1
tp10196
Rp10197
(I3
S'|'
p10198
NNNI5
I1
I0
tp10199
bS'HARD3'
p10200
tp10201
Rp10202
ag2
(g3
(S'S5'
p10203
I0
I1
tp10204
Rp10205
(I3
S'|'
p10206
NNNI5
I1
I0
tp10207
bS'HARD1'
p10208
tp10209
Rp10210
ag2
(g3
(S'S5'
p10211
I0
I1
tp10212
Rp10213
(I3
S'|'
p10214
NNNI5
I1
I0
tp10215
bS'HARD1'
p10216
tp10217
Rp10218
ag2
(g3
(S'S5'
p10219
I0
I1
tp10220
Rp10221
(I3
S'|'
p10222
NNNI5
I1
I0
tp10223
bS'HARD1'
p10224
tp10225
Rp10226
ag2
(g3
(S'S5'
p10227
I0
I1
tp10228
Rp10229
(I3
S'|'
p10230
NNNI5
I1
I0
tp10231
bS'HARD1'
p10232
tp10233
Rp10234
ag2
(g3
(S'S5'
p10235
I0
I1
tp10236
Rp10237
(I3
S'|'
p10238
NNNI5
I1
I0
tp10239
bS'HARD1'
p10240
tp10241
Rp10242
ag2
(g3
(S'S5'
p10243
I0
I1
tp10244
Rp10245
(I3
S'|'
p10246
NNNI5
I1
I0
tp10247
bS'HARD2'
p10248
tp10249
Rp10250
ag2
(g3
(S'S5'
p10251
I0
I1
tp10252
Rp10253
(I3
S'|'
p10254
NNNI5
I1
I0
tp10255
bS'HARD2'
p10256
tp10257
Rp10258
ag2
(g3
(S'S5'
p10259
I0
I1
tp10260
Rp10261
(I3
S'|'
p10262
NNNI5
I1
I0
tp10263
bS'HARD1'
p10264
tp10265
Rp10266
ag2
(g3
(S'S5'
p10267
I0
I1
tp10268
Rp10269
(I3
S'|'
p10270
NNNI5
I1
I0
tp10271
bS'HARD1'
p10272
tp10273
Rp10274
ag2
(g3
(S'S5'
p10275
I0
I1
tp10276
Rp10277
(I3
S'|'
p10278
NNNI5
I1
I0
tp10279
bS'HARD1'
p10280
tp10281
Rp10282
ag2
(g3
(S'S5'
p10283
I0
I1
tp10284
Rp10285
(I3
S'|'
p10286
NNNI5
I1
I0
tp10287
bS'HARD1'
p10288
tp10289
Rp10290
ag2
(g3
(S'S5'
p10291
I0
I1
tp10292
Rp10293
(I3
S'|'
p10294
NNNI5
I1
I0
tp10295
bS'HARD1'
p10296
tp10297
Rp10298
ag2
(g3
(S'S5'
p10299
I0
I1
tp10300
Rp10301
(I3
S'|'
p10302
NNNI5
I1
I0
tp10303
bS'HARD1'
p10304
tp10305
Rp10306
ag2
(g3
(S'S5'
p10307
I0
I1
tp10308
Rp10309
(I3
S'|'
p10310
NNNI5
I1
I0
tp10311
bS'HARD1'
p10312
tp10313
Rp10314
ag2
(g3
(S'S5'
p10315
I0
I1
tp10316
Rp10317
(I3
S'|'
p10318
NNNI5
I1
I0
tp10319
bS'HARD1'
p10320
tp10321
Rp10322
ag2
(g3
(S'S5'
p10323
I0
I1
tp10324
Rp10325
(I3
S'|'
p10326
NNNI5
I1
I0
tp10327
bS'HARD1'
p10328
tp10329
Rp10330
ag2
(g3
(S'S5'
p10331
I0
I1
tp10332
Rp10333
(I3
S'|'
p10334
NNNI5
I1
I0
tp10335
bS'HARD1'
p10336
tp10337
Rp10338
ag2
(g3
(S'S5'
p10339
I0
I1
tp10340
Rp10341
(I3
S'|'
p10342
NNNI5
I1
I0
tp10343
bS'HARD1'
p10344
tp10345
Rp10346
ag2
(g3
(S'S5'
p10347
I0
I1
tp10348
Rp10349
(I3
S'|'
p10350
NNNI5
I1
I0
tp10351
bS'HARD2'
p10352
tp10353
Rp10354
ag2
(g3
(S'S5'
p10355
I0
I1
tp10356
Rp10357
(I3
S'|'
p10358
NNNI5
I1
I0
tp10359
bS'HARD1'
p10360
tp10361
Rp10362
ag2
(g3
(S'S5'
p10363
I0
I1
tp10364
Rp10365
(I3
S'|'
p10366
NNNI5
I1
I0
tp10367
bS'HARD1'
p10368
tp10369
Rp10370
ag2
(g3
(S'S5'
p10371
I0
I1
tp10372
Rp10373
(I3
S'|'
p10374
NNNI5
I1
I0
tp10375
bS'HARD1'
p10376
tp10377
Rp10378
ag2
(g3
(S'S5'
p10379
I0
I1
tp10380
Rp10381
(I3
S'|'
p10382
NNNI5
I1
I0
tp10383
bS'HARD3'
p10384
tp10385
Rp10386
ag2
(g3
(S'S5'
p10387
I0
I1
tp10388
Rp10389
(I3
S'|'
p10390
NNNI5
I1
I0
tp10391
bS'HARD1'
p10392
tp10393
Rp10394
ag2
(g3
(S'S5'
p10395
I0
I1
tp10396
Rp10397
(I3
S'|'
p10398
NNNI5
I1
I0
tp10399
bS'HARD1'
p10400
tp10401
Rp10402
aa.