(lp0
(lp1
cnumpy.core.multiarray
scalar
p2
(cnumpy
dtype
p3
(S'S10'
p4
I0
I1
tp5
Rp6
(I3
S'|'
p7
NNNI10
I1
I0
tp8
bS'interest_5'
p9
tp10
Rp11
ag2
(g3
(S'S10'
p12
I0
I1
tp13
Rp14
(I3
S'|'
p15
NNNI10
I1
I0
tp16
bS'interest_6'
p17
tp18
Rp19
ag2
(g3
(S'S10'
p20
I0
I1
tp21
Rp22
(I3
S'|'
p23
NNNI10
I1
I0
tp24
bS'interest_6'
p25
tp26
Rp27
ag2
(g3
(S'S10'
p28
I0
I1
tp29
Rp30
(I3
S'|'
p31
NNNI10
I1
I0
tp32
bS'interest_4'
p33
tp34
Rp35
ag2
(g3
(S'S10'
p36
I0
I1
tp37
Rp38
(I3
S'|'
p39
NNNI10
I1
I0
tp40
bS'interest_6'
p41
tp42
Rp43
ag2
(g3
(S'S10'
p44
I0
I1
tp45
Rp46
(I3
S'|'
p47
NNNI10
I1
I0
tp48
bS'interest_6'
p49
tp50
Rp51
ag2
(g3
(S'S10'
p52
I0
I1
tp53
Rp54
(I3
S'|'
p55
NNNI10
I1
I0
tp56
bS'interest_6'
p57
tp58
Rp59
ag2
(g3
(S'S10'
p60
I0
I1
tp61
Rp62
(I3
S'|'
p63
NNNI10
I1
I0
tp64
bS'interest_6'
p65
tp66
Rp67
ag2
(g3
(S'S10'
p68
I0
I1
tp69
Rp70
(I3
S'|'
p71
NNNI10
I1
I0
tp72
bS'interest_6'
p73
tp74
Rp75
ag2
(g3
(S'S10'
p76
I0
I1
tp77
Rp78
(I3
S'|'
p79
NNNI10
I1
I0
tp80
bS'interest_6'
p81
tp82
Rp83
ag2
(g3
(S'S10'
p84
I0
I1
tp85
Rp86
(I3
S'|'
p87
NNNI10
I1
I0
tp88
bS'interest_5'
p89
tp90
Rp91
ag2
(g3
(S'S10'
p92
I0
I1
tp93
Rp94
(I3
S'|'
p95
NNNI10
I1
I0
tp96
bS'interest_1'
p97
tp98
Rp99
ag2
(g3
(S'S10'
p100
I0
I1
tp101
Rp102
(I3
S'|'
p103
NNNI10
I1
I0
tp104
bS'interest_6'
p105
tp106
Rp107
ag2
(g3
(S'S10'
p108
I0
I1
tp109
Rp110
(I3
S'|'
p111
NNNI10
I1
I0
tp112
bS'interest_5'
p113
tp114
Rp115
ag2
(g3
(S'S10'
p116
I0
I1
tp117
Rp118
(I3
S'|'
p119
NNNI10
I1
I0
tp120
bS'interest_5'
p121
tp122
Rp123
ag2
(g3
(S'S10'
p124
I0
I1
tp125
Rp126
(I3
S'|'
p127
NNNI10
I1
I0
tp128
bS'interest_6'
p129
tp130
Rp131
ag2
(g3
(S'S10'
p132
I0
I1
tp133
Rp134
(I3
S'|'
p135
NNNI10
I1
I0
tp136
bS'interest_5'
p137
tp138
Rp139
ag2
(g3
(S'S10'
p140
I0
I1
tp141
Rp142
(I3
S'|'
p143
NNNI10
I1
I0
tp144
bS'interest_5'
p145
tp146
Rp147
ag2
(g3
(S'S10'
p148
I0
I1
tp149
Rp150
(I3
S'|'
p151
NNNI10
I1
I0
tp152
bS'interest_4'
p153
tp154
Rp155
ag2
(g3
(S'S10'
p156
I0
I1
tp157
Rp158
(I3
S'|'
p159
NNNI10
I1
I0
tp160
bS'interest_6'
p161
tp162
Rp163
ag2
(g3
(S'S10'
p164
I0
I1
tp165
Rp166
(I3
S'|'
p167
NNNI10
I1
I0
tp168
bS'interest_5'
p169
tp170
Rp171
ag2
(g3
(S'S10'
p172
I0
I1
tp173
Rp174
(I3
S'|'
p175
NNNI10
I1
I0
tp176
bS'interest_6'
p177
tp178
Rp179
ag2
(g3
(S'S10'
p180
I0
I1
tp181
Rp182
(I3
S'|'
p183
NNNI10
I1
I0
tp184
bS'interest_1'
p185
tp186
Rp187
ag2
(g3
(S'S10'
p188
I0
I1
tp189
Rp190
(I3
S'|'
p191
NNNI10
I1
I0
tp192
bS'interest_6'
p193
tp194
Rp195
ag2
(g3
(S'S10'
p196
I0
I1
tp197
Rp198
(I3
S'|'
p199
NNNI10
I1
I0
tp200
bS'interest_1'
p201
tp202
Rp203
ag2
(g3
(S'S10'
p204
I0
I1
tp205
Rp206
(I3
S'|'
p207
NNNI10
I1
I0
tp208
bS'interest_5'
p209
tp210
Rp211
ag2
(g3
(S'S10'
p212
I0
I1
tp213
Rp214
(I3
S'|'
p215
NNNI10
I1
I0
tp216
bS'interest_6'
p217
tp218
Rp219
ag2
(g3
(S'S10'
p220
I0
I1
tp221
Rp222
(I3
S'|'
p223
NNNI10
I1
I0
tp224
bS'interest_6'
p225
tp226
Rp227
ag2
(g3
(S'S10'
p228
I0
I1
tp229
Rp230
(I3
S'|'
p231
NNNI10
I1
I0
tp232
bS'interest_6'
p233
tp234
Rp235
ag2
(g3
(S'S10'
p236
I0
I1
tp237
Rp238
(I3
S'|'
p239
NNNI10
I1
I0
tp240
bS'interest_1'
p241
tp242
Rp243
ag2
(g3
(S'S10'
p244
I0
I1
tp245
Rp246
(I3
S'|'
p247
NNNI10
I1
I0
tp248
bS'interest_6'
p249
tp250
Rp251
ag2
(g3
(S'S10'
p252
I0
I1
tp253
Rp254
(I3
S'|'
p255
NNNI10
I1
I0
tp256
bS'interest_4'
p257
tp258
Rp259
ag2
(g3
(S'S10'
p260
I0
I1
tp261
Rp262
(I3
S'|'
p263
NNNI10
I1
I0
tp264
bS'interest_4'
p265
tp266
Rp267
ag2
(g3
(S'S10'
p268
I0
I1
tp269
Rp270
(I3
S'|'
p271
NNNI10
I1
I0
tp272
bS'interest_6'
p273
tp274
Rp275
ag2
(g3
(S'S10'
p276
I0
I1
tp277
Rp278
(I3
S'|'
p279
NNNI10
I1
I0
tp280
bS'interest_6'
p281
tp282
Rp283
ag2
(g3
(S'S10'
p284
I0
I1
tp285
Rp286
(I3
S'|'
p287
NNNI10
I1
I0
tp288
bS'interest_4'
p289
tp290
Rp291
ag2
(g3
(S'S10'
p292
I0
I1
tp293
Rp294
(I3
S'|'
p295
NNNI10
I1
I0
tp296
bS'interest_6'
p297
tp298
Rp299
ag2
(g3
(S'S10'
p300
I0
I1
tp301
Rp302
(I3
S'|'
p303
NNNI10
I1
I0
tp304
bS'interest_6'
p305
tp306
Rp307
ag2
(g3
(S'S10'
p308
I0
I1
tp309
Rp310
(I3
S'|'
p311
NNNI10
I1
I0
tp312
bS'interest_1'
p313
tp314
Rp315
ag2
(g3
(S'S10'
p316
I0
I1
tp317
Rp318
(I3
S'|'
p319
NNNI10
I1
I0
tp320
bS'interest_6'
p321
tp322
Rp323
ag2
(g3
(S'S10'
p324
I0
I1
tp325
Rp326
(I3
S'|'
p327
NNNI10
I1
I0
tp328
bS'interest_5'
p329
tp330
Rp331
ag2
(g3
(S'S10'
p332
I0
I1
tp333
Rp334
(I3
S'|'
p335
NNNI10
I1
I0
tp336
bS'interest_5'
p337
tp338
Rp339
ag2
(g3
(S'S10'
p340
I0
I1
tp341
Rp342
(I3
S'|'
p343
NNNI10
I1
I0
tp344
bS'interest_6'
p345
tp346
Rp347
ag2
(g3
(S'S10'
p348
I0
I1
tp349
Rp350
(I3
S'|'
p351
NNNI10
I1
I0
tp352
bS'interest_1'
p353
tp354
Rp355
ag2
(g3
(S'S10'
p356
I0
I1
tp357
Rp358
(I3
S'|'
p359
NNNI10
I1
I0
tp360
bS'interest_1'
p361
tp362
Rp363
ag2
(g3
(S'S10'
p364
I0
I1
tp365
Rp366
(I3
S'|'
p367
NNNI10
I1
I0
tp368
bS'interest_1'
p369
tp370
Rp371
ag2
(g3
(S'S10'
p372
I0
I1
tp373
Rp374
(I3
S'|'
p375
NNNI10
I1
I0
tp376
bS'interest_6'
p377
tp378
Rp379
ag2
(g3
(S'S10'
p380
I0
I1
tp381
Rp382
(I3
S'|'
p383
NNNI10
I1
I0
tp384
bS'interest_6'
p385
tp386
Rp387
ag2
(g3
(S'S10'
p388
I0
I1
tp389
Rp390
(I3
S'|'
p391
NNNI10
I1
I0
tp392
bS'interest_1'
p393
tp394
Rp395
ag2
(g3
(S'S10'
p396
I0
I1
tp397
Rp398
(I3
S'|'
p399
NNNI10
I1
I0
tp400
bS'interest_6'
p401
tp402
Rp403
ag2
(g3
(S'S10'
p404
I0
I1
tp405
Rp406
(I3
S'|'
p407
NNNI10
I1
I0
tp408
bS'interest_5'
p409
tp410
Rp411
ag2
(g3
(S'S10'
p412
I0
I1
tp413
Rp414
(I3
S'|'
p415
NNNI10
I1
I0
tp416
bS'interest_6'
p417
tp418
Rp419
ag2
(g3
(S'S10'
p420
I0
I1
tp421
Rp422
(I3
S'|'
p423
NNNI10
I1
I0
tp424
bS'interest_6'
p425
tp426
Rp427
ag2
(g3
(S'S10'
p428
I0
I1
tp429
Rp430
(I3
S'|'
p431
NNNI10
I1
I0
tp432
bS'interest_1'
p433
tp434
Rp435
ag2
(g3
(S'S10'
p436
I0
I1
tp437
Rp438
(I3
S'|'
p439
NNNI10
I1
I0
tp440
bS'interest_5'
p441
tp442
Rp443
ag2
(g3
(S'S10'
p444
I0
I1
tp445
Rp446
(I3
S'|'
p447
NNNI10
I1
I0
tp448
bS'interest_1'
p449
tp450
Rp451
ag2
(g3
(S'S10'
p452
I0
I1
tp453
Rp454
(I3
S'|'
p455
NNNI10
I1
I0
tp456
bS'interest_1'
p457
tp458
Rp459
ag2
(g3
(S'S10'
p460
I0
I1
tp461
Rp462
(I3
S'|'
p463
NNNI10
I1
I0
tp464
bS'interest_1'
p465
tp466
Rp467
ag2
(g3
(S'S10'
p468
I0
I1
tp469
Rp470
(I3
S'|'
p471
NNNI10
I1
I0
tp472
bS'interest_4'
p473
tp474
Rp475
ag2
(g3
(S'S10'
p476
I0
I1
tp477
Rp478
(I3
S'|'
p479
NNNI10
I1
I0
tp480
bS'interest_6'
p481
tp482
Rp483
ag2
(g3
(S'S10'
p484
I0
I1
tp485
Rp486
(I3
S'|'
p487
NNNI10
I1
I0
tp488
bS'interest_6'
p489
tp490
Rp491
ag2
(g3
(S'S10'
p492
I0
I1
tp493
Rp494
(I3
S'|'
p495
NNNI10
I1
I0
tp496
bS'interest_1'
p497
tp498
Rp499
ag2
(g3
(S'S10'
p500
I0
I1
tp501
Rp502
(I3
S'|'
p503
NNNI10
I1
I0
tp504
bS'interest_5'
p505
tp506
Rp507
ag2
(g3
(S'S10'
p508
I0
I1
tp509
Rp510
(I3
S'|'
p511
NNNI10
I1
I0
tp512
bS'interest_6'
p513
tp514
Rp515
ag2
(g3
(S'S10'
p516
I0
I1
tp517
Rp518
(I3
S'|'
p519
NNNI10
I1
I0
tp520
bS'interest_6'
p521
tp522
Rp523
ag2
(g3
(S'S10'
p524
I0
I1
tp525
Rp526
(I3
S'|'
p527
NNNI10
I1
I0
tp528
bS'interest_1'
p529
tp530
Rp531
ag2
(g3
(S'S10'
p532
I0
I1
tp533
Rp534
(I3
S'|'
p535
NNNI10
I1
I0
tp536
bS'interest_6'
p537
tp538
Rp539
ag2
(g3
(S'S10'
p540
I0
I1
tp541
Rp542
(I3
S'|'
p543
NNNI10
I1
I0
tp544
bS'interest_5'
p545
tp546
Rp547
ag2
(g3
(S'S10'
p548
I0
I1
tp549
Rp550
(I3
S'|'
p551
NNNI10
I1
I0
tp552
bS'interest_5'
p553
tp554
Rp555
ag2
(g3
(S'S10'
p556
I0
I1
tp557
Rp558
(I3
S'|'
p559
NNNI10
I1
I0
tp560
bS'interest_5'
p561
tp562
Rp563
ag2
(g3
(S'S10'
p564
I0
I1
tp565
Rp566
(I3
S'|'
p567
NNNI10
I1
I0
tp568
bS'interest_6'
p569
tp570
Rp571
ag2
(g3
(S'S10'
p572
I0
I1
tp573
Rp574
(I3
S'|'
p575
NNNI10
I1
I0
tp576
bS'interest_6'
p577
tp578
Rp579
ag2
(g3
(S'S10'
p580
I0
I1
tp581
Rp582
(I3
S'|'
p583
NNNI10
I1
I0
tp584
bS'interest_6'
p585
tp586
Rp587
ag2
(g3
(S'S10'
p588
I0
I1
tp589
Rp590
(I3
S'|'
p591
NNNI10
I1
I0
tp592
bS'interest_5'
p593
tp594
Rp595
ag2
(g3
(S'S10'
p596
I0
I1
tp597
Rp598
(I3
S'|'
p599
NNNI10
I1
I0
tp600
bS'interest_6'
p601
tp602
Rp603
ag2
(g3
(S'S10'
p604
I0
I1
tp605
Rp606
(I3
S'|'
p607
NNNI10
I1
I0
tp608
bS'interest_5'
p609
tp610
Rp611
ag2
(g3
(S'S10'
p612
I0
I1
tp613
Rp614
(I3
S'|'
p615
NNNI10
I1
I0
tp616
bS'interest_4'
p617
tp618
Rp619
ag2
(g3
(S'S10'
p620
I0
I1
tp621
Rp622
(I3
S'|'
p623
NNNI10
I1
I0
tp624
bS'interest_5'
p625
tp626
Rp627
ag2
(g3
(S'S10'
p628
I0
I1
tp629
Rp630
(I3
S'|'
p631
NNNI10
I1
I0
tp632
bS'interest_6'
p633
tp634
Rp635
ag2
(g3
(S'S10'
p636
I0
I1
tp637
Rp638
(I3
S'|'
p639
NNNI10
I1
I0
tp640
bS'interest_3'
p641
tp642
Rp643
ag2
(g3
(S'S10'
p644
I0
I1
tp645
Rp646
(I3
S'|'
p647
NNNI10
I1
I0
tp648
bS'interest_6'
p649
tp650
Rp651
ag2
(g3
(S'S10'
p652
I0
I1
tp653
Rp654
(I3
S'|'
p655
NNNI10
I1
I0
tp656
bS'interest_6'
p657
tp658
Rp659
ag2
(g3
(S'S10'
p660
I0
I1
tp661
Rp662
(I3
S'|'
p663
NNNI10
I1
I0
tp664
bS'interest_5'
p665
tp666
Rp667
ag2
(g3
(S'S10'
p668
I0
I1
tp669
Rp670
(I3
S'|'
p671
NNNI10
I1
I0
tp672
bS'interest_1'
p673
tp674
Rp675
ag2
(g3
(S'S10'
p676
I0
I1
tp677
Rp678
(I3
S'|'
p679
NNNI10
I1
I0
tp680
bS'interest_6'
p681
tp682
Rp683
ag2
(g3
(S'S10'
p684
I0
I1
tp685
Rp686
(I3
S'|'
p687
NNNI10
I1
I0
tp688
bS'interest_6'
p689
tp690
Rp691
ag2
(g3
(S'S10'
p692
I0
I1
tp693
Rp694
(I3
S'|'
p695
NNNI10
I1
I0
tp696
bS'interest_6'
p697
tp698
Rp699
ag2
(g3
(S'S10'
p700
I0
I1
tp701
Rp702
(I3
S'|'
p703
NNNI10
I1
I0
tp704
bS'interest_6'
p705
tp706
Rp707
ag2
(g3
(S'S10'
p708
I0
I1
tp709
Rp710
(I3
S'|'
p711
NNNI10
I1
I0
tp712
bS'interest_6'
p713
tp714
Rp715
ag2
(g3
(S'S10'
p716
I0
I1
tp717
Rp718
(I3
S'|'
p719
NNNI10
I1
I0
tp720
bS'interest_4'
p721
tp722
Rp723
ag2
(g3
(S'S10'
p724
I0
I1
tp725
Rp726
(I3
S'|'
p727
NNNI10
I1
I0
tp728
bS'interest_6'
p729
tp730
Rp731
ag2
(g3
(S'S10'
p732
I0
I1
tp733
Rp734
(I3
S'|'
p735
NNNI10
I1
I0
tp736
bS'interest_6'
p737
tp738
Rp739
ag2
(g3
(S'S10'
p740
I0
I1
tp741
Rp742
(I3
S'|'
p743
NNNI10
I1
I0
tp744
bS'interest_5'
p745
tp746
Rp747
ag2
(g3
(S'S10'
p748
I0
I1
tp749
Rp750
(I3
S'|'
p751
NNNI10
I1
I0
tp752
bS'interest_6'
p753
tp754
Rp755
ag2
(g3
(S'S10'
p756
I0
I1
tp757
Rp758
(I3
S'|'
p759
NNNI10
I1
I0
tp760
bS'interest_5'
p761
tp762
Rp763
ag2
(g3
(S'S10'
p764
I0
I1
tp765
Rp766
(I3
S'|'
p767
NNNI10
I1
I0
tp768
bS'interest_6'
p769
tp770
Rp771
ag2
(g3
(S'S10'
p772
I0
I1
tp773
Rp774
(I3
S'|'
p775
NNNI10
I1
I0
tp776
bS'interest_5'
p777
tp778
Rp779
ag2
(g3
(S'S10'
p780
I0
I1
tp781
Rp782
(I3
S'|'
p783
NNNI10
I1
I0
tp784
bS'interest_6'
p785
tp786
Rp787
ag2
(g3
(S'S10'
p788
I0
I1
tp789
Rp790
(I3
S'|'
p791
NNNI10
I1
I0
tp792
bS'interest_6'
p793
tp794
Rp795
ag2
(g3
(S'S10'
p796
I0
I1
tp797
Rp798
(I3
S'|'
p799
NNNI10
I1
I0
tp800
bS'interest_6'
p801
tp802
Rp803
ag2
(g3
(S'S10'
p804
I0
I1
tp805
Rp806
(I3
S'|'
p807
NNNI10
I1
I0
tp808
bS'interest_5'
p809
tp810
Rp811
ag2
(g3
(S'S10'
p812
I0
I1
tp813
Rp814
(I3
S'|'
p815
NNNI10
I1
I0
tp816
bS'interest_3'
p817
tp818
Rp819
ag2
(g3
(S'S10'
p820
I0
I1
tp821
Rp822
(I3
S'|'
p823
NNNI10
I1
I0
tp824
bS'interest_6'
p825
tp826
Rp827
ag2
(g3
(S'S10'
p828
I0
I1
tp829
Rp830
(I3
S'|'
p831
NNNI10
I1
I0
tp832
bS'interest_1'
p833
tp834
Rp835
ag2
(g3
(S'S10'
p836
I0
I1
tp837
Rp838
(I3
S'|'
p839
NNNI10
I1
I0
tp840
bS'interest_1'
p841
tp842
Rp843
ag2
(g3
(S'S10'
p844
I0
I1
tp845
Rp846
(I3
S'|'
p847
NNNI10
I1
I0
tp848
bS'interest_6'
p849
tp850
Rp851
ag2
(g3
(S'S10'
p852
I0
I1
tp853
Rp854
(I3
S'|'
p855
NNNI10
I1
I0
tp856
bS'interest_6'
p857
tp858
Rp859
ag2
(g3
(S'S10'
p860
I0
I1
tp861
Rp862
(I3
S'|'
p863
NNNI10
I1
I0
tp864
bS'interest_6'
p865
tp866
Rp867
ag2
(g3
(S'S10'
p868
I0
I1
tp869
Rp870
(I3
S'|'
p871
NNNI10
I1
I0
tp872
bS'interest_1'
p873
tp874
Rp875
ag2
(g3
(S'S10'
p876
I0
I1
tp877
Rp878
(I3
S'|'
p879
NNNI10
I1
I0
tp880
bS'interest_6'
p881
tp882
Rp883
ag2
(g3
(S'S10'
p884
I0
I1
tp885
Rp886
(I3
S'|'
p887
NNNI10
I1
I0
tp888
bS'interest_6'
p889
tp890
Rp891
ag2
(g3
(S'S10'
p892
I0
I1
tp893
Rp894
(I3
S'|'
p895
NNNI10
I1
I0
tp896
bS'interest_5'
p897
tp898
Rp899
ag2
(g3
(S'S10'
p900
I0
I1
tp901
Rp902
(I3
S'|'
p903
NNNI10
I1
I0
tp904
bS'interest_6'
p905
tp906
Rp907
ag2
(g3
(S'S10'
p908
I0
I1
tp909
Rp910
(I3
S'|'
p911
NNNI10
I1
I0
tp912
bS'interest_5'
p913
tp914
Rp915
ag2
(g3
(S'S10'
p916
I0
I1
tp917
Rp918
(I3
S'|'
p919
NNNI10
I1
I0
tp920
bS'interest_6'
p921
tp922
Rp923
ag2
(g3
(S'S10'
p924
I0
I1
tp925
Rp926
(I3
S'|'
p927
NNNI10
I1
I0
tp928
bS'interest_6'
p929
tp930
Rp931
ag2
(g3
(S'S10'
p932
I0
I1
tp933
Rp934
(I3
S'|'
p935
NNNI10
I1
I0
tp936
bS'interest_5'
p937
tp938
Rp939
ag2
(g3
(S'S10'
p940
I0
I1
tp941
Rp942
(I3
S'|'
p943
NNNI10
I1
I0
tp944
bS'interest_4'
p945
tp946
Rp947
ag2
(g3
(S'S10'
p948
I0
I1
tp949
Rp950
(I3
S'|'
p951
NNNI10
I1
I0
tp952
bS'interest_1'
p953
tp954
Rp955
ag2
(g3
(S'S10'
p956
I0
I1
tp957
Rp958
(I3
S'|'
p959
NNNI10
I1
I0
tp960
bS'interest_6'
p961
tp962
Rp963
ag2
(g3
(S'S10'
p964
I0
I1
tp965
Rp966
(I3
S'|'
p967
NNNI10
I1
I0
tp968
bS'interest_6'
p969
tp970
Rp971
ag2
(g3
(S'S10'
p972
I0
I1
tp973
Rp974
(I3
S'|'
p975
NNNI10
I1
I0
tp976
bS'interest_1'
p977
tp978
Rp979
ag2
(g3
(S'S10'
p980
I0
I1
tp981
Rp982
(I3
S'|'
p983
NNNI10
I1
I0
tp984
bS'interest_6'
p985
tp986
Rp987
ag2
(g3
(S'S10'
p988
I0
I1
tp989
Rp990
(I3
S'|'
p991
NNNI10
I1
I0
tp992
bS'interest_6'
p993
tp994
Rp995
ag2
(g3
(S'S10'
p996
I0
I1
tp997
Rp998
(I3
S'|'
p999
NNNI10
I1
I0
tp1000
bS'interest_6'
p1001
tp1002
Rp1003
ag2
(g3
(S'S10'
p1004
I0
I1
tp1005
Rp1006
(I3
S'|'
p1007
NNNI10
I1
I0
tp1008
bS'interest_4'
p1009
tp1010
Rp1011
ag2
(g3
(S'S10'
p1012
I0
I1
tp1013
Rp1014
(I3
S'|'
p1015
NNNI10
I1
I0
tp1016
bS'interest_6'
p1017
tp1018
Rp1019
ag2
(g3
(S'S10'
p1020
I0
I1
tp1021
Rp1022
(I3
S'|'
p1023
NNNI10
I1
I0
tp1024
bS'interest_6'
p1025
tp1026
Rp1027
ag2
(g3
(S'S10'
p1028
I0
I1
tp1029
Rp1030
(I3
S'|'
p1031
NNNI10
I1
I0
tp1032
bS'interest_6'
p1033
tp1034
Rp1035
ag2
(g3
(S'S10'
p1036
I0
I1
tp1037
Rp1038
(I3
S'|'
p1039
NNNI10
I1
I0
tp1040
bS'interest_5'
p1041
tp1042
Rp1043
ag2
(g3
(S'S10'
p1044
I0
I1
tp1045
Rp1046
(I3
S'|'
p1047
NNNI10
I1
I0
tp1048
bS'interest_6'
p1049
tp1050
Rp1051
ag2
(g3
(S'S10'
p1052
I0
I1
tp1053
Rp1054
(I3
S'|'
p1055
NNNI10
I1
I0
tp1056
bS'interest_6'
p1057
tp1058
Rp1059
ag2
(g3
(S'S10'
p1060
I0
I1
tp1061
Rp1062
(I3
S'|'
p1063
NNNI10
I1
I0
tp1064
bS'interest_6'
p1065
tp1066
Rp1067
ag2
(g3
(S'S10'
p1068
I0
I1
tp1069
Rp1070
(I3
S'|'
p1071
NNNI10
I1
I0
tp1072
bS'interest_1'
p1073
tp1074
Rp1075
ag2
(g3
(S'S10'
p1076
I0
I1
tp1077
Rp1078
(I3
S'|'
p1079
NNNI10
I1
I0
tp1080
bS'interest_6'
p1081
tp1082
Rp1083
ag2
(g3
(S'S10'
p1084
I0
I1
tp1085
Rp1086
(I3
S'|'
p1087
NNNI10
I1
I0
tp1088
bS'interest_1'
p1089
tp1090
Rp1091
ag2
(g3
(S'S10'
p1092
I0
I1
tp1093
Rp1094
(I3
S'|'
p1095
NNNI10
I1
I0
tp1096
bS'interest_6'
p1097
tp1098
Rp1099
ag2
(g3
(S'S10'
p1100
I0
I1
tp1101
Rp1102
(I3
S'|'
p1103
NNNI10
I1
I0
tp1104
bS'interest_6'
p1105
tp1106
Rp1107
ag2
(g3
(S'S10'
p1108
I0
I1
tp1109
Rp1110
(I3
S'|'
p1111
NNNI10
I1
I0
tp1112
bS'interest_4'
p1113
tp1114
Rp1115
ag2
(g3
(S'S10'
p1116
I0
I1
tp1117
Rp1118
(I3
S'|'
p1119
NNNI10
I1
I0
tp1120
bS'interest_6'
p1121
tp1122
Rp1123
ag2
(g3
(S'S10'
p1124
I0
I1
tp1125
Rp1126
(I3
S'|'
p1127
NNNI10
I1
I0
tp1128
bS'interest_6'
p1129
tp1130
Rp1131
ag2
(g3
(S'S10'
p1132
I0
I1
tp1133
Rp1134
(I3
S'|'
p1135
NNNI10
I1
I0
tp1136
bS'interest_6'
p1137
tp1138
Rp1139
ag2
(g3
(S'S10'
p1140
I0
I1
tp1141
Rp1142
(I3
S'|'
p1143
NNNI10
I1
I0
tp1144
bS'interest_5'
p1145
tp1146
Rp1147
ag2
(g3
(S'S10'
p1148
I0
I1
tp1149
Rp1150
(I3
S'|'
p1151
NNNI10
I1
I0
tp1152
bS'interest_1'
p1153
tp1154
Rp1155
ag2
(g3
(S'S10'
p1156
I0
I1
tp1157
Rp1158
(I3
S'|'
p1159
NNNI10
I1
I0
tp1160
bS'interest_5'
p1161
tp1162
Rp1163
ag2
(g3
(S'S10'
p1164
I0
I1
tp1165
Rp1166
(I3
S'|'
p1167
NNNI10
I1
I0
tp1168
bS'interest_6'
p1169
tp1170
Rp1171
ag2
(g3
(S'S10'
p1172
I0
I1
tp1173
Rp1174
(I3
S'|'
p1175
NNNI10
I1
I0
tp1176
bS'interest_4'
p1177
tp1178
Rp1179
ag2
(g3
(S'S10'
p1180
I0
I1
tp1181
Rp1182
(I3
S'|'
p1183
NNNI10
I1
I0
tp1184
bS'interest_6'
p1185
tp1186
Rp1187
ag2
(g3
(S'S10'
p1188
I0
I1
tp1189
Rp1190
(I3
S'|'
p1191
NNNI10
I1
I0
tp1192
bS'interest_5'
p1193
tp1194
Rp1195
ag2
(g3
(S'S10'
p1196
I0
I1
tp1197
Rp1198
(I3
S'|'
p1199
NNNI10
I1
I0
tp1200
bS'interest_5'
p1201
tp1202
Rp1203
ag2
(g3
(S'S10'
p1204
I0
I1
tp1205
Rp1206
(I3
S'|'
p1207
NNNI10
I1
I0
tp1208
bS'interest_6'
p1209
tp1210
Rp1211
ag2
(g3
(S'S10'
p1212
I0
I1
tp1213
Rp1214
(I3
S'|'
p1215
NNNI10
I1
I0
tp1216
bS'interest_1'
p1217
tp1218
Rp1219
ag2
(g3
(S'S10'
p1220
I0
I1
tp1221
Rp1222
(I3
S'|'
p1223
NNNI10
I1
I0
tp1224
bS'interest_5'
p1225
tp1226
Rp1227
ag2
(g3
(S'S10'
p1228
I0
I1
tp1229
Rp1230
(I3
S'|'
p1231
NNNI10
I1
I0
tp1232
bS'interest_1'
p1233
tp1234
Rp1235
ag2
(g3
(S'S10'
p1236
I0
I1
tp1237
Rp1238
(I3
S'|'
p1239
NNNI10
I1
I0
tp1240
bS'interest_5'
p1241
tp1242
Rp1243
ag2
(g3
(S'S10'
p1244
I0
I1
tp1245
Rp1246
(I3
S'|'
p1247
NNNI10
I1
I0
tp1248
bS'interest_5'
p1249
tp1250
Rp1251
ag2
(g3
(S'S10'
p1252
I0
I1
tp1253
Rp1254
(I3
S'|'
p1255
NNNI10
I1
I0
tp1256
bS'interest_6'
p1257
tp1258
Rp1259
ag2
(g3
(S'S10'
p1260
I0
I1
tp1261
Rp1262
(I3
S'|'
p1263
NNNI10
I1
I0
tp1264
bS'interest_1'
p1265
tp1266
Rp1267
ag2
(g3
(S'S10'
p1268
I0
I1
tp1269
Rp1270
(I3
S'|'
p1271
NNNI10
I1
I0
tp1272
bS'interest_5'
p1273
tp1274
Rp1275
ag2
(g3
(S'S10'
p1276
I0
I1
tp1277
Rp1278
(I3
S'|'
p1279
NNNI10
I1
I0
tp1280
bS'interest_6'
p1281
tp1282
Rp1283
ag2
(g3
(S'S10'
p1284
I0
I1
tp1285
Rp1286
(I3
S'|'
p1287
NNNI10
I1
I0
tp1288
bS'interest_5'
p1289
tp1290
Rp1291
ag2
(g3
(S'S10'
p1292
I0
I1
tp1293
Rp1294
(I3
S'|'
p1295
NNNI10
I1
I0
tp1296
bS'interest_6'
p1297
tp1298
Rp1299
ag2
(g3
(S'S10'
p1300
I0
I1
tp1301
Rp1302
(I3
S'|'
p1303
NNNI10
I1
I0
tp1304
bS'interest_4'
p1305
tp1306
Rp1307
ag2
(g3
(S'S10'
p1308
I0
I1
tp1309
Rp1310
(I3
S'|'
p1311
NNNI10
I1
I0
tp1312
bS'interest_6'
p1313
tp1314
Rp1315
ag2
(g3
(S'S10'
p1316
I0
I1
tp1317
Rp1318
(I3
S'|'
p1319
NNNI10
I1
I0
tp1320
bS'interest_6'
p1321
tp1322
Rp1323
ag2
(g3
(S'S10'
p1324
I0
I1
tp1325
Rp1326
(I3
S'|'
p1327
NNNI10
I1
I0
tp1328
bS'interest_5'
p1329
tp1330
Rp1331
ag2
(g3
(S'S10'
p1332
I0
I1
tp1333
Rp1334
(I3
S'|'
p1335
NNNI10
I1
I0
tp1336
bS'interest_6'
p1337
tp1338
Rp1339
ag2
(g3
(S'S10'
p1340
I0
I1
tp1341
Rp1342
(I3
S'|'
p1343
NNNI10
I1
I0
tp1344
bS'interest_6'
p1345
tp1346
Rp1347
ag2
(g3
(S'S10'
p1348
I0
I1
tp1349
Rp1350
(I3
S'|'
p1351
NNNI10
I1
I0
tp1352
bS'interest_1'
p1353
tp1354
Rp1355
ag2
(g3
(S'S10'
p1356
I0
I1
tp1357
Rp1358
(I3
S'|'
p1359
NNNI10
I1
I0
tp1360
bS'interest_5'
p1361
tp1362
Rp1363
ag2
(g3
(S'S10'
p1364
I0
I1
tp1365
Rp1366
(I3
S'|'
p1367
NNNI10
I1
I0
tp1368
bS'interest_1'
p1369
tp1370
Rp1371
ag2
(g3
(S'S10'
p1372
I0
I1
tp1373
Rp1374
(I3
S'|'
p1375
NNNI10
I1
I0
tp1376
bS'interest_5'
p1377
tp1378
Rp1379
ag2
(g3
(S'S10'
p1380
I0
I1
tp1381
Rp1382
(I3
S'|'
p1383
NNNI10
I1
I0
tp1384
bS'interest_4'
p1385
tp1386
Rp1387
ag2
(g3
(S'S10'
p1388
I0
I1
tp1389
Rp1390
(I3
S'|'
p1391
NNNI10
I1
I0
tp1392
bS'interest_6'
p1393
tp1394
Rp1395
ag2
(g3
(S'S10'
p1396
I0
I1
tp1397
Rp1398
(I3
S'|'
p1399
NNNI10
I1
I0
tp1400
bS'interest_1'
p1401
tp1402
Rp1403
ag2
(g3
(S'S10'
p1404
I0
I1
tp1405
Rp1406
(I3
S'|'
p1407
NNNI10
I1
I0
tp1408
bS'interest_6'
p1409
tp1410
Rp1411
ag2
(g3
(S'S10'
p1412
I0
I1
tp1413
Rp1414
(I3
S'|'
p1415
NNNI10
I1
I0
tp1416
bS'interest_6'
p1417
tp1418
Rp1419
ag2
(g3
(S'S10'
p1420
I0
I1
tp1421
Rp1422
(I3
S'|'
p1423
NNNI10
I1
I0
tp1424
bS'interest_4'
p1425
tp1426
Rp1427
ag2
(g3
(S'S10'
p1428
I0
I1
tp1429
Rp1430
(I3
S'|'
p1431
NNNI10
I1
I0
tp1432
bS'interest_5'
p1433
tp1434
Rp1435
ag2
(g3
(S'S10'
p1436
I0
I1
tp1437
Rp1438
(I3
S'|'
p1439
NNNI10
I1
I0
tp1440
bS'interest_6'
p1441
tp1442
Rp1443
ag2
(g3
(S'S10'
p1444
I0
I1
tp1445
Rp1446
(I3
S'|'
p1447
NNNI10
I1
I0
tp1448
bS'interest_6'
p1449
tp1450
Rp1451
ag2
(g3
(S'S10'
p1452
I0
I1
tp1453
Rp1454
(I3
S'|'
p1455
NNNI10
I1
I0
tp1456
bS'interest_6'
p1457
tp1458
Rp1459
ag2
(g3
(S'S10'
p1460
I0
I1
tp1461
Rp1462
(I3
S'|'
p1463
NNNI10
I1
I0
tp1464
bS'interest_6'
p1465
tp1466
Rp1467
ag2
(g3
(S'S10'
p1468
I0
I1
tp1469
Rp1470
(I3
S'|'
p1471
NNNI10
I1
I0
tp1472
bS'interest_6'
p1473
tp1474
Rp1475
ag2
(g3
(S'S10'
p1476
I0
I1
tp1477
Rp1478
(I3
S'|'
p1479
NNNI10
I1
I0
tp1480
bS'interest_5'
p1481
tp1482
Rp1483
ag2
(g3
(S'S10'
p1484
I0
I1
tp1485
Rp1486
(I3
S'|'
p1487
NNNI10
I1
I0
tp1488
bS'interest_1'
p1489
tp1490
Rp1491
ag2
(g3
(S'S10'
p1492
I0
I1
tp1493
Rp1494
(I3
S'|'
p1495
NNNI10
I1
I0
tp1496
bS'interest_5'
p1497
tp1498
Rp1499
ag2
(g3
(S'S10'
p1500
I0
I1
tp1501
Rp1502
(I3
S'|'
p1503
NNNI10
I1
I0
tp1504
bS'interest_4'
p1505
tp1506
Rp1507
ag2
(g3
(S'S10'
p1508
I0
I1
tp1509
Rp1510
(I3
S'|'
p1511
NNNI10
I1
I0
tp1512
bS'interest_6'
p1513
tp1514
Rp1515
ag2
(g3
(S'S10'
p1516
I0
I1
tp1517
Rp1518
(I3
S'|'
p1519
NNNI10
I1
I0
tp1520
bS'interest_6'
p1521
tp1522
Rp1523
ag2
(g3
(S'S10'
p1524
I0
I1
tp1525
Rp1526
(I3
S'|'
p1527
NNNI10
I1
I0
tp1528
bS'interest_6'
p1529
tp1530
Rp1531
ag2
(g3
(S'S10'
p1532
I0
I1
tp1533
Rp1534
(I3
S'|'
p1535
NNNI10
I1
I0
tp1536
bS'interest_5'
p1537
tp1538
Rp1539
ag2
(g3
(S'S10'
p1540
I0
I1
tp1541
Rp1542
(I3
S'|'
p1543
NNNI10
I1
I0
tp1544
bS'interest_6'
p1545
tp1546
Rp1547
ag2
(g3
(S'S10'
p1548
I0
I1
tp1549
Rp1550
(I3
S'|'
p1551
NNNI10
I1
I0
tp1552
bS'interest_6'
p1553
tp1554
Rp1555
ag2
(g3
(S'S10'
p1556
I0
I1
tp1557
Rp1558
(I3
S'|'
p1559
NNNI10
I1
I0
tp1560
bS'interest_1'
p1561
tp1562
Rp1563
ag2
(g3
(S'S10'
p1564
I0
I1
tp1565
Rp1566
(I3
S'|'
p1567
NNNI10
I1
I0
tp1568
bS'interest_5'
p1569
tp1570
Rp1571
ag2
(g3
(S'S10'
p1572
I0
I1
tp1573
Rp1574
(I3
S'|'
p1575
NNNI10
I1
I0
tp1576
bS'interest_4'
p1577
tp1578
Rp1579
ag2
(g3
(S'S10'
p1580
I0
I1
tp1581
Rp1582
(I3
S'|'
p1583
NNNI10
I1
I0
tp1584
bS'interest_5'
p1585
tp1586
Rp1587
ag2
(g3
(S'S10'
p1588
I0
I1
tp1589
Rp1590
(I3
S'|'
p1591
NNNI10
I1
I0
tp1592
bS'interest_6'
p1593
tp1594
Rp1595
ag2
(g3
(S'S10'
p1596
I0
I1
tp1597
Rp1598
(I3
S'|'
p1599
NNNI10
I1
I0
tp1600
bS'interest_6'
p1601
tp1602
Rp1603
ag2
(g3
(S'S10'
p1604
I0
I1
tp1605
Rp1606
(I3
S'|'
p1607
NNNI10
I1
I0
tp1608
bS'interest_5'
p1609
tp1610
Rp1611
ag2
(g3
(S'S10'
p1612
I0
I1
tp1613
Rp1614
(I3
S'|'
p1615
NNNI10
I1
I0
tp1616
bS'interest_6'
p1617
tp1618
Rp1619
ag2
(g3
(S'S10'
p1620
I0
I1
tp1621
Rp1622
(I3
S'|'
p1623
NNNI10
I1
I0
tp1624
bS'interest_5'
p1625
tp1626
Rp1627
ag2
(g3
(S'S10'
p1628
I0
I1
tp1629
Rp1630
(I3
S'|'
p1631
NNNI10
I1
I0
tp1632
bS'interest_1'
p1633
tp1634
Rp1635
ag2
(g3
(S'S10'
p1636
I0
I1
tp1637
Rp1638
(I3
S'|'
p1639
NNNI10
I1
I0
tp1640
bS'interest_5'
p1641
tp1642
Rp1643
ag2
(g3
(S'S10'
p1644
I0
I1
tp1645
Rp1646
(I3
S'|'
p1647
NNNI10
I1
I0
tp1648
bS'interest_6'
p1649
tp1650
Rp1651
ag2
(g3
(S'S10'
p1652
I0
I1
tp1653
Rp1654
(I3
S'|'
p1655
NNNI10
I1
I0
tp1656
bS'interest_6'
p1657
tp1658
Rp1659
ag2
(g3
(S'S10'
p1660
I0
I1
tp1661
Rp1662
(I3
S'|'
p1663
NNNI10
I1
I0
tp1664
bS'interest_6'
p1665
tp1666
Rp1667
ag2
(g3
(S'S10'
p1668
I0
I1
tp1669
Rp1670
(I3
S'|'
p1671
NNNI10
I1
I0
tp1672
bS'interest_1'
p1673
tp1674
Rp1675
ag2
(g3
(S'S10'
p1676
I0
I1
tp1677
Rp1678
(I3
S'|'
p1679
NNNI10
I1
I0
tp1680
bS'interest_1'
p1681
tp1682
Rp1683
ag2
(g3
(S'S10'
p1684
I0
I1
tp1685
Rp1686
(I3
S'|'
p1687
NNNI10
I1
I0
tp1688
bS'interest_5'
p1689
tp1690
Rp1691
ag2
(g3
(S'S10'
p1692
I0
I1
tp1693
Rp1694
(I3
S'|'
p1695
NNNI10
I1
I0
tp1696
bS'interest_6'
p1697
tp1698
Rp1699
ag2
(g3
(S'S10'
p1700
I0
I1
tp1701
Rp1702
(I3
S'|'
p1703
NNNI10
I1
I0
tp1704
bS'interest_6'
p1705
tp1706
Rp1707
ag2
(g3
(S'S10'
p1708
I0
I1
tp1709
Rp1710
(I3
S'|'
p1711
NNNI10
I1
I0
tp1712
bS'interest_6'
p1713
tp1714
Rp1715
ag2
(g3
(S'S10'
p1716
I0
I1
tp1717
Rp1718
(I3
S'|'
p1719
NNNI10
I1
I0
tp1720
bS'interest_6'
p1721
tp1722
Rp1723
ag2
(g3
(S'S10'
p1724
I0
I1
tp1725
Rp1726
(I3
S'|'
p1727
NNNI10
I1
I0
tp1728
bS'interest_6'
p1729
tp1730
Rp1731
ag2
(g3
(S'S10'
p1732
I0
I1
tp1733
Rp1734
(I3
S'|'
p1735
NNNI10
I1
I0
tp1736
bS'interest_6'
p1737
tp1738
Rp1739
ag2
(g3
(S'S10'
p1740
I0
I1
tp1741
Rp1742
(I3
S'|'
p1743
NNNI10
I1
I0
tp1744
bS'interest_5'
p1745
tp1746
Rp1747
ag2
(g3
(S'S10'
p1748
I0
I1
tp1749
Rp1750
(I3
S'|'
p1751
NNNI10
I1
I0
tp1752
bS'interest_4'
p1753
tp1754
Rp1755
ag2
(g3
(S'S10'
p1756
I0
I1
tp1757
Rp1758
(I3
S'|'
p1759
NNNI10
I1
I0
tp1760
bS'interest_6'
p1761
tp1762
Rp1763
ag2
(g3
(S'S10'
p1764
I0
I1
tp1765
Rp1766
(I3
S'|'
p1767
NNNI10
I1
I0
tp1768
bS'interest_1'
p1769
tp1770
Rp1771
ag2
(g3
(S'S10'
p1772
I0
I1
tp1773
Rp1774
(I3
S'|'
p1775
NNNI10
I1
I0
tp1776
bS'interest_6'
p1777
tp1778
Rp1779
ag2
(g3
(S'S10'
p1780
I0
I1
tp1781
Rp1782
(I3
S'|'
p1783
NNNI10
I1
I0
tp1784
bS'interest_4'
p1785
tp1786
Rp1787
ag2
(g3
(S'S10'
p1788
I0
I1
tp1789
Rp1790
(I3
S'|'
p1791
NNNI10
I1
I0
tp1792
bS'interest_6'
p1793
tp1794
Rp1795
ag2
(g3
(S'S10'
p1796
I0
I1
tp1797
Rp1798
(I3
S'|'
p1799
NNNI10
I1
I0
tp1800
bS'interest_5'
p1801
tp1802
Rp1803
ag2
(g3
(S'S10'
p1804
I0
I1
tp1805
Rp1806
(I3
S'|'
p1807
NNNI10
I1
I0
tp1808
bS'interest_6'
p1809
tp1810
Rp1811
ag2
(g3
(S'S10'
p1812
I0
I1
tp1813
Rp1814
(I3
S'|'
p1815
NNNI10
I1
I0
tp1816
bS'interest_6'
p1817
tp1818
Rp1819
ag2
(g3
(S'S10'
p1820
I0
I1
tp1821
Rp1822
(I3
S'|'
p1823
NNNI10
I1
I0
tp1824
bS'interest_1'
p1825
tp1826
Rp1827
ag2
(g3
(S'S10'
p1828
I0
I1
tp1829
Rp1830
(I3
S'|'
p1831
NNNI10
I1
I0
tp1832
bS'interest_5'
p1833
tp1834
Rp1835
ag2
(g3
(S'S10'
p1836
I0
I1
tp1837
Rp1838
(I3
S'|'
p1839
NNNI10
I1
I0
tp1840
bS'interest_1'
p1841
tp1842
Rp1843
ag2
(g3
(S'S10'
p1844
I0
I1
tp1845
Rp1846
(I3
S'|'
p1847
NNNI10
I1
I0
tp1848
bS'interest_6'
p1849
tp1850
Rp1851
ag2
(g3
(S'S10'
p1852
I0
I1
tp1853
Rp1854
(I3
S'|'
p1855
NNNI10
I1
I0
tp1856
bS'interest_6'
p1857
tp1858
Rp1859
ag2
(g3
(S'S10'
p1860
I0
I1
tp1861
Rp1862
(I3
S'|'
p1863
NNNI10
I1
I0
tp1864
bS'interest_4'
p1865
tp1866
Rp1867
ag2
(g3
(S'S10'
p1868
I0
I1
tp1869
Rp1870
(I3
S'|'
p1871
NNNI10
I1
I0
tp1872
bS'interest_5'
p1873
tp1874
Rp1875
ag2
(g3
(S'S10'
p1876
I0
I1
tp1877
Rp1878
(I3
S'|'
p1879
NNNI10
I1
I0
tp1880
bS'interest_5'
p1881
tp1882
Rp1883
ag2
(g3
(S'S10'
p1884
I0
I1
tp1885
Rp1886
(I3
S'|'
p1887
NNNI10
I1
I0
tp1888
bS'interest_5'
p1889
tp1890
Rp1891
aa(lp1892
g2
(g3
(S'S10'
p1893
I0
I1
tp1894
Rp1895
(I3
S'|'
p1896
NNNI10
I1
I0
tp1897
bS'interest_6'
p1898
tp1899
Rp1900
ag2
(g3
(S'S10'
p1901
I0
I1
tp1902
Rp1903
(I3
S'|'
p1904
NNNI10
I1
I0
tp1905
bS'interest_6'
p1906
tp1907
Rp1908
ag2
(g3
(S'S10'
p1909
I0
I1
tp1910
Rp1911
(I3
S'|'
p1912
NNNI10
I1
I0
tp1913
bS'interest_6'
p1914
tp1915
Rp1916
ag2
(g3
(S'S10'
p1917
I0
I1
tp1918
Rp1919
(I3
S'|'
p1920
NNNI10
I1
I0
tp1921
bS'interest_1'
p1922
tp1923
Rp1924
ag2
(g3
(S'S10'
p1925
I0
I1
tp1926
Rp1927
(I3
S'|'
p1928
NNNI10
I1
I0
tp1929
bS'interest_6'
p1930
tp1931
Rp1932
ag2
(g3
(S'S10'
p1933
I0
I1
tp1934
Rp1935
(I3
S'|'
p1936
NNNI10
I1
I0
tp1937
bS'interest_6'
p1938
tp1939
Rp1940
ag2
(g3
(S'S10'
p1941
I0
I1
tp1942
Rp1943
(I3
S'|'
p1944
NNNI10
I1
I0
tp1945
bS'interest_6'
p1946
tp1947
Rp1948
ag2
(g3
(S'S10'
p1949
I0
I1
tp1950
Rp1951
(I3
S'|'
p1952
NNNI10
I1
I0
tp1953
bS'interest_6'
p1954
tp1955
Rp1956
ag2
(g3
(S'S10'
p1957
I0
I1
tp1958
Rp1959
(I3
S'|'
p1960
NNNI10
I1
I0
tp1961
bS'interest_6'
p1962
tp1963
Rp1964
ag2
(g3
(S'S10'
p1965
I0
I1
tp1966
Rp1967
(I3
S'|'
p1968
NNNI10
I1
I0
tp1969
bS'interest_6'
p1970
tp1971
Rp1972
ag2
(g3
(S'S10'
p1973
I0
I1
tp1974
Rp1975
(I3
S'|'
p1976
NNNI10
I1
I0
tp1977
bS'interest_5'
p1978
tp1979
Rp1980
ag2
(g3
(S'S10'
p1981
I0
I1
tp1982
Rp1983
(I3
S'|'
p1984
NNNI10
I1
I0
tp1985
bS'interest_1'
p1986
tp1987
Rp1988
ag2
(g3
(S'S10'
p1989
I0
I1
tp1990
Rp1991
(I3
S'|'
p1992
NNNI10
I1
I0
tp1993
bS'interest_6'
p1994
tp1995
Rp1996
ag2
(g3
(S'S10'
p1997
I0
I1
tp1998
Rp1999
(I3
S'|'
p2000
NNNI10
I1
I0
tp2001
bS'interest_6'
p2002
tp2003
Rp2004
ag2
(g3
(S'S10'
p2005
I0
I1
tp2006
Rp2007
(I3
S'|'
p2008
NNNI10
I1
I0
tp2009
bS'interest_3'
p2010
tp2011
Rp2012
ag2
(g3
(S'S10'
p2013
I0
I1
tp2014
Rp2015
(I3
S'|'
p2016
NNNI10
I1
I0
tp2017
bS'interest_6'
p2018
tp2019
Rp2020
ag2
(g3
(S'S10'
p2021
I0
I1
tp2022
Rp2023
(I3
S'|'
p2024
NNNI10
I1
I0
tp2025
bS'interest_5'
p2026
tp2027
Rp2028
ag2
(g3
(S'S10'
p2029
I0
I1
tp2030
Rp2031
(I3
S'|'
p2032
NNNI10
I1
I0
tp2033
bS'interest_1'
p2034
tp2035
Rp2036
ag2
(g3
(S'S10'
p2037
I0
I1
tp2038
Rp2039
(I3
S'|'
p2040
NNNI10
I1
I0
tp2041
bS'interest_4'
p2042
tp2043
Rp2044
ag2
(g3
(S'S10'
p2045
I0
I1
tp2046
Rp2047
(I3
S'|'
p2048
NNNI10
I1
I0
tp2049
bS'interest_6'
p2050
tp2051
Rp2052
ag2
(g3
(S'S10'
p2053
I0
I1
tp2054
Rp2055
(I3
S'|'
p2056
NNNI10
I1
I0
tp2057
bS'interest_6'
p2058
tp2059
Rp2060
ag2
(g3
(S'S10'
p2061
I0
I1
tp2062
Rp2063
(I3
S'|'
p2064
NNNI10
I1
I0
tp2065
bS'interest_6'
p2066
tp2067
Rp2068
ag2
(g3
(S'S10'
p2069
I0
I1
tp2070
Rp2071
(I3
S'|'
p2072
NNNI10
I1
I0
tp2073
bS'interest_1'
p2074
tp2075
Rp2076
ag2
(g3
(S'S10'
p2077
I0
I1
tp2078
Rp2079
(I3
S'|'
p2080
NNNI10
I1
I0
tp2081
bS'interest_6'
p2082
tp2083
Rp2084
ag2
(g3
(S'S10'
p2085
I0
I1
tp2086
Rp2087
(I3
S'|'
p2088
NNNI10
I1
I0
tp2089
bS'interest_5'
p2090
tp2091
Rp2092
ag2
(g3
(S'S10'
p2093
I0
I1
tp2094
Rp2095
(I3
S'|'
p2096
NNNI10
I1
I0
tp2097
bS'interest_1'
p2098
tp2099
Rp2100
ag2
(g3
(S'S10'
p2101
I0
I1
tp2102
Rp2103
(I3
S'|'
p2104
NNNI10
I1
I0
tp2105
bS'interest_6'
p2106
tp2107
Rp2108
ag2
(g3
(S'S10'
p2109
I0
I1
tp2110
Rp2111
(I3
S'|'
p2112
NNNI10
I1
I0
tp2113
bS'interest_6'
p2114
tp2115
Rp2116
ag2
(g3
(S'S10'
p2117
I0
I1
tp2118
Rp2119
(I3
S'|'
p2120
NNNI10
I1
I0
tp2121
bS'interest_6'
p2122
tp2123
Rp2124
ag2
(g3
(S'S10'
p2125
I0
I1
tp2126
Rp2127
(I3
S'|'
p2128
NNNI10
I1
I0
tp2129
bS'interest_1'
p2130
tp2131
Rp2132
ag2
(g3
(S'S10'
p2133
I0
I1
tp2134
Rp2135
(I3
S'|'
p2136
NNNI10
I1
I0
tp2137
bS'interest_6'
p2138
tp2139
Rp2140
ag2
(g3
(S'S10'
p2141
I0
I1
tp2142
Rp2143
(I3
S'|'
p2144
NNNI10
I1
I0
tp2145
bS'interest_4'
p2146
tp2147
Rp2148
ag2
(g3
(S'S10'
p2149
I0
I1
tp2150
Rp2151
(I3
S'|'
p2152
NNNI10
I1
I0
tp2153
bS'interest_4'
p2154
tp2155
Rp2156
ag2
(g3
(S'S10'
p2157
I0
I1
tp2158
Rp2159
(I3
S'|'
p2160
NNNI10
I1
I0
tp2161
bS'interest_6'
p2162
tp2163
Rp2164
ag2
(g3
(S'S10'
p2165
I0
I1
tp2166
Rp2167
(I3
S'|'
p2168
NNNI10
I1
I0
tp2169
bS'interest_6'
p2170
tp2171
Rp2172
ag2
(g3
(S'S10'
p2173
I0
I1
tp2174
Rp2175
(I3
S'|'
p2176
NNNI10
I1
I0
tp2177
bS'interest_4'
p2178
tp2179
Rp2180
ag2
(g3
(S'S10'
p2181
I0
I1
tp2182
Rp2183
(I3
S'|'
p2184
NNNI10
I1
I0
tp2185
bS'interest_6'
p2186
tp2187
Rp2188
ag2
(g3
(S'S10'
p2189
I0
I1
tp2190
Rp2191
(I3
S'|'
p2192
NNNI10
I1
I0
tp2193
bS'interest_6'
p2194
tp2195
Rp2196
ag2
(g3
(S'S10'
p2197
I0
I1
tp2198
Rp2199
(I3
S'|'
p2200
NNNI10
I1
I0
tp2201
bS'interest_1'
p2202
tp2203
Rp2204
ag2
(g3
(S'S10'
p2205
I0
I1
tp2206
Rp2207
(I3
S'|'
p2208
NNNI10
I1
I0
tp2209
bS'interest_6'
p2210
tp2211
Rp2212
ag2
(g3
(S'S10'
p2213
I0
I1
tp2214
Rp2215
(I3
S'|'
p2216
NNNI10
I1
I0
tp2217
bS'interest_5'
p2218
tp2219
Rp2220
ag2
(g3
(S'S10'
p2221
I0
I1
tp2222
Rp2223
(I3
S'|'
p2224
NNNI10
I1
I0
tp2225
bS'interest_5'
p2226
tp2227
Rp2228
ag2
(g3
(S'S10'
p2229
I0
I1
tp2230
Rp2231
(I3
S'|'
p2232
NNNI10
I1
I0
tp2233
bS'interest_6'
p2234
tp2235
Rp2236
ag2
(g3
(S'S10'
p2237
I0
I1
tp2238
Rp2239
(I3
S'|'
p2240
NNNI10
I1
I0
tp2241
bS'interest_5'
p2242
tp2243
Rp2244
ag2
(g3
(S'S10'
p2245
I0
I1
tp2246
Rp2247
(I3
S'|'
p2248
NNNI10
I1
I0
tp2249
bS'interest_1'
p2250
tp2251
Rp2252
ag2
(g3
(S'S10'
p2253
I0
I1
tp2254
Rp2255
(I3
S'|'
p2256
NNNI10
I1
I0
tp2257
bS'interest_1'
p2258
tp2259
Rp2260
ag2
(g3
(S'S10'
p2261
I0
I1
tp2262
Rp2263
(I3
S'|'
p2264
NNNI10
I1
I0
tp2265
bS'interest_4'
p2266
tp2267
Rp2268
ag2
(g3
(S'S10'
p2269
I0
I1
tp2270
Rp2271
(I3
S'|'
p2272
NNNI10
I1
I0
tp2273
bS'interest_6'
p2274
tp2275
Rp2276
ag2
(g3
(S'S10'
p2277
I0
I1
tp2278
Rp2279
(I3
S'|'
p2280
NNNI10
I1
I0
tp2281
bS'interest_1'
p2282
tp2283
Rp2284
ag2
(g3
(S'S10'
p2285
I0
I1
tp2286
Rp2287
(I3
S'|'
p2288
NNNI10
I1
I0
tp2289
bS'interest_6'
p2290
tp2291
Rp2292
ag2
(g3
(S'S10'
p2293
I0
I1
tp2294
Rp2295
(I3
S'|'
p2296
NNNI10
I1
I0
tp2297
bS'interest_4'
p2298
tp2299
Rp2300
ag2
(g3
(S'S10'
p2301
I0
I1
tp2302
Rp2303
(I3
S'|'
p2304
NNNI10
I1
I0
tp2305
bS'interest_6'
p2306
tp2307
Rp2308
ag2
(g3
(S'S10'
p2309
I0
I1
tp2310
Rp2311
(I3
S'|'
p2312
NNNI10
I1
I0
tp2313
bS'interest_6'
p2314
tp2315
Rp2316
ag2
(g3
(S'S10'
p2317
I0
I1
tp2318
Rp2319
(I3
S'|'
p2320
NNNI10
I1
I0
tp2321
bS'interest_1'
p2322
tp2323
Rp2324
ag2
(g3
(S'S10'
p2325
I0
I1
tp2326
Rp2327
(I3
S'|'
p2328
NNNI10
I1
I0
tp2329
bS'interest_5'
p2330
tp2331
Rp2332
ag2
(g3
(S'S10'
p2333
I0
I1
tp2334
Rp2335
(I3
S'|'
p2336
NNNI10
I1
I0
tp2337
bS'interest_1'
p2338
tp2339
Rp2340
ag2
(g3
(S'S10'
p2341
I0
I1
tp2342
Rp2343
(I3
S'|'
p2344
NNNI10
I1
I0
tp2345
bS'interest_1'
p2346
tp2347
Rp2348
ag2
(g3
(S'S10'
p2349
I0
I1
tp2350
Rp2351
(I3
S'|'
p2352
NNNI10
I1
I0
tp2353
bS'interest_1'
p2354
tp2355
Rp2356
ag2
(g3
(S'S10'
p2357
I0
I1
tp2358
Rp2359
(I3
S'|'
p2360
NNNI10
I1
I0
tp2361
bS'interest_4'
p2362
tp2363
Rp2364
ag2
(g3
(S'S10'
p2365
I0
I1
tp2366
Rp2367
(I3
S'|'
p2368
NNNI10
I1
I0
tp2369
bS'interest_6'
p2370
tp2371
Rp2372
ag2
(g3
(S'S10'
p2373
I0
I1
tp2374
Rp2375
(I3
S'|'
p2376
NNNI10
I1
I0
tp2377
bS'interest_6'
p2378
tp2379
Rp2380
ag2
(g3
(S'S10'
p2381
I0
I1
tp2382
Rp2383
(I3
S'|'
p2384
NNNI10
I1
I0
tp2385
bS'interest_1'
p2386
tp2387
Rp2388
ag2
(g3
(S'S10'
p2389
I0
I1
tp2390
Rp2391
(I3
S'|'
p2392
NNNI10
I1
I0
tp2393
bS'interest_5'
p2394
tp2395
Rp2396
ag2
(g3
(S'S10'
p2397
I0
I1
tp2398
Rp2399
(I3
S'|'
p2400
NNNI10
I1
I0
tp2401
bS'interest_6'
p2402
tp2403
Rp2404
ag2
(g3
(S'S10'
p2405
I0
I1
tp2406
Rp2407
(I3
S'|'
p2408
NNNI10
I1
I0
tp2409
bS'interest_6'
p2410
tp2411
Rp2412
ag2
(g3
(S'S10'
p2413
I0
I1
tp2414
Rp2415
(I3
S'|'
p2416
NNNI10
I1
I0
tp2417
bS'interest_1'
p2418
tp2419
Rp2420
ag2
(g3
(S'S10'
p2421
I0
I1
tp2422
Rp2423
(I3
S'|'
p2424
NNNI10
I1
I0
tp2425
bS'interest_6'
p2426
tp2427
Rp2428
ag2
(g3
(S'S10'
p2429
I0
I1
tp2430
Rp2431
(I3
S'|'
p2432
NNNI10
I1
I0
tp2433
bS'interest_5'
p2434
tp2435
Rp2436
ag2
(g3
(S'S10'
p2437
I0
I1
tp2438
Rp2439
(I3
S'|'
p2440
NNNI10
I1
I0
tp2441
bS'interest_5'
p2442
tp2443
Rp2444
ag2
(g3
(S'S10'
p2445
I0
I1
tp2446
Rp2447
(I3
S'|'
p2448
NNNI10
I1
I0
tp2449
bS'interest_5'
p2450
tp2451
Rp2452
ag2
(g3
(S'S10'
p2453
I0
I1
tp2454
Rp2455
(I3
S'|'
p2456
NNNI10
I1
I0
tp2457
bS'interest_6'
p2458
tp2459
Rp2460
ag2
(g3
(S'S10'
p2461
I0
I1
tp2462
Rp2463
(I3
S'|'
p2464
NNNI10
I1
I0
tp2465
bS'interest_6'
p2466
tp2467
Rp2468
ag2
(g3
(S'S10'
p2469
I0
I1
tp2470
Rp2471
(I3
S'|'
p2472
NNNI10
I1
I0
tp2473
bS'interest_6'
p2474
tp2475
Rp2476
ag2
(g3
(S'S10'
p2477
I0
I1
tp2478
Rp2479
(I3
S'|'
p2480
NNNI10
I1
I0
tp2481
bS'interest_5'
p2482
tp2483
Rp2484
ag2
(g3
(S'S10'
p2485
I0
I1
tp2486
Rp2487
(I3
S'|'
p2488
NNNI10
I1
I0
tp2489
bS'interest_6'
p2490
tp2491
Rp2492
ag2
(g3
(S'S10'
p2493
I0
I1
tp2494
Rp2495
(I3
S'|'
p2496
NNNI10
I1
I0
tp2497
bS'interest_5'
p2498
tp2499
Rp2500
ag2
(g3
(S'S10'
p2501
I0
I1
tp2502
Rp2503
(I3
S'|'
p2504
NNNI10
I1
I0
tp2505
bS'interest_3'
p2506
tp2507
Rp2508
ag2
(g3
(S'S10'
p2509
I0
I1
tp2510
Rp2511
(I3
S'|'
p2512
NNNI10
I1
I0
tp2513
bS'interest_5'
p2514
tp2515
Rp2516
ag2
(g3
(S'S10'
p2517
I0
I1
tp2518
Rp2519
(I3
S'|'
p2520
NNNI10
I1
I0
tp2521
bS'interest_6'
p2522
tp2523
Rp2524
ag2
(g3
(S'S10'
p2525
I0
I1
tp2526
Rp2527
(I3
S'|'
p2528
NNNI10
I1
I0
tp2529
bS'interest_3'
p2530
tp2531
Rp2532
ag2
(g3
(S'S10'
p2533
I0
I1
tp2534
Rp2535
(I3
S'|'
p2536
NNNI10
I1
I0
tp2537
bS'interest_6'
p2538
tp2539
Rp2540
ag2
(g3
(S'S10'
p2541
I0
I1
tp2542
Rp2543
(I3
S'|'
p2544
NNNI10
I1
I0
tp2545
bS'interest_6'
p2546
tp2547
Rp2548
ag2
(g3
(S'S10'
p2549
I0
I1
tp2550
Rp2551
(I3
S'|'
p2552
NNNI10
I1
I0
tp2553
bS'interest_5'
p2554
tp2555
Rp2556
ag2
(g3
(S'S10'
p2557
I0
I1
tp2558
Rp2559
(I3
S'|'
p2560
NNNI10
I1
I0
tp2561
bS'interest_1'
p2562
tp2563
Rp2564
ag2
(g3
(S'S10'
p2565
I0
I1
tp2566
Rp2567
(I3
S'|'
p2568
NNNI10
I1
I0
tp2569
bS'interest_6'
p2570
tp2571
Rp2572
ag2
(g3
(S'S10'
p2573
I0
I1
tp2574
Rp2575
(I3
S'|'
p2576
NNNI10
I1
I0
tp2577
bS'interest_6'
p2578
tp2579
Rp2580
ag2
(g3
(S'S10'
p2581
I0
I1
tp2582
Rp2583
(I3
S'|'
p2584
NNNI10
I1
I0
tp2585
bS'interest_6'
p2586
tp2587
Rp2588
ag2
(g3
(S'S10'
p2589
I0
I1
tp2590
Rp2591
(I3
S'|'
p2592
NNNI10
I1
I0
tp2593
bS'interest_6'
p2594
tp2595
Rp2596
ag2
(g3
(S'S10'
p2597
I0
I1
tp2598
Rp2599
(I3
S'|'
p2600
NNNI10
I1
I0
tp2601
bS'interest_6'
p2602
tp2603
Rp2604
ag2
(g3
(S'S10'
p2605
I0
I1
tp2606
Rp2607
(I3
S'|'
p2608
NNNI10
I1
I0
tp2609
bS'interest_5'
p2610
tp2611
Rp2612
ag2
(g3
(S'S10'
p2613
I0
I1
tp2614
Rp2615
(I3
S'|'
p2616
NNNI10
I1
I0
tp2617
bS'interest_6'
p2618
tp2619
Rp2620
ag2
(g3
(S'S10'
p2621
I0
I1
tp2622
Rp2623
(I3
S'|'
p2624
NNNI10
I1
I0
tp2625
bS'interest_6'
p2626
tp2627
Rp2628
ag2
(g3
(S'S10'
p2629
I0
I1
tp2630
Rp2631
(I3
S'|'
p2632
NNNI10
I1
I0
tp2633
bS'interest_3'
p2634
tp2635
Rp2636
ag2
(g3
(S'S10'
p2637
I0
I1
tp2638
Rp2639
(I3
S'|'
p2640
NNNI10
I1
I0
tp2641
bS'interest_6'
p2642
tp2643
Rp2644
ag2
(g3
(S'S10'
p2645
I0
I1
tp2646
Rp2647
(I3
S'|'
p2648
NNNI10
I1
I0
tp2649
bS'interest_5'
p2650
tp2651
Rp2652
ag2
(g3
(S'S10'
p2653
I0
I1
tp2654
Rp2655
(I3
S'|'
p2656
NNNI10
I1
I0
tp2657
bS'interest_6'
p2658
tp2659
Rp2660
ag2
(g3
(S'S10'
p2661
I0
I1
tp2662
Rp2663
(I3
S'|'
p2664
NNNI10
I1
I0
tp2665
bS'interest_5'
p2666
tp2667
Rp2668
ag2
(g3
(S'S10'
p2669
I0
I1
tp2670
Rp2671
(I3
S'|'
p2672
NNNI10
I1
I0
tp2673
bS'interest_6'
p2674
tp2675
Rp2676
ag2
(g3
(S'S10'
p2677
I0
I1
tp2678
Rp2679
(I3
S'|'
p2680
NNNI10
I1
I0
tp2681
bS'interest_6'
p2682
tp2683
Rp2684
ag2
(g3
(S'S10'
p2685
I0
I1
tp2686
Rp2687
(I3
S'|'
p2688
NNNI10
I1
I0
tp2689
bS'interest_6'
p2690
tp2691
Rp2692
ag2
(g3
(S'S10'
p2693
I0
I1
tp2694
Rp2695
(I3
S'|'
p2696
NNNI10
I1
I0
tp2697
bS'interest_5'
p2698
tp2699
Rp2700
ag2
(g3
(S'S10'
p2701
I0
I1
tp2702
Rp2703
(I3
S'|'
p2704
NNNI10
I1
I0
tp2705
bS'interest_3'
p2706
tp2707
Rp2708
ag2
(g3
(S'S10'
p2709
I0
I1
tp2710
Rp2711
(I3
S'|'
p2712
NNNI10
I1
I0
tp2713
bS'interest_6'
p2714
tp2715
Rp2716
ag2
(g3
(S'S10'
p2717
I0
I1
tp2718
Rp2719
(I3
S'|'
p2720
NNNI10
I1
I0
tp2721
bS'interest_1'
p2722
tp2723
Rp2724
ag2
(g3
(S'S10'
p2725
I0
I1
tp2726
Rp2727
(I3
S'|'
p2728
NNNI10
I1
I0
tp2729
bS'interest_1'
p2730
tp2731
Rp2732
ag2
(g3
(S'S10'
p2733
I0
I1
tp2734
Rp2735
(I3
S'|'
p2736
NNNI10
I1
I0
tp2737
bS'interest_6'
p2738
tp2739
Rp2740
ag2
(g3
(S'S10'
p2741
I0
I1
tp2742
Rp2743
(I3
S'|'
p2744
NNNI10
I1
I0
tp2745
bS'interest_6'
p2746
tp2747
Rp2748
ag2
(g3
(S'S10'
p2749
I0
I1
tp2750
Rp2751
(I3
S'|'
p2752
NNNI10
I1
I0
tp2753
bS'interest_6'
p2754
tp2755
Rp2756
ag2
(g3
(S'S10'
p2757
I0
I1
tp2758
Rp2759
(I3
S'|'
p2760
NNNI10
I1
I0
tp2761
bS'interest_1'
p2762
tp2763
Rp2764
ag2
(g3
(S'S10'
p2765
I0
I1
tp2766
Rp2767
(I3
S'|'
p2768
NNNI10
I1
I0
tp2769
bS'interest_6'
p2770
tp2771
Rp2772
ag2
(g3
(S'S10'
p2773
I0
I1
tp2774
Rp2775
(I3
S'|'
p2776
NNNI10
I1
I0
tp2777
bS'interest_6'
p2778
tp2779
Rp2780
ag2
(g3
(S'S10'
p2781
I0
I1
tp2782
Rp2783
(I3
S'|'
p2784
NNNI10
I1
I0
tp2785
bS'interest_5'
p2786
tp2787
Rp2788
ag2
(g3
(S'S10'
p2789
I0
I1
tp2790
Rp2791
(I3
S'|'
p2792
NNNI10
I1
I0
tp2793
bS'interest_6'
p2794
tp2795
Rp2796
ag2
(g3
(S'S10'
p2797
I0
I1
tp2798
Rp2799
(I3
S'|'
p2800
NNNI10
I1
I0
tp2801
bS'interest_5'
p2802
tp2803
Rp2804
ag2
(g3
(S'S10'
p2805
I0
I1
tp2806
Rp2807
(I3
S'|'
p2808
NNNI10
I1
I0
tp2809
bS'interest_6'
p2810
tp2811
Rp2812
ag2
(g3
(S'S10'
p2813
I0
I1
tp2814
Rp2815
(I3
S'|'
p2816
NNNI10
I1
I0
tp2817
bS'interest_6'
p2818
tp2819
Rp2820
ag2
(g3
(S'S10'
p2821
I0
I1
tp2822
Rp2823
(I3
S'|'
p2824
NNNI10
I1
I0
tp2825
bS'interest_5'
p2826
tp2827
Rp2828
ag2
(g3
(S'S10'
p2829
I0
I1
tp2830
Rp2831
(I3
S'|'
p2832
NNNI10
I1
I0
tp2833
bS'interest_4'
p2834
tp2835
Rp2836
ag2
(g3
(S'S10'
p2837
I0
I1
tp2838
Rp2839
(I3
S'|'
p2840
NNNI10
I1
I0
tp2841
bS'interest_5'
p2842
tp2843
Rp2844
ag2
(g3
(S'S10'
p2845
I0
I1
tp2846
Rp2847
(I3
S'|'
p2848
NNNI10
I1
I0
tp2849
bS'interest_6'
p2850
tp2851
Rp2852
ag2
(g3
(S'S10'
p2853
I0
I1
tp2854
Rp2855
(I3
S'|'
p2856
NNNI10
I1
I0
tp2857
bS'interest_6'
p2858
tp2859
Rp2860
ag2
(g3
(S'S10'
p2861
I0
I1
tp2862
Rp2863
(I3
S'|'
p2864
NNNI10
I1
I0
tp2865
bS'interest_1'
p2866
tp2867
Rp2868
ag2
(g3
(S'S10'
p2869
I0
I1
tp2870
Rp2871
(I3
S'|'
p2872
NNNI10
I1
I0
tp2873
bS'interest_6'
p2874
tp2875
Rp2876
ag2
(g3
(S'S10'
p2877
I0
I1
tp2878
Rp2879
(I3
S'|'
p2880
NNNI10
I1
I0
tp2881
bS'interest_6'
p2882
tp2883
Rp2884
ag2
(g3
(S'S10'
p2885
I0
I1
tp2886
Rp2887
(I3
S'|'
p2888
NNNI10
I1
I0
tp2889
bS'interest_6'
p2890
tp2891
Rp2892
ag2
(g3
(S'S10'
p2893
I0
I1
tp2894
Rp2895
(I3
S'|'
p2896
NNNI10
I1
I0
tp2897
bS'interest_4'
p2898
tp2899
Rp2900
ag2
(g3
(S'S10'
p2901
I0
I1
tp2902
Rp2903
(I3
S'|'
p2904
NNNI10
I1
I0
tp2905
bS'interest_6'
p2906
tp2907
Rp2908
ag2
(g3
(S'S10'
p2909
I0
I1
tp2910
Rp2911
(I3
S'|'
p2912
NNNI10
I1
I0
tp2913
bS'interest_6'
p2914
tp2915
Rp2916
ag2
(g3
(S'S10'
p2917
I0
I1
tp2918
Rp2919
(I3
S'|'
p2920
NNNI10
I1
I0
tp2921
bS'interest_6'
p2922
tp2923
Rp2924
ag2
(g3
(S'S10'
p2925
I0
I1
tp2926
Rp2927
(I3
S'|'
p2928
NNNI10
I1
I0
tp2929
bS'interest_5'
p2930
tp2931
Rp2932
ag2
(g3
(S'S10'
p2933
I0
I1
tp2934
Rp2935
(I3
S'|'
p2936
NNNI10
I1
I0
tp2937
bS'interest_6'
p2938
tp2939
Rp2940
ag2
(g3
(S'S10'
p2941
I0
I1
tp2942
Rp2943
(I3
S'|'
p2944
NNNI10
I1
I0
tp2945
bS'interest_6'
p2946
tp2947
Rp2948
ag2
(g3
(S'S10'
p2949
I0
I1
tp2950
Rp2951
(I3
S'|'
p2952
NNNI10
I1
I0
tp2953
bS'interest_6'
p2954
tp2955
Rp2956
ag2
(g3
(S'S10'
p2957
I0
I1
tp2958
Rp2959
(I3
S'|'
p2960
NNNI10
I1
I0
tp2961
bS'interest_1'
p2962
tp2963
Rp2964
ag2
(g3
(S'S10'
p2965
I0
I1
tp2966
Rp2967
(I3
S'|'
p2968
NNNI10
I1
I0
tp2969
bS'interest_6'
p2970
tp2971
Rp2972
ag2
(g3
(S'S10'
p2973
I0
I1
tp2974
Rp2975
(I3
S'|'
p2976
NNNI10
I1
I0
tp2977
bS'interest_6'
p2978
tp2979
Rp2980
ag2
(g3
(S'S10'
p2981
I0
I1
tp2982
Rp2983
(I3
S'|'
p2984
NNNI10
I1
I0
tp2985
bS'interest_6'
p2986
tp2987
Rp2988
ag2
(g3
(S'S10'
p2989
I0
I1
tp2990
Rp2991
(I3
S'|'
p2992
NNNI10
I1
I0
tp2993
bS'interest_6'
p2994
tp2995
Rp2996
ag2
(g3
(S'S10'
p2997
I0
I1
tp2998
Rp2999
(I3
S'|'
p3000
NNNI10
I1
I0
tp3001
bS'interest_4'
p3002
tp3003
Rp3004
ag2
(g3
(S'S10'
p3005
I0
I1
tp3006
Rp3007
(I3
S'|'
p3008
NNNI10
I1
I0
tp3009
bS'interest_6'
p3010
tp3011
Rp3012
ag2
(g3
(S'S10'
p3013
I0
I1
tp3014
Rp3015
(I3
S'|'
p3016
NNNI10
I1
I0
tp3017
bS'interest_6'
p3018
tp3019
Rp3020
ag2
(g3
(S'S10'
p3021
I0
I1
tp3022
Rp3023
(I3
S'|'
p3024
NNNI10
I1
I0
tp3025
bS'interest_6'
p3026
tp3027
Rp3028
ag2
(g3
(S'S10'
p3029
I0
I1
tp3030
Rp3031
(I3
S'|'
p3032
NNNI10
I1
I0
tp3033
bS'interest_5'
p3034
tp3035
Rp3036
ag2
(g3
(S'S10'
p3037
I0
I1
tp3038
Rp3039
(I3
S'|'
p3040
NNNI10
I1
I0
tp3041
bS'interest_1'
p3042
tp3043
Rp3044
ag2
(g3
(S'S10'
p3045
I0
I1
tp3046
Rp3047
(I3
S'|'
p3048
NNNI10
I1
I0
tp3049
bS'interest_5'
p3050
tp3051
Rp3052
ag2
(g3
(S'S10'
p3053
I0
I1
tp3054
Rp3055
(I3
S'|'
p3056
NNNI10
I1
I0
tp3057
bS'interest_6'
p3058
tp3059
Rp3060
ag2
(g3
(S'S10'
p3061
I0
I1
tp3062
Rp3063
(I3
S'|'
p3064
NNNI10
I1
I0
tp3065
bS'interest_4'
p3066
tp3067
Rp3068
ag2
(g3
(S'S10'
p3069
I0
I1
tp3070
Rp3071
(I3
S'|'
p3072
NNNI10
I1
I0
tp3073
bS'interest_6'
p3074
tp3075
Rp3076
ag2
(g3
(S'S10'
p3077
I0
I1
tp3078
Rp3079
(I3
S'|'
p3080
NNNI10
I1
I0
tp3081
bS'interest_5'
p3082
tp3083
Rp3084
ag2
(g3
(S'S10'
p3085
I0
I1
tp3086
Rp3087
(I3
S'|'
p3088
NNNI10
I1
I0
tp3089
bS'interest_4'
p3090
tp3091
Rp3092
ag2
(g3
(S'S10'
p3093
I0
I1
tp3094
Rp3095
(I3
S'|'
p3096
NNNI10
I1
I0
tp3097
bS'interest_6'
p3098
tp3099
Rp3100
ag2
(g3
(S'S10'
p3101
I0
I1
tp3102
Rp3103
(I3
S'|'
p3104
NNNI10
I1
I0
tp3105
bS'interest_1'
p3106
tp3107
Rp3108
ag2
(g3
(S'S10'
p3109
I0
I1
tp3110
Rp3111
(I3
S'|'
p3112
NNNI10
I1
I0
tp3113
bS'interest_1'
p3114
tp3115
Rp3116
ag2
(g3
(S'S10'
p3117
I0
I1
tp3118
Rp3119
(I3
S'|'
p3120
NNNI10
I1
I0
tp3121
bS'interest_5'
p3122
tp3123
Rp3124
ag2
(g3
(S'S10'
p3125
I0
I1
tp3126
Rp3127
(I3
S'|'
p3128
NNNI10
I1
I0
tp3129
bS'interest_5'
p3130
tp3131
Rp3132
ag2
(g3
(S'S10'
p3133
I0
I1
tp3134
Rp3135
(I3
S'|'
p3136
NNNI10
I1
I0
tp3137
bS'interest_5'
p3138
tp3139
Rp3140
ag2
(g3
(S'S10'
p3141
I0
I1
tp3142
Rp3143
(I3
S'|'
p3144
NNNI10
I1
I0
tp3145
bS'interest_6'
p3146
tp3147
Rp3148
ag2
(g3
(S'S10'
p3149
I0
I1
tp3150
Rp3151
(I3
S'|'
p3152
NNNI10
I1
I0
tp3153
bS'interest_1'
p3154
tp3155
Rp3156
ag2
(g3
(S'S10'
p3157
I0
I1
tp3158
Rp3159
(I3
S'|'
p3160
NNNI10
I1
I0
tp3161
bS'interest_5'
p3162
tp3163
Rp3164
ag2
(g3
(S'S10'
p3165
I0
I1
tp3166
Rp3167
(I3
S'|'
p3168
NNNI10
I1
I0
tp3169
bS'interest_6'
p3170
tp3171
Rp3172
ag2
(g3
(S'S10'
p3173
I0
I1
tp3174
Rp3175
(I3
S'|'
p3176
NNNI10
I1
I0
tp3177
bS'interest_5'
p3178
tp3179
Rp3180
ag2
(g3
(S'S10'
p3181
I0
I1
tp3182
Rp3183
(I3
S'|'
p3184
NNNI10
I1
I0
tp3185
bS'interest_1'
p3186
tp3187
Rp3188
ag2
(g3
(S'S10'
p3189
I0
I1
tp3190
Rp3191
(I3
S'|'
p3192
NNNI10
I1
I0
tp3193
bS'interest_4'
p3194
tp3195
Rp3196
ag2
(g3
(S'S10'
p3197
I0
I1
tp3198
Rp3199
(I3
S'|'
p3200
NNNI10
I1
I0
tp3201
bS'interest_6'
p3202
tp3203
Rp3204
ag2
(g3
(S'S10'
p3205
I0
I1
tp3206
Rp3207
(I3
S'|'
p3208
NNNI10
I1
I0
tp3209
bS'interest_6'
p3210
tp3211
Rp3212
ag2
(g3
(S'S10'
p3213
I0
I1
tp3214
Rp3215
(I3
S'|'
p3216
NNNI10
I1
I0
tp3217
bS'interest_5'
p3218
tp3219
Rp3220
ag2
(g3
(S'S10'
p3221
I0
I1
tp3222
Rp3223
(I3
S'|'
p3224
NNNI10
I1
I0
tp3225
bS'interest_6'
p3226
tp3227
Rp3228
ag2
(g3
(S'S10'
p3229
I0
I1
tp3230
Rp3231
(I3
S'|'
p3232
NNNI10
I1
I0
tp3233
bS'interest_6'
p3234
tp3235
Rp3236
ag2
(g3
(S'S10'
p3237
I0
I1
tp3238
Rp3239
(I3
S'|'
p3240
NNNI10
I1
I0
tp3241
bS'interest_1'
p3242
tp3243
Rp3244
ag2
(g3
(S'S10'
p3245
I0
I1
tp3246
Rp3247
(I3
S'|'
p3248
NNNI10
I1
I0
tp3249
bS'interest_5'
p3250
tp3251
Rp3252
ag2
(g3
(S'S10'
p3253
I0
I1
tp3254
Rp3255
(I3
S'|'
p3256
NNNI10
I1
I0
tp3257
bS'interest_1'
p3258
tp3259
Rp3260
ag2
(g3
(S'S10'
p3261
I0
I1
tp3262
Rp3263
(I3
S'|'
p3264
NNNI10
I1
I0
tp3265
bS'interest_5'
p3266
tp3267
Rp3268
ag2
(g3
(S'S10'
p3269
I0
I1
tp3270
Rp3271
(I3
S'|'
p3272
NNNI10
I1
I0
tp3273
bS'interest_3'
p3274
tp3275
Rp3276
ag2
(g3
(S'S10'
p3277
I0
I1
tp3278
Rp3279
(I3
S'|'
p3280
NNNI10
I1
I0
tp3281
bS'interest_6'
p3282
tp3283
Rp3284
ag2
(g3
(S'S10'
p3285
I0
I1
tp3286
Rp3287
(I3
S'|'
p3288
NNNI10
I1
I0
tp3289
bS'interest_1'
p3290
tp3291
Rp3292
ag2
(g3
(S'S10'
p3293
I0
I1
tp3294
Rp3295
(I3
S'|'
p3296
NNNI10
I1
I0
tp3297
bS'interest_5'
p3298
tp3299
Rp3300
ag2
(g3
(S'S10'
p3301
I0
I1
tp3302
Rp3303
(I3
S'|'
p3304
NNNI10
I1
I0
tp3305
bS'interest_6'
p3306
tp3307
Rp3308
ag2
(g3
(S'S10'
p3309
I0
I1
tp3310
Rp3311
(I3
S'|'
p3312
NNNI10
I1
I0
tp3313
bS'interest_6'
p3314
tp3315
Rp3316
ag2
(g3
(S'S10'
p3317
I0
I1
tp3318
Rp3319
(I3
S'|'
p3320
NNNI10
I1
I0
tp3321
bS'interest_5'
p3322
tp3323
Rp3324
ag2
(g3
(S'S10'
p3325
I0
I1
tp3326
Rp3327
(I3
S'|'
p3328
NNNI10
I1
I0
tp3329
bS'interest_6'
p3330
tp3331
Rp3332
ag2
(g3
(S'S10'
p3333
I0
I1
tp3334
Rp3335
(I3
S'|'
p3336
NNNI10
I1
I0
tp3337
bS'interest_6'
p3338
tp3339
Rp3340
ag2
(g3
(S'S10'
p3341
I0
I1
tp3342
Rp3343
(I3
S'|'
p3344
NNNI10
I1
I0
tp3345
bS'interest_6'
p3346
tp3347
Rp3348
ag2
(g3
(S'S10'
p3349
I0
I1
tp3350
Rp3351
(I3
S'|'
p3352
NNNI10
I1
I0
tp3353
bS'interest_6'
p3354
tp3355
Rp3356
ag2
(g3
(S'S10'
p3357
I0
I1
tp3358
Rp3359
(I3
S'|'
p3360
NNNI10
I1
I0
tp3361
bS'interest_6'
p3362
tp3363
Rp3364
ag2
(g3
(S'S10'
p3365
I0
I1
tp3366
Rp3367
(I3
S'|'
p3368
NNNI10
I1
I0
tp3369
bS'interest_5'
p3370
tp3371
Rp3372
ag2
(g3
(S'S10'
p3373
I0
I1
tp3374
Rp3375
(I3
S'|'
p3376
NNNI10
I1
I0
tp3377
bS'interest_1'
p3378
tp3379
Rp3380
ag2
(g3
(S'S10'
p3381
I0
I1
tp3382
Rp3383
(I3
S'|'
p3384
NNNI10
I1
I0
tp3385
bS'interest_5'
p3386
tp3387
Rp3388
ag2
(g3
(S'S10'
p3389
I0
I1
tp3390
Rp3391
(I3
S'|'
p3392
NNNI10
I1
I0
tp3393
bS'interest_4'
p3394
tp3395
Rp3396
ag2
(g3
(S'S10'
p3397
I0
I1
tp3398
Rp3399
(I3
S'|'
p3400
NNNI10
I1
I0
tp3401
bS'interest_6'
p3402
tp3403
Rp3404
ag2
(g3
(S'S10'
p3405
I0
I1
tp3406
Rp3407
(I3
S'|'
p3408
NNNI10
I1
I0
tp3409
bS'interest_6'
p3410
tp3411
Rp3412
ag2
(g3
(S'S10'
p3413
I0
I1
tp3414
Rp3415
(I3
S'|'
p3416
NNNI10
I1
I0
tp3417
bS'interest_6'
p3418
tp3419
Rp3420
ag2
(g3
(S'S10'
p3421
I0
I1
tp3422
Rp3423
(I3
S'|'
p3424
NNNI10
I1
I0
tp3425
bS'interest_5'
p3426
tp3427
Rp3428
ag2
(g3
(S'S10'
p3429
I0
I1
tp3430
Rp3431
(I3
S'|'
p3432
NNNI10
I1
I0
tp3433
bS'interest_6'
p3434
tp3435
Rp3436
ag2
(g3
(S'S10'
p3437
I0
I1
tp3438
Rp3439
(I3
S'|'
p3440
NNNI10
I1
I0
tp3441
bS'interest_6'
p3442
tp3443
Rp3444
ag2
(g3
(S'S10'
p3445
I0
I1
tp3446
Rp3447
(I3
S'|'
p3448
NNNI10
I1
I0
tp3449
bS'interest_1'
p3450
tp3451
Rp3452
ag2
(g3
(S'S10'
p3453
I0
I1
tp3454
Rp3455
(I3
S'|'
p3456
NNNI10
I1
I0
tp3457
bS'interest_5'
p3458
tp3459
Rp3460
ag2
(g3
(S'S10'
p3461
I0
I1
tp3462
Rp3463
(I3
S'|'
p3464
NNNI10
I1
I0
tp3465
bS'interest_5'
p3466
tp3467
Rp3468
ag2
(g3
(S'S10'
p3469
I0
I1
tp3470
Rp3471
(I3
S'|'
p3472
NNNI10
I1
I0
tp3473
bS'interest_5'
p3474
tp3475
Rp3476
ag2
(g3
(S'S10'
p3477
I0
I1
tp3478
Rp3479
(I3
S'|'
p3480
NNNI10
I1
I0
tp3481
bS'interest_6'
p3482
tp3483
Rp3484
ag2
(g3
(S'S10'
p3485
I0
I1
tp3486
Rp3487
(I3
S'|'
p3488
NNNI10
I1
I0
tp3489
bS'interest_6'
p3490
tp3491
Rp3492
ag2
(g3
(S'S10'
p3493
I0
I1
tp3494
Rp3495
(I3
S'|'
p3496
NNNI10
I1
I0
tp3497
bS'interest_5'
p3498
tp3499
Rp3500
ag2
(g3
(S'S10'
p3501
I0
I1
tp3502
Rp3503
(I3
S'|'
p3504
NNNI10
I1
I0
tp3505
bS'interest_6'
p3506
tp3507
Rp3508
ag2
(g3
(S'S10'
p3509
I0
I1
tp3510
Rp3511
(I3
S'|'
p3512
NNNI10
I1
I0
tp3513
bS'interest_5'
p3514
tp3515
Rp3516
ag2
(g3
(S'S10'
p3517
I0
I1
tp3518
Rp3519
(I3
S'|'
p3520
NNNI10
I1
I0
tp3521
bS'interest_1'
p3522
tp3523
Rp3524
ag2
(g3
(S'S10'
p3525
I0
I1
tp3526
Rp3527
(I3
S'|'
p3528
NNNI10
I1
I0
tp3529
bS'interest_5'
p3530
tp3531
Rp3532
ag2
(g3
(S'S10'
p3533
I0
I1
tp3534
Rp3535
(I3
S'|'
p3536
NNNI10
I1
I0
tp3537
bS'interest_6'
p3538
tp3539
Rp3540
ag2
(g3
(S'S10'
p3541
I0
I1
tp3542
Rp3543
(I3
S'|'
p3544
NNNI10
I1
I0
tp3545
bS'interest_6'
p3546
tp3547
Rp3548
ag2
(g3
(S'S10'
p3549
I0
I1
tp3550
Rp3551
(I3
S'|'
p3552
NNNI10
I1
I0
tp3553
bS'interest_6'
p3554
tp3555
Rp3556
ag2
(g3
(S'S10'
p3557
I0
I1
tp3558
Rp3559
(I3
S'|'
p3560
NNNI10
I1
I0
tp3561
bS'interest_1'
p3562
tp3563
Rp3564
ag2
(g3
(S'S10'
p3565
I0
I1
tp3566
Rp3567
(I3
S'|'
p3568
NNNI10
I1
I0
tp3569
bS'interest_1'
p3570
tp3571
Rp3572
ag2
(g3
(S'S10'
p3573
I0
I1
tp3574
Rp3575
(I3
S'|'
p3576
NNNI10
I1
I0
tp3577
bS'interest_5'
p3578
tp3579
Rp3580
ag2
(g3
(S'S10'
p3581
I0
I1
tp3582
Rp3583
(I3
S'|'
p3584
NNNI10
I1
I0
tp3585
bS'interest_6'
p3586
tp3587
Rp3588
ag2
(g3
(S'S10'
p3589
I0
I1
tp3590
Rp3591
(I3
S'|'
p3592
NNNI10
I1
I0
tp3593
bS'interest_6'
p3594
tp3595
Rp3596
ag2
(g3
(S'S10'
p3597
I0
I1
tp3598
Rp3599
(I3
S'|'
p3600
NNNI10
I1
I0
tp3601
bS'interest_6'
p3602
tp3603
Rp3604
ag2
(g3
(S'S10'
p3605
I0
I1
tp3606
Rp3607
(I3
S'|'
p3608
NNNI10
I1
I0
tp3609
bS'interest_6'
p3610
tp3611
Rp3612
ag2
(g3
(S'S10'
p3613
I0
I1
tp3614
Rp3615
(I3
S'|'
p3616
NNNI10
I1
I0
tp3617
bS'interest_6'
p3618
tp3619
Rp3620
ag2
(g3
(S'S10'
p3621
I0
I1
tp3622
Rp3623
(I3
S'|'
p3624
NNNI10
I1
I0
tp3625
bS'interest_3'
p3626
tp3627
Rp3628
ag2
(g3
(S'S10'
p3629
I0
I1
tp3630
Rp3631
(I3
S'|'
p3632
NNNI10
I1
I0
tp3633
bS'interest_5'
p3634
tp3635
Rp3636
ag2
(g3
(S'S10'
p3637
I0
I1
tp3638
Rp3639
(I3
S'|'
p3640
NNNI10
I1
I0
tp3641
bS'interest_4'
p3642
tp3643
Rp3644
ag2
(g3
(S'S10'
p3645
I0
I1
tp3646
Rp3647
(I3
S'|'
p3648
NNNI10
I1
I0
tp3649
bS'interest_6'
p3650
tp3651
Rp3652
ag2
(g3
(S'S10'
p3653
I0
I1
tp3654
Rp3655
(I3
S'|'
p3656
NNNI10
I1
I0
tp3657
bS'interest_1'
p3658
tp3659
Rp3660
ag2
(g3
(S'S10'
p3661
I0
I1
tp3662
Rp3663
(I3
S'|'
p3664
NNNI10
I1
I0
tp3665
bS'interest_6'
p3666
tp3667
Rp3668
ag2
(g3
(S'S10'
p3669
I0
I1
tp3670
Rp3671
(I3
S'|'
p3672
NNNI10
I1
I0
tp3673
bS'interest_4'
p3674
tp3675
Rp3676
ag2
(g3
(S'S10'
p3677
I0
I1
tp3678
Rp3679
(I3
S'|'
p3680
NNNI10
I1
I0
tp3681
bS'interest_6'
p3682
tp3683
Rp3684
ag2
(g3
(S'S10'
p3685
I0
I1
tp3686
Rp3687
(I3
S'|'
p3688
NNNI10
I1
I0
tp3689
bS'interest_5'
p3690
tp3691
Rp3692
ag2
(g3
(S'S10'
p3693
I0
I1
tp3694
Rp3695
(I3
S'|'
p3696
NNNI10
I1
I0
tp3697
bS'interest_6'
p3698
tp3699
Rp3700
ag2
(g3
(S'S10'
p3701
I0
I1
tp3702
Rp3703
(I3
S'|'
p3704
NNNI10
I1
I0
tp3705
bS'interest_6'
p3706
tp3707
Rp3708
ag2
(g3
(S'S10'
p3709
I0
I1
tp3710
Rp3711
(I3
S'|'
p3712
NNNI10
I1
I0
tp3713
bS'interest_2'
p3714
tp3715
Rp3716
ag2
(g3
(S'S10'
p3717
I0
I1
tp3718
Rp3719
(I3
S'|'
p3720
NNNI10
I1
I0
tp3721
bS'interest_4'
p3722
tp3723
Rp3724
ag2
(g3
(S'S10'
p3725
I0
I1
tp3726
Rp3727
(I3
S'|'
p3728
NNNI10
I1
I0
tp3729
bS'interest_1'
p3730
tp3731
Rp3732
ag2
(g3
(S'S10'
p3733
I0
I1
tp3734
Rp3735
(I3
S'|'
p3736
NNNI10
I1
I0
tp3737
bS'interest_6'
p3738
tp3739
Rp3740
ag2
(g3
(S'S10'
p3741
I0
I1
tp3742
Rp3743
(I3
S'|'
p3744
NNNI10
I1
I0
tp3745
bS'interest_6'
p3746
tp3747
Rp3748
ag2
(g3
(S'S10'
p3749
I0
I1
tp3750
Rp3751
(I3
S'|'
p3752
NNNI10
I1
I0
tp3753
bS'interest_4'
p3754
tp3755
Rp3756
ag2
(g3
(S'S10'
p3757
I0
I1
tp3758
Rp3759
(I3
S'|'
p3760
NNNI10
I1
I0
tp3761
bS'interest_5'
p3762
tp3763
Rp3764
ag2
(g3
(S'S10'
p3765
I0
I1
tp3766
Rp3767
(I3
S'|'
p3768
NNNI10
I1
I0
tp3769
bS'interest_5'
p3770
tp3771
Rp3772
ag2
(g3
(S'S10'
p3773
I0
I1
tp3774
Rp3775
(I3
S'|'
p3776
NNNI10
I1
I0
tp3777
bS'interest_5'
p3778
tp3779
Rp3780
aa(lp3781
S'interest_2'
p3782
aS'interest_6'
p3783
ag3782
ag3782
ag3782
ag3783
ag3782
ag3782
ag3782
ag3782
aS'interest_5'
p3784
ag3782
ag3782
ag3782
aS'interest_3'
p3785
ag3783
ag3784
ag3782
aS'interest_4'
p3786
ag3782
ag3782
ag3783
aS'interest_1'
p3787
ag3783
ag3787
ag3782
ag3782
ag3783
ag3782
ag3782
ag3782
ag3782
ag3782
ag3783
ag3783
ag3786
ag3782
ag3782
ag3782
ag3782
ag3784
ag3782
ag3782
ag3782
ag3782
ag3782
ag3782
ag3782
ag3787
ag3783
ag3784
ag3783
ag3783
ag3782
ag3784
ag3782
ag3782
ag3782
ag3782
ag3782
ag3782
ag3782
ag3784
ag3782
ag3783
ag3782
ag3783
ag3782
ag3784
ag3784
ag3782
ag3782
ag3782
ag3784
ag3783
ag3782
ag3786
ag3784
ag3782
ag3785
ag3783
ag3783
ag3782
ag3787
ag3783
ag3783
ag3782
ag3783
ag3782
ag3782
ag3783
ag3783
ag3782
ag3783
ag3784
ag3783
ag3782
ag3782
ag3782
ag3783
ag3782
ag3785
ag3783
ag3782
ag3782
ag3782
ag3783
ag3782
ag3782
ag3783
ag3782
ag3782
ag3783
ag3784
ag3783
ag3782
ag3784
ag3786
ag3784
ag3783
ag3783
ag3782
ag3783
ag3782
ag3782
ag3782
ag3783
ag3783
ag3783
ag3782
ag3783
ag3783
ag3783
ag3782
ag3782
ag3782
ag3782
ag3783
ag3782
ag3783
ag3783
ag3783
ag3782
ag3782
ag3782
ag3783
ag3782
ag3783
ag3784
ag3782
ag3782
ag3782
ag3782
ag3782
ag3782
ag3784
ag3783
ag3782
ag3782
ag3782
ag3784
ag3782
ag3782
ag3782
ag3783
ag3784
ag3783
ag3782
ag3786
ag3782
ag3782
ag3782
ag3782
ag3783
ag3786
ag3782
ag3783
ag3786
ag3782
ag3782
ag3782
ag3783
ag3783
ag3782
ag3784
ag3782
ag3784
ag3782
ag3782
ag3782
ag3783
ag3784
ag3783
ag3782
ag3782
ag3782
ag3782
ag3784
ag3783
ag3783
ag3782
ag3783
ag3782
ag3782
ag3782
ag3782
ag3783
ag3782
ag3782
ag3786
ag3784
ag3782
ag3782
ag3783
ag3782
ag3782
ag3782
ag3784
ag3786
ag3782
ag3787
ag3782
ag3785
ag3782
ag3784
ag3782
ag3782
ag3782
ag3785
ag3782
ag3782
ag3782
ag3786
ag3784
ag3782
ag3784
aa(lp3788
g3784
ag3783
ag3783
ag3787
ag3783
ag3783
ag3783
ag3783
ag3783
ag3783
ag3784
ag3787
ag3783
ag3783
ag3783
ag3783
ag3784
ag3787
ag3784
ag3783
ag3784
ag3783
ag3787
ag3783
ag3787
ag3783
ag3783
ag3783
ag3783
ag3787
ag3783
ag3787
ag3783
ag3783
ag3783
ag3784
ag3783
ag3783
ag3783
ag3783
ag3784
ag3784
ag3783
ag3787
ag3787
ag3787
ag3783
ag3783
ag3787
ag3783
ag3784
ag3783
ag3783
ag3787
ag3784
ag3787
ag3787
ag3783
ag3783
ag3783
ag3783
ag3787
ag3784
ag3783
ag3783
ag3783
ag3783
ag3784
ag3784
ag3784
ag3783
ag3783
ag3783
ag3784
ag3783
ag3784
ag3786
ag3784
ag3783
ag3785
ag3783
ag3783
ag3784
ag3783
ag3783
ag3783
ag3783
ag3783
ag3783
ag3784
ag3783
ag3783
ag3783
ag3783
ag3784
ag3783
ag3784
ag3783
ag3783
ag3783
ag3784
ag3785
ag3783
ag3787
ag3787
ag3783
ag3783
ag3783
ag3787
ag3783
ag3783
ag3784
ag3783
ag3784
ag3783
ag3783
ag3784
ag3783
ag3784
ag3783
ag3783
ag3787
ag3783
ag3783
ag3783
ag3783
ag3783
ag3783
ag3783
ag3784
ag3783
ag3783
ag3783
ag3787
ag3783
ag3787
ag3783
ag3783
ag3786
ag3783
ag3783
ag3783
ag3784
ag3783
ag3784
ag3783
ag3783
ag3783
ag3784
ag3783
ag3783
ag3783
ag3784
ag3783
ag3784
ag3784
ag3783
ag3787
ag3784
ag3783
ag3784
ag3783
ag3786
ag3783
ag3783
ag3784
ag3783
ag3783
ag3783
ag3784
ag3783
ag3783
ag3786
ag3783
ag3787
ag3783
ag3783
ag3786
ag3784
ag3783
ag3783
ag3783
ag3783
ag3783
ag3784
ag3784
ag3784
ag3783
ag3783
ag3783
ag3783
ag3784
ag3783
ag3783
ag3787
ag3784
ag3786
ag3784
ag3783
ag3783
ag3784
ag3783
ag3784
ag3783
ag3784
ag3783
ag3783
ag3783
ag3787
ag3787
ag3784
ag3783
ag3783
ag3783
ag3783
ag3783
ag3783
ag3784
ag3786
ag3783
ag3787
ag3783
ag3783
ag3783
ag3784
ag3783
ag3783
ag3787
ag3783
ag3783
ag3783
ag3783
ag3786
ag3784
ag3784
ag3784
aa(lp3789
g2
(g3
(S'S10'
p3790
I0
I1
tp3791
Rp3792
(I3
S'|'
p3793
NNNI10
I1
I0
tp3794
bS'interest_1'
p3795
tp3796
Rp3797
ag2
(g3
(S'S10'
p3798
I0
I1
tp3799
Rp3800
(I3
S'|'
p3801
NNNI10
I1
I0
tp3802
bS'interest_6'
p3803
tp3804
Rp3805
ag2
(g3
(S'S10'
p3806
I0
I1
tp3807
Rp3808
(I3
S'|'
p3809
NNNI10
I1
I0
tp3810
bS'interest_6'
p3811
tp3812
Rp3813
ag2
(g3
(S'S10'
p3814
I0
I1
tp3815
Rp3816
(I3
S'|'
p3817
NNNI10
I1
I0
tp3818
bS'interest_4'
p3819
tp3820
Rp3821
ag2
(g3
(S'S10'
p3822
I0
I1
tp3823
Rp3824
(I3
S'|'
p3825
NNNI10
I1
I0
tp3826
bS'interest_6'
p3827
tp3828
Rp3829
ag2
(g3
(S'S10'
p3830
I0
I1
tp3831
Rp3832
(I3
S'|'
p3833
NNNI10
I1
I0
tp3834
bS'interest_6'
p3835
tp3836
Rp3837
ag2
(g3
(S'S10'
p3838
I0
I1
tp3839
Rp3840
(I3
S'|'
p3841
NNNI10
I1
I0
tp3842
bS'interest_6'
p3843
tp3844
Rp3845
ag2
(g3
(S'S10'
p3846
I0
I1
tp3847
Rp3848
(I3
S'|'
p3849
NNNI10
I1
I0
tp3850
bS'interest_6'
p3851
tp3852
Rp3853
ag2
(g3
(S'S10'
p3854
I0
I1
tp3855
Rp3856
(I3
S'|'
p3857
NNNI10
I1
I0
tp3858
bS'interest_6'
p3859
tp3860
Rp3861
ag2
(g3
(S'S10'
p3862
I0
I1
tp3863
Rp3864
(I3
S'|'
p3865
NNNI10
I1
I0
tp3866
bS'interest_6'
p3867
tp3868
Rp3869
ag2
(g3
(S'S10'
p3870
I0
I1
tp3871
Rp3872
(I3
S'|'
p3873
NNNI10
I1
I0
tp3874
bS'interest_5'
p3875
tp3876
Rp3877
ag2
(g3
(S'S10'
p3878
I0
I1
tp3879
Rp3880
(I3
S'|'
p3881
NNNI10
I1
I0
tp3882
bS'interest_1'
p3883
tp3884
Rp3885
ag2
(g3
(S'S10'
p3886
I0
I1
tp3887
Rp3888
(I3
S'|'
p3889
NNNI10
I1
I0
tp3890
bS'interest_6'
p3891
tp3892
Rp3893
ag2
(g3
(S'S10'
p3894
I0
I1
tp3895
Rp3896
(I3
S'|'
p3897
NNNI10
I1
I0
tp3898
bS'interest_6'
p3899
tp3900
Rp3901
ag2
(g3
(S'S10'
p3902
I0
I1
tp3903
Rp3904
(I3
S'|'
p3905
NNNI10
I1
I0
tp3906
bS'interest_5'
p3907
tp3908
Rp3909
ag2
(g3
(S'S10'
p3910
I0
I1
tp3911
Rp3912
(I3
S'|'
p3913
NNNI10
I1
I0
tp3914
bS'interest_6'
p3915
tp3916
Rp3917
ag2
(g3
(S'S10'
p3918
I0
I1
tp3919
Rp3920
(I3
S'|'
p3921
NNNI10
I1
I0
tp3922
bS'interest_5'
p3923
tp3924
Rp3925
ag2
(g3
(S'S10'
p3926
I0
I1
tp3927
Rp3928
(I3
S'|'
p3929
NNNI10
I1
I0
tp3930
bS'interest_6'
p3931
tp3932
Rp3933
ag2
(g3
(S'S10'
p3934
I0
I1
tp3935
Rp3936
(I3
S'|'
p3937
NNNI10
I1
I0
tp3938
bS'interest_1'
p3939
tp3940
Rp3941
ag2
(g3
(S'S10'
p3942
I0
I1
tp3943
Rp3944
(I3
S'|'
p3945
NNNI10
I1
I0
tp3946
bS'interest_6'
p3947
tp3948
Rp3949
ag2
(g3
(S'S10'
p3950
I0
I1
tp3951
Rp3952
(I3
S'|'
p3953
NNNI10
I1
I0
tp3954
bS'interest_6'
p3955
tp3956
Rp3957
ag2
(g3
(S'S10'
p3958
I0
I1
tp3959
Rp3960
(I3
S'|'
p3961
NNNI10
I1
I0
tp3962
bS'interest_6'
p3963
tp3964
Rp3965
ag2
(g3
(S'S10'
p3966
I0
I1
tp3967
Rp3968
(I3
S'|'
p3969
NNNI10
I1
I0
tp3970
bS'interest_1'
p3971
tp3972
Rp3973
ag2
(g3
(S'S10'
p3974
I0
I1
tp3975
Rp3976
(I3
S'|'
p3977
NNNI10
I1
I0
tp3978
bS'interest_6'
p3979
tp3980
Rp3981
ag2
(g3
(S'S10'
p3982
I0
I1
tp3983
Rp3984
(I3
S'|'
p3985
NNNI10
I1
I0
tp3986
bS'interest_1'
p3987
tp3988
Rp3989
ag2
(g3
(S'S10'
p3990
I0
I1
tp3991
Rp3992
(I3
S'|'
p3993
NNNI10
I1
I0
tp3994
bS'interest_1'
p3995
tp3996
Rp3997
ag2
(g3
(S'S10'
p3998
I0
I1
tp3999
Rp4000
(I3
S'|'
p4001
NNNI10
I1
I0
tp4002
bS'interest_6'
p4003
tp4004
Rp4005
ag2
(g3
(S'S10'
p4006
I0
I1
tp4007
Rp4008
(I3
S'|'
p4009
NNNI10
I1
I0
tp4010
bS'interest_6'
p4011
tp4012
Rp4013
ag2
(g3
(S'S10'
p4014
I0
I1
tp4015
Rp4016
(I3
S'|'
p4017
NNNI10
I1
I0
tp4018
bS'interest_6'
p4019
tp4020
Rp4021
ag2
(g3
(S'S10'
p4022
I0
I1
tp4023
Rp4024
(I3
S'|'
p4025
NNNI10
I1
I0
tp4026
bS'interest_1'
p4027
tp4028
Rp4029
ag2
(g3
(S'S10'
p4030
I0
I1
tp4031
Rp4032
(I3
S'|'
p4033
NNNI10
I1
I0
tp4034
bS'interest_1'
p4035
tp4036
Rp4037
ag2
(g3
(S'S10'
p4038
I0
I1
tp4039
Rp4040
(I3
S'|'
p4041
NNNI10
I1
I0
tp4042
bS'interest_1'
p4043
tp4044
Rp4045
ag2
(g3
(S'S10'
p4046
I0
I1
tp4047
Rp4048
(I3
S'|'
p4049
NNNI10
I1
I0
tp4050
bS'interest_4'
p4051
tp4052
Rp4053
ag2
(g3
(S'S10'
p4054
I0
I1
tp4055
Rp4056
(I3
S'|'
p4057
NNNI10
I1
I0
tp4058
bS'interest_6'
p4059
tp4060
Rp4061
ag2
(g3
(S'S10'
p4062
I0
I1
tp4063
Rp4064
(I3
S'|'
p4065
NNNI10
I1
I0
tp4066
bS'interest_6'
p4067
tp4068
Rp4069
ag2
(g3
(S'S10'
p4070
I0
I1
tp4071
Rp4072
(I3
S'|'
p4073
NNNI10
I1
I0
tp4074
bS'interest_4'
p4075
tp4076
Rp4077
ag2
(g3
(S'S10'
p4078
I0
I1
tp4079
Rp4080
(I3
S'|'
p4081
NNNI10
I1
I0
tp4082
bS'interest_6'
p4083
tp4084
Rp4085
ag2
(g3
(S'S10'
p4086
I0
I1
tp4087
Rp4088
(I3
S'|'
p4089
NNNI10
I1
I0
tp4090
bS'interest_6'
p4091
tp4092
Rp4093
ag2
(g3
(S'S10'
p4094
I0
I1
tp4095
Rp4096
(I3
S'|'
p4097
NNNI10
I1
I0
tp4098
bS'interest_6'
p4099
tp4100
Rp4101
ag2
(g3
(S'S10'
p4102
I0
I1
tp4103
Rp4104
(I3
S'|'
p4105
NNNI10
I1
I0
tp4106
bS'interest_6'
p4107
tp4108
Rp4109
ag2
(g3
(S'S10'
p4110
I0
I1
tp4111
Rp4112
(I3
S'|'
p4113
NNNI10
I1
I0
tp4114
bS'interest_5'
p4115
tp4116
Rp4117
ag2
(g3
(S'S10'
p4118
I0
I1
tp4119
Rp4120
(I3
S'|'
p4121
NNNI10
I1
I0
tp4122
bS'interest_5'
p4123
tp4124
Rp4125
ag2
(g3
(S'S10'
p4126
I0
I1
tp4127
Rp4128
(I3
S'|'
p4129
NNNI10
I1
I0
tp4130
bS'interest_6'
p4131
tp4132
Rp4133
ag2
(g3
(S'S10'
p4134
I0
I1
tp4135
Rp4136
(I3
S'|'
p4137
NNNI10
I1
I0
tp4138
bS'interest_1'
p4139
tp4140
Rp4141
ag2
(g3
(S'S10'
p4142
I0
I1
tp4143
Rp4144
(I3
S'|'
p4145
NNNI10
I1
I0
tp4146
bS'interest_6'
p4147
tp4148
Rp4149
ag2
(g3
(S'S10'
p4150
I0
I1
tp4151
Rp4152
(I3
S'|'
p4153
NNNI10
I1
I0
tp4154
bS'interest_1'
p4155
tp4156
Rp4157
ag2
(g3
(S'S10'
p4158
I0
I1
tp4159
Rp4160
(I3
S'|'
p4161
NNNI10
I1
I0
tp4162
bS'interest_1'
p4163
tp4164
Rp4165
ag2
(g3
(S'S10'
p4166
I0
I1
tp4167
Rp4168
(I3
S'|'
p4169
NNNI10
I1
I0
tp4170
bS'interest_6'
p4171
tp4172
Rp4173
ag2
(g3
(S'S10'
p4174
I0
I1
tp4175
Rp4176
(I3
S'|'
p4177
NNNI10
I1
I0
tp4178
bS'interest_1'
p4179
tp4180
Rp4181
ag2
(g3
(S'S10'
p4182
I0
I1
tp4183
Rp4184
(I3
S'|'
p4185
NNNI10
I1
I0
tp4186
bS'interest_6'
p4187
tp4188
Rp4189
ag2
(g3
(S'S10'
p4190
I0
I1
tp4191
Rp4192
(I3
S'|'
p4193
NNNI10
I1
I0
tp4194
bS'interest_5'
p4195
tp4196
Rp4197
ag2
(g3
(S'S10'
p4198
I0
I1
tp4199
Rp4200
(I3
S'|'
p4201
NNNI10
I1
I0
tp4202
bS'interest_6'
p4203
tp4204
Rp4205
ag2
(g3
(S'S10'
p4206
I0
I1
tp4207
Rp4208
(I3
S'|'
p4209
NNNI10
I1
I0
tp4210
bS'interest_6'
p4211
tp4212
Rp4213
ag2
(g3
(S'S10'
p4214
I0
I1
tp4215
Rp4216
(I3
S'|'
p4217
NNNI10
I1
I0
tp4218
bS'interest_1'
p4219
tp4220
Rp4221
ag2
(g3
(S'S10'
p4222
I0
I1
tp4223
Rp4224
(I3
S'|'
p4225
NNNI10
I1
I0
tp4226
bS'interest_5'
p4227
tp4228
Rp4229
ag2
(g3
(S'S10'
p4230
I0
I1
tp4231
Rp4232
(I3
S'|'
p4233
NNNI10
I1
I0
tp4234
bS'interest_1'
p4235
tp4236
Rp4237
ag2
(g3
(S'S10'
p4238
I0
I1
tp4239
Rp4240
(I3
S'|'
p4241
NNNI10
I1
I0
tp4242
bS'interest_1'
p4243
tp4244
Rp4245
ag2
(g3
(S'S10'
p4246
I0
I1
tp4247
Rp4248
(I3
S'|'
p4249
NNNI10
I1
I0
tp4250
bS'interest_1'
p4251
tp4252
Rp4253
ag2
(g3
(S'S10'
p4254
I0
I1
tp4255
Rp4256
(I3
S'|'
p4257
NNNI10
I1
I0
tp4258
bS'interest_4'
p4259
tp4260
Rp4261
ag2
(g3
(S'S10'
p4262
I0
I1
tp4263
Rp4264
(I3
S'|'
p4265
NNNI10
I1
I0
tp4266
bS'interest_6'
p4267
tp4268
Rp4269
ag2
(g3
(S'S10'
p4270
I0
I1
tp4271
Rp4272
(I3
S'|'
p4273
NNNI10
I1
I0
tp4274
bS'interest_6'
p4275
tp4276
Rp4277
ag2
(g3
(S'S10'
p4278
I0
I1
tp4279
Rp4280
(I3
S'|'
p4281
NNNI10
I1
I0
tp4282
bS'interest_1'
p4283
tp4284
Rp4285
ag2
(g3
(S'S10'
p4286
I0
I1
tp4287
Rp4288
(I3
S'|'
p4289
NNNI10
I1
I0
tp4290
bS'interest_5'
p4291
tp4292
Rp4293
ag2
(g3
(S'S10'
p4294
I0
I1
tp4295
Rp4296
(I3
S'|'
p4297
NNNI10
I1
I0
tp4298
bS'interest_6'
p4299
tp4300
Rp4301
ag2
(g3
(S'S10'
p4302
I0
I1
tp4303
Rp4304
(I3
S'|'
p4305
NNNI10
I1
I0
tp4306
bS'interest_6'
p4307
tp4308
Rp4309
ag2
(g3
(S'S10'
p4310
I0
I1
tp4311
Rp4312
(I3
S'|'
p4313
NNNI10
I1
I0
tp4314
bS'interest_1'
p4315
tp4316
Rp4317
ag2
(g3
(S'S10'
p4318
I0
I1
tp4319
Rp4320
(I3
S'|'
p4321
NNNI10
I1
I0
tp4322
bS'interest_6'
p4323
tp4324
Rp4325
ag2
(g3
(S'S10'
p4326
I0
I1
tp4327
Rp4328
(I3
S'|'
p4329
NNNI10
I1
I0
tp4330
bS'interest_1'
p4331
tp4332
Rp4333
ag2
(g3
(S'S10'
p4334
I0
I1
tp4335
Rp4336
(I3
S'|'
p4337
NNNI10
I1
I0
tp4338
bS'interest_5'
p4339
tp4340
Rp4341
ag2
(g3
(S'S10'
p4342
I0
I1
tp4343
Rp4344
(I3
S'|'
p4345
NNNI10
I1
I0
tp4346
bS'interest_5'
p4347
tp4348
Rp4349
ag2
(g3
(S'S10'
p4350
I0
I1
tp4351
Rp4352
(I3
S'|'
p4353
NNNI10
I1
I0
tp4354
bS'interest_1'
p4355
tp4356
Rp4357
ag2
(g3
(S'S10'
p4358
I0
I1
tp4359
Rp4360
(I3
S'|'
p4361
NNNI10
I1
I0
tp4362
bS'interest_6'
p4363
tp4364
Rp4365
ag2
(g3
(S'S10'
p4366
I0
I1
tp4367
Rp4368
(I3
S'|'
p4369
NNNI10
I1
I0
tp4370
bS'interest_6'
p4371
tp4372
Rp4373
ag2
(g3
(S'S10'
p4374
I0
I1
tp4375
Rp4376
(I3
S'|'
p4377
NNNI10
I1
I0
tp4378
bS'interest_5'
p4379
tp4380
Rp4381
ag2
(g3
(S'S10'
p4382
I0
I1
tp4383
Rp4384
(I3
S'|'
p4385
NNNI10
I1
I0
tp4386
bS'interest_6'
p4387
tp4388
Rp4389
ag2
(g3
(S'S10'
p4390
I0
I1
tp4391
Rp4392
(I3
S'|'
p4393
NNNI10
I1
I0
tp4394
bS'interest_5'
p4395
tp4396
Rp4397
ag2
(g3
(S'S10'
p4398
I0
I1
tp4399
Rp4400
(I3
S'|'
p4401
NNNI10
I1
I0
tp4402
bS'interest_5'
p4403
tp4404
Rp4405
ag2
(g3
(S'S10'
p4406
I0
I1
tp4407
Rp4408
(I3
S'|'
p4409
NNNI10
I1
I0
tp4410
bS'interest_5'
p4411
tp4412
Rp4413
ag2
(g3
(S'S10'
p4414
I0
I1
tp4415
Rp4416
(I3
S'|'
p4417
NNNI10
I1
I0
tp4418
bS'interest_6'
p4419
tp4420
Rp4421
ag2
(g3
(S'S10'
p4422
I0
I1
tp4423
Rp4424
(I3
S'|'
p4425
NNNI10
I1
I0
tp4426
bS'interest_3'
p4427
tp4428
Rp4429
ag2
(g3
(S'S10'
p4430
I0
I1
tp4431
Rp4432
(I3
S'|'
p4433
NNNI10
I1
I0
tp4434
bS'interest_6'
p4435
tp4436
Rp4437
ag2
(g3
(S'S10'
p4438
I0
I1
tp4439
Rp4440
(I3
S'|'
p4441
NNNI10
I1
I0
tp4442
bS'interest_6'
p4443
tp4444
Rp4445
ag2
(g3
(S'S10'
p4446
I0
I1
tp4447
Rp4448
(I3
S'|'
p4449
NNNI10
I1
I0
tp4450
bS'interest_5'
p4451
tp4452
Rp4453
ag2
(g3
(S'S10'
p4454
I0
I1
tp4455
Rp4456
(I3
S'|'
p4457
NNNI10
I1
I0
tp4458
bS'interest_1'
p4459
tp4460
Rp4461
ag2
(g3
(S'S10'
p4462
I0
I1
tp4463
Rp4464
(I3
S'|'
p4465
NNNI10
I1
I0
tp4466
bS'interest_6'
p4467
tp4468
Rp4469
ag2
(g3
(S'S10'
p4470
I0
I1
tp4471
Rp4472
(I3
S'|'
p4473
NNNI10
I1
I0
tp4474
bS'interest_6'
p4475
tp4476
Rp4477
ag2
(g3
(S'S10'
p4478
I0
I1
tp4479
Rp4480
(I3
S'|'
p4481
NNNI10
I1
I0
tp4482
bS'interest_6'
p4483
tp4484
Rp4485
ag2
(g3
(S'S10'
p4486
I0
I1
tp4487
Rp4488
(I3
S'|'
p4489
NNNI10
I1
I0
tp4490
bS'interest_6'
p4491
tp4492
Rp4493
ag2
(g3
(S'S10'
p4494
I0
I1
tp4495
Rp4496
(I3
S'|'
p4497
NNNI10
I1
I0
tp4498
bS'interest_6'
p4499
tp4500
Rp4501
ag2
(g3
(S'S10'
p4502
I0
I1
tp4503
Rp4504
(I3
S'|'
p4505
NNNI10
I1
I0
tp4506
bS'interest_3'
p4507
tp4508
Rp4509
ag2
(g3
(S'S10'
p4510
I0
I1
tp4511
Rp4512
(I3
S'|'
p4513
NNNI10
I1
I0
tp4514
bS'interest_6'
p4515
tp4516
Rp4517
ag2
(g3
(S'S10'
p4518
I0
I1
tp4519
Rp4520
(I3
S'|'
p4521
NNNI10
I1
I0
tp4522
bS'interest_6'
p4523
tp4524
Rp4525
ag2
(g3
(S'S10'
p4526
I0
I1
tp4527
Rp4528
(I3
S'|'
p4529
NNNI10
I1
I0
tp4530
bS'interest_5'
p4531
tp4532
Rp4533
ag2
(g3
(S'S10'
p4534
I0
I1
tp4535
Rp4536
(I3
S'|'
p4537
NNNI10
I1
I0
tp4538
bS'interest_6'
p4539
tp4540
Rp4541
ag2
(g3
(S'S10'
p4542
I0
I1
tp4543
Rp4544
(I3
S'|'
p4545
NNNI10
I1
I0
tp4546
bS'interest_5'
p4547
tp4548
Rp4549
ag2
(g3
(S'S10'
p4550
I0
I1
tp4551
Rp4552
(I3
S'|'
p4553
NNNI10
I1
I0
tp4554
bS'interest_6'
p4555
tp4556
Rp4557
ag2
(g3
(S'S10'
p4558
I0
I1
tp4559
Rp4560
(I3
S'|'
p4561
NNNI10
I1
I0
tp4562
bS'interest_1'
p4563
tp4564
Rp4565
ag2
(g3
(S'S10'
p4566
I0
I1
tp4567
Rp4568
(I3
S'|'
p4569
NNNI10
I1
I0
tp4570
bS'interest_6'
p4571
tp4572
Rp4573
ag2
(g3
(S'S10'
p4574
I0
I1
tp4575
Rp4576
(I3
S'|'
p4577
NNNI10
I1
I0
tp4578
bS'interest_6'
p4579
tp4580
Rp4581
ag2
(g3
(S'S10'
p4582
I0
I1
tp4583
Rp4584
(I3
S'|'
p4585
NNNI10
I1
I0
tp4586
bS'interest_6'
p4587
tp4588
Rp4589
ag2
(g3
(S'S10'
p4590
I0
I1
tp4591
Rp4592
(I3
S'|'
p4593
NNNI10
I1
I0
tp4594
bS'interest_5'
p4595
tp4596
Rp4597
ag2
(g3
(S'S10'
p4598
I0
I1
tp4599
Rp4600
(I3
S'|'
p4601
NNNI10
I1
I0
tp4602
bS'interest_3'
p4603
tp4604
Rp4605
ag2
(g3
(S'S10'
p4606
I0
I1
tp4607
Rp4608
(I3
S'|'
p4609
NNNI10
I1
I0
tp4610
bS'interest_6'
p4611
tp4612
Rp4613
ag2
(g3
(S'S10'
p4614
I0
I1
tp4615
Rp4616
(I3
S'|'
p4617
NNNI10
I1
I0
tp4618
bS'interest_1'
p4619
tp4620
Rp4621
ag2
(g3
(S'S10'
p4622
I0
I1
tp4623
Rp4624
(I3
S'|'
p4625
NNNI10
I1
I0
tp4626
bS'interest_1'
p4627
tp4628
Rp4629
ag2
(g3
(S'S10'
p4630
I0
I1
tp4631
Rp4632
(I3
S'|'
p4633
NNNI10
I1
I0
tp4634
bS'interest_6'
p4635
tp4636
Rp4637
ag2
(g3
(S'S10'
p4638
I0
I1
tp4639
Rp4640
(I3
S'|'
p4641
NNNI10
I1
I0
tp4642
bS'interest_6'
p4643
tp4644
Rp4645
ag2
(g3
(S'S10'
p4646
I0
I1
tp4647
Rp4648
(I3
S'|'
p4649
NNNI10
I1
I0
tp4650
bS'interest_6'
p4651
tp4652
Rp4653
ag2
(g3
(S'S10'
p4654
I0
I1
tp4655
Rp4656
(I3
S'|'
p4657
NNNI10
I1
I0
tp4658
bS'interest_1'
p4659
tp4660
Rp4661
ag2
(g3
(S'S10'
p4662
I0
I1
tp4663
Rp4664
(I3
S'|'
p4665
NNNI10
I1
I0
tp4666
bS'interest_6'
p4667
tp4668
Rp4669
ag2
(g3
(S'S10'
p4670
I0
I1
tp4671
Rp4672
(I3
S'|'
p4673
NNNI10
I1
I0
tp4674
bS'interest_6'
p4675
tp4676
Rp4677
ag2
(g3
(S'S10'
p4678
I0
I1
tp4679
Rp4680
(I3
S'|'
p4681
NNNI10
I1
I0
tp4682
bS'interest_5'
p4683
tp4684
Rp4685
ag2
(g3
(S'S10'
p4686
I0
I1
tp4687
Rp4688
(I3
S'|'
p4689
NNNI10
I1
I0
tp4690
bS'interest_6'
p4691
tp4692
Rp4693
ag2
(g3
(S'S10'
p4694
I0
I1
tp4695
Rp4696
(I3
S'|'
p4697
NNNI10
I1
I0
tp4698
bS'interest_5'
p4699
tp4700
Rp4701
ag2
(g3
(S'S10'
p4702
I0
I1
tp4703
Rp4704
(I3
S'|'
p4705
NNNI10
I1
I0
tp4706
bS'interest_6'
p4707
tp4708
Rp4709
ag2
(g3
(S'S10'
p4710
I0
I1
tp4711
Rp4712
(I3
S'|'
p4713
NNNI10
I1
I0
tp4714
bS'interest_6'
p4715
tp4716
Rp4717
ag2
(g3
(S'S10'
p4718
I0
I1
tp4719
Rp4720
(I3
S'|'
p4721
NNNI10
I1
I0
tp4722
bS'interest_5'
p4723
tp4724
Rp4725
ag2
(g3
(S'S10'
p4726
I0
I1
tp4727
Rp4728
(I3
S'|'
p4729
NNNI10
I1
I0
tp4730
bS'interest_1'
p4731
tp4732
Rp4733
ag2
(g3
(S'S10'
p4734
I0
I1
tp4735
Rp4736
(I3
S'|'
p4737
NNNI10
I1
I0
tp4738
bS'interest_5'
p4739
tp4740
Rp4741
ag2
(g3
(S'S10'
p4742
I0
I1
tp4743
Rp4744
(I3
S'|'
p4745
NNNI10
I1
I0
tp4746
bS'interest_6'
p4747
tp4748
Rp4749
ag2
(g3
(S'S10'
p4750
I0
I1
tp4751
Rp4752
(I3
S'|'
p4753
NNNI10
I1
I0
tp4754
bS'interest_6'
p4755
tp4756
Rp4757
ag2
(g3
(S'S10'
p4758
I0
I1
tp4759
Rp4760
(I3
S'|'
p4761
NNNI10
I1
I0
tp4762
bS'interest_1'
p4763
tp4764
Rp4765
ag2
(g3
(S'S10'
p4766
I0
I1
tp4767
Rp4768
(I3
S'|'
p4769
NNNI10
I1
I0
tp4770
bS'interest_6'
p4771
tp4772
Rp4773
ag2
(g3
(S'S10'
p4774
I0
I1
tp4775
Rp4776
(I3
S'|'
p4777
NNNI10
I1
I0
tp4778
bS'interest_6'
p4779
tp4780
Rp4781
ag2
(g3
(S'S10'
p4782
I0
I1
tp4783
Rp4784
(I3
S'|'
p4785
NNNI10
I1
I0
tp4786
bS'interest_6'
p4787
tp4788
Rp4789
ag2
(g3
(S'S10'
p4790
I0
I1
tp4791
Rp4792
(I3
S'|'
p4793
NNNI10
I1
I0
tp4794
bS'interest_4'
p4795
tp4796
Rp4797
ag2
(g3
(S'S10'
p4798
I0
I1
tp4799
Rp4800
(I3
S'|'
p4801
NNNI10
I1
I0
tp4802
bS'interest_6'
p4803
tp4804
Rp4805
ag2
(g3
(S'S10'
p4806
I0
I1
tp4807
Rp4808
(I3
S'|'
p4809
NNNI10
I1
I0
tp4810
bS'interest_6'
p4811
tp4812
Rp4813
ag2
(g3
(S'S10'
p4814
I0
I1
tp4815
Rp4816
(I3
S'|'
p4817
NNNI10
I1
I0
tp4818
bS'interest_6'
p4819
tp4820
Rp4821
ag2
(g3
(S'S10'
p4822
I0
I1
tp4823
Rp4824
(I3
S'|'
p4825
NNNI10
I1
I0
tp4826
bS'interest_1'
p4827
tp4828
Rp4829
ag2
(g3
(S'S10'
p4830
I0
I1
tp4831
Rp4832
(I3
S'|'
p4833
NNNI10
I1
I0
tp4834
bS'interest_6'
p4835
tp4836
Rp4837
ag2
(g3
(S'S10'
p4838
I0
I1
tp4839
Rp4840
(I3
S'|'
p4841
NNNI10
I1
I0
tp4842
bS'interest_6'
p4843
tp4844
Rp4845
ag2
(g3
(S'S10'
p4846
I0
I1
tp4847
Rp4848
(I3
S'|'
p4849
NNNI10
I1
I0
tp4850
bS'interest_6'
p4851
tp4852
Rp4853
ag2
(g3
(S'S10'
p4854
I0
I1
tp4855
Rp4856
(I3
S'|'
p4857
NNNI10
I1
I0
tp4858
bS'interest_1'
p4859
tp4860
Rp4861
ag2
(g3
(S'S10'
p4862
I0
I1
tp4863
Rp4864
(I3
S'|'
p4865
NNNI10
I1
I0
tp4866
bS'interest_6'
p4867
tp4868
Rp4869
ag2
(g3
(S'S10'
p4870
I0
I1
tp4871
Rp4872
(I3
S'|'
p4873
NNNI10
I1
I0
tp4874
bS'interest_6'
p4875
tp4876
Rp4877
ag2
(g3
(S'S10'
p4878
I0
I1
tp4879
Rp4880
(I3
S'|'
p4881
NNNI10
I1
I0
tp4882
bS'interest_6'
p4883
tp4884
Rp4885
ag2
(g3
(S'S10'
p4886
I0
I1
tp4887
Rp4888
(I3
S'|'
p4889
NNNI10
I1
I0
tp4890
bS'interest_6'
p4891
tp4892
Rp4893
ag2
(g3
(S'S10'
p4894
I0
I1
tp4895
Rp4896
(I3
S'|'
p4897
NNNI10
I1
I0
tp4898
bS'interest_4'
p4899
tp4900
Rp4901
ag2
(g3
(S'S10'
p4902
I0
I1
tp4903
Rp4904
(I3
S'|'
p4905
NNNI10
I1
I0
tp4906
bS'interest_6'
p4907
tp4908
Rp4909
ag2
(g3
(S'S10'
p4910
I0
I1
tp4911
Rp4912
(I3
S'|'
p4913
NNNI10
I1
I0
tp4914
bS'interest_6'
p4915
tp4916
Rp4917
ag2
(g3
(S'S10'
p4918
I0
I1
tp4919
Rp4920
(I3
S'|'
p4921
NNNI10
I1
I0
tp4922
bS'interest_6'
p4923
tp4924
Rp4925
ag2
(g3
(S'S10'
p4926
I0
I1
tp4927
Rp4928
(I3
S'|'
p4929
NNNI10
I1
I0
tp4930
bS'interest_4'
p4931
tp4932
Rp4933
ag2
(g3
(S'S10'
p4934
I0
I1
tp4935
Rp4936
(I3
S'|'
p4937
NNNI10
I1
I0
tp4938
bS'interest_1'
p4939
tp4940
Rp4941
ag2
(g3
(S'S10'
p4942
I0
I1
tp4943
Rp4944
(I3
S'|'
p4945
NNNI10
I1
I0
tp4946
bS'interest_5'
p4947
tp4948
Rp4949
ag2
(g3
(S'S10'
p4950
I0
I1
tp4951
Rp4952
(I3
S'|'
p4953
NNNI10
I1
I0
tp4954
bS'interest_6'
p4955
tp4956
Rp4957
ag2
(g3
(S'S10'
p4958
I0
I1
tp4959
Rp4960
(I3
S'|'
p4961
NNNI10
I1
I0
tp4962
bS'interest_6'
p4963
tp4964
Rp4965
ag2
(g3
(S'S10'
p4966
I0
I1
tp4967
Rp4968
(I3
S'|'
p4969
NNNI10
I1
I0
tp4970
bS'interest_6'
p4971
tp4972
Rp4973
ag2
(g3
(S'S10'
p4974
I0
I1
tp4975
Rp4976
(I3
S'|'
p4977
NNNI10
I1
I0
tp4978
bS'interest_5'
p4979
tp4980
Rp4981
ag2
(g3
(S'S10'
p4982
I0
I1
tp4983
Rp4984
(I3
S'|'
p4985
NNNI10
I1
I0
tp4986
bS'interest_5'
p4987
tp4988
Rp4989
ag2
(g3
(S'S10'
p4990
I0
I1
tp4991
Rp4992
(I3
S'|'
p4993
NNNI10
I1
I0
tp4994
bS'interest_6'
p4995
tp4996
Rp4997
ag2
(g3
(S'S10'
p4998
I0
I1
tp4999
Rp5000
(I3
S'|'
p5001
NNNI10
I1
I0
tp5002
bS'interest_1'
p5003
tp5004
Rp5005
ag2
(g3
(S'S10'
p5006
I0
I1
tp5007
Rp5008
(I3
S'|'
p5009
NNNI10
I1
I0
tp5010
bS'interest_1'
p5011
tp5012
Rp5013
ag2
(g3
(S'S10'
p5014
I0
I1
tp5015
Rp5016
(I3
S'|'
p5017
NNNI10
I1
I0
tp5018
bS'interest_1'
p5019
tp5020
Rp5021
ag2
(g3
(S'S10'
p5022
I0
I1
tp5023
Rp5024
(I3
S'|'
p5025
NNNI10
I1
I0
tp5026
bS'interest_1'
p5027
tp5028
Rp5029
ag2
(g3
(S'S10'
p5030
I0
I1
tp5031
Rp5032
(I3
S'|'
p5033
NNNI10
I1
I0
tp5034
bS'interest_5'
p5035
tp5036
Rp5037
ag2
(g3
(S'S10'
p5038
I0
I1
tp5039
Rp5040
(I3
S'|'
p5041
NNNI10
I1
I0
tp5042
bS'interest_6'
p5043
tp5044
Rp5045
ag2
(g3
(S'S10'
p5046
I0
I1
tp5047
Rp5048
(I3
S'|'
p5049
NNNI10
I1
I0
tp5050
bS'interest_1'
p5051
tp5052
Rp5053
ag2
(g3
(S'S10'
p5054
I0
I1
tp5055
Rp5056
(I3
S'|'
p5057
NNNI10
I1
I0
tp5058
bS'interest_5'
p5059
tp5060
Rp5061
ag2
(g3
(S'S10'
p5062
I0
I1
tp5063
Rp5064
(I3
S'|'
p5065
NNNI10
I1
I0
tp5066
bS'interest_6'
p5067
tp5068
Rp5069
ag2
(g3
(S'S10'
p5070
I0
I1
tp5071
Rp5072
(I3
S'|'
p5073
NNNI10
I1
I0
tp5074
bS'interest_5'
p5075
tp5076
Rp5077
ag2
(g3
(S'S10'
p5078
I0
I1
tp5079
Rp5080
(I3
S'|'
p5081
NNNI10
I1
I0
tp5082
bS'interest_1'
p5083
tp5084
Rp5085
ag2
(g3
(S'S10'
p5086
I0
I1
tp5087
Rp5088
(I3
S'|'
p5089
NNNI10
I1
I0
tp5090
bS'interest_4'
p5091
tp5092
Rp5093
ag2
(g3
(S'S10'
p5094
I0
I1
tp5095
Rp5096
(I3
S'|'
p5097
NNNI10
I1
I0
tp5098
bS'interest_6'
p5099
tp5100
Rp5101
ag2
(g3
(S'S10'
p5102
I0
I1
tp5103
Rp5104
(I3
S'|'
p5105
NNNI10
I1
I0
tp5106
bS'interest_6'
p5107
tp5108
Rp5109
ag2
(g3
(S'S10'
p5110
I0
I1
tp5111
Rp5112
(I3
S'|'
p5113
NNNI10
I1
I0
tp5114
bS'interest_5'
p5115
tp5116
Rp5117
ag2
(g3
(S'S10'
p5118
I0
I1
tp5119
Rp5120
(I3
S'|'
p5121
NNNI10
I1
I0
tp5122
bS'interest_6'
p5123
tp5124
Rp5125
ag2
(g3
(S'S10'
p5126
I0
I1
tp5127
Rp5128
(I3
S'|'
p5129
NNNI10
I1
I0
tp5130
bS'interest_6'
p5131
tp5132
Rp5133
ag2
(g3
(S'S10'
p5134
I0
I1
tp5135
Rp5136
(I3
S'|'
p5137
NNNI10
I1
I0
tp5138
bS'interest_4'
p5139
tp5140
Rp5141
ag2
(g3
(S'S10'
p5142
I0
I1
tp5143
Rp5144
(I3
S'|'
p5145
NNNI10
I1
I0
tp5146
bS'interest_5'
p5147
tp5148
Rp5149
ag2
(g3
(S'S10'
p5150
I0
I1
tp5151
Rp5152
(I3
S'|'
p5153
NNNI10
I1
I0
tp5154
bS'interest_1'
p5155
tp5156
Rp5157
ag2
(g3
(S'S10'
p5158
I0
I1
tp5159
Rp5160
(I3
S'|'
p5161
NNNI10
I1
I0
tp5162
bS'interest_6'
p5163
tp5164
Rp5165
ag2
(g3
(S'S10'
p5166
I0
I1
tp5167
Rp5168
(I3
S'|'
p5169
NNNI10
I1
I0
tp5170
bS'interest_4'
p5171
tp5172
Rp5173
ag2
(g3
(S'S10'
p5174
I0
I1
tp5175
Rp5176
(I3
S'|'
p5177
NNNI10
I1
I0
tp5178
bS'interest_6'
p5179
tp5180
Rp5181
ag2
(g3
(S'S10'
p5182
I0
I1
tp5183
Rp5184
(I3
S'|'
p5185
NNNI10
I1
I0
tp5186
bS'interest_1'
p5187
tp5188
Rp5189
ag2
(g3
(S'S10'
p5190
I0
I1
tp5191
Rp5192
(I3
S'|'
p5193
NNNI10
I1
I0
tp5194
bS'interest_6'
p5195
tp5196
Rp5197
ag2
(g3
(S'S10'
p5198
I0
I1
tp5199
Rp5200
(I3
S'|'
p5201
NNNI10
I1
I0
tp5202
bS'interest_6'
p5203
tp5204
Rp5205
ag2
(g3
(S'S10'
p5206
I0
I1
tp5207
Rp5208
(I3
S'|'
p5209
NNNI10
I1
I0
tp5210
bS'interest_6'
p5211
tp5212
Rp5213
ag2
(g3
(S'S10'
p5214
I0
I1
tp5215
Rp5216
(I3
S'|'
p5217
NNNI10
I1
I0
tp5218
bS'interest_5'
p5219
tp5220
Rp5221
ag2
(g3
(S'S10'
p5222
I0
I1
tp5223
Rp5224
(I3
S'|'
p5225
NNNI10
I1
I0
tp5226
bS'interest_6'
p5227
tp5228
Rp5229
ag2
(g3
(S'S10'
p5230
I0
I1
tp5231
Rp5232
(I3
S'|'
p5233
NNNI10
I1
I0
tp5234
bS'interest_6'
p5235
tp5236
Rp5237
ag2
(g3
(S'S10'
p5238
I0
I1
tp5239
Rp5240
(I3
S'|'
p5241
NNNI10
I1
I0
tp5242
bS'interest_6'
p5243
tp5244
Rp5245
ag2
(g3
(S'S10'
p5246
I0
I1
tp5247
Rp5248
(I3
S'|'
p5249
NNNI10
I1
I0
tp5250
bS'interest_6'
p5251
tp5252
Rp5253
ag2
(g3
(S'S10'
p5254
I0
I1
tp5255
Rp5256
(I3
S'|'
p5257
NNNI10
I1
I0
tp5258
bS'interest_6'
p5259
tp5260
Rp5261
ag2
(g3
(S'S10'
p5262
I0
I1
tp5263
Rp5264
(I3
S'|'
p5265
NNNI10
I1
I0
tp5266
bS'interest_5'
p5267
tp5268
Rp5269
ag2
(g3
(S'S10'
p5270
I0
I1
tp5271
Rp5272
(I3
S'|'
p5273
NNNI10
I1
I0
tp5274
bS'interest_1'
p5275
tp5276
Rp5277
ag2
(g3
(S'S10'
p5278
I0
I1
tp5279
Rp5280
(I3
S'|'
p5281
NNNI10
I1
I0
tp5282
bS'interest_1'
p5283
tp5284
Rp5285
ag2
(g3
(S'S10'
p5286
I0
I1
tp5287
Rp5288
(I3
S'|'
p5289
NNNI10
I1
I0
tp5290
bS'interest_6'
p5291
tp5292
Rp5293
ag2
(g3
(S'S10'
p5294
I0
I1
tp5295
Rp5296
(I3
S'|'
p5297
NNNI10
I1
I0
tp5298
bS'interest_1'
p5299
tp5300
Rp5301
ag2
(g3
(S'S10'
p5302
I0
I1
tp5303
Rp5304
(I3
S'|'
p5305
NNNI10
I1
I0
tp5306
bS'interest_6'
p5307
tp5308
Rp5309
ag2
(g3
(S'S10'
p5310
I0
I1
tp5311
Rp5312
(I3
S'|'
p5313
NNNI10
I1
I0
tp5314
bS'interest_6'
p5315
tp5316
Rp5317
ag2
(g3
(S'S10'
p5318
I0
I1
tp5319
Rp5320
(I3
S'|'
p5321
NNNI10
I1
I0
tp5322
bS'interest_5'
p5323
tp5324
Rp5325
ag2
(g3
(S'S10'
p5326
I0
I1
tp5327
Rp5328
(I3
S'|'
p5329
NNNI10
I1
I0
tp5330
bS'interest_6'
p5331
tp5332
Rp5333
ag2
(g3
(S'S10'
p5334
I0
I1
tp5335
Rp5336
(I3
S'|'
p5337
NNNI10
I1
I0
tp5338
bS'interest_6'
p5339
tp5340
Rp5341
ag2
(g3
(S'S10'
p5342
I0
I1
tp5343
Rp5344
(I3
S'|'
p5345
NNNI10
I1
I0
tp5346
bS'interest_1'
p5347
tp5348
Rp5349
ag2
(g3
(S'S10'
p5350
I0
I1
tp5351
Rp5352
(I3
S'|'
p5353
NNNI10
I1
I0
tp5354
bS'interest_5'
p5355
tp5356
Rp5357
ag2
(g3
(S'S10'
p5358
I0
I1
tp5359
Rp5360
(I3
S'|'
p5361
NNNI10
I1
I0
tp5362
bS'interest_5'
p5363
tp5364
Rp5365
ag2
(g3
(S'S10'
p5366
I0
I1
tp5367
Rp5368
(I3
S'|'
p5369
NNNI10
I1
I0
tp5370
bS'interest_5'
p5371
tp5372
Rp5373
ag2
(g3
(S'S10'
p5374
I0
I1
tp5375
Rp5376
(I3
S'|'
p5377
NNNI10
I1
I0
tp5378
bS'interest_6'
p5379
tp5380
Rp5381
ag2
(g3
(S'S10'
p5382
I0
I1
tp5383
Rp5384
(I3
S'|'
p5385
NNNI10
I1
I0
tp5386
bS'interest_6'
p5387
tp5388
Rp5389
ag2
(g3
(S'S10'
p5390
I0
I1
tp5391
Rp5392
(I3
S'|'
p5393
NNNI10
I1
I0
tp5394
bS'interest_3'
p5395
tp5396
Rp5397
ag2
(g3
(S'S10'
p5398
I0
I1
tp5399
Rp5400
(I3
S'|'
p5401
NNNI10
I1
I0
tp5402
bS'interest_6'
p5403
tp5404
Rp5405
ag2
(g3
(S'S10'
p5406
I0
I1
tp5407
Rp5408
(I3
S'|'
p5409
NNNI10
I1
I0
tp5410
bS'interest_5'
p5411
tp5412
Rp5413
ag2
(g3
(S'S10'
p5414
I0
I1
tp5415
Rp5416
(I3
S'|'
p5417
NNNI10
I1
I0
tp5418
bS'interest_6'
p5419
tp5420
Rp5421
ag2
(g3
(S'S10'
p5422
I0
I1
tp5423
Rp5424
(I3
S'|'
p5425
NNNI10
I1
I0
tp5426
bS'interest_1'
p5427
tp5428
Rp5429
ag2
(g3
(S'S10'
p5430
I0
I1
tp5431
Rp5432
(I3
S'|'
p5433
NNNI10
I1
I0
tp5434
bS'interest_6'
p5435
tp5436
Rp5437
ag2
(g3
(S'S10'
p5438
I0
I1
tp5439
Rp5440
(I3
S'|'
p5441
NNNI10
I1
I0
tp5442
bS'interest_6'
p5443
tp5444
Rp5445
ag2
(g3
(S'S10'
p5446
I0
I1
tp5447
Rp5448
(I3
S'|'
p5449
NNNI10
I1
I0
tp5450
bS'interest_1'
p5451
tp5452
Rp5453
ag2
(g3
(S'S10'
p5454
I0
I1
tp5455
Rp5456
(I3
S'|'
p5457
NNNI10
I1
I0
tp5458
bS'interest_1'
p5459
tp5460
Rp5461
ag2
(g3
(S'S10'
p5462
I0
I1
tp5463
Rp5464
(I3
S'|'
p5465
NNNI10
I1
I0
tp5466
bS'interest_1'
p5467
tp5468
Rp5469
ag2
(g3
(S'S10'
p5470
I0
I1
tp5471
Rp5472
(I3
S'|'
p5473
NNNI10
I1
I0
tp5474
bS'interest_5'
p5475
tp5476
Rp5477
ag2
(g3
(S'S10'
p5478
I0
I1
tp5479
Rp5480
(I3
S'|'
p5481
NNNI10
I1
I0
tp5482
bS'interest_6'
p5483
tp5484
Rp5485
ag2
(g3
(S'S10'
p5486
I0
I1
tp5487
Rp5488
(I3
S'|'
p5489
NNNI10
I1
I0
tp5490
bS'interest_6'
p5491
tp5492
Rp5493
ag2
(g3
(S'S10'
p5494
I0
I1
tp5495
Rp5496
(I3
S'|'
p5497
NNNI10
I1
I0
tp5498
bS'interest_6'
p5499
tp5500
Rp5501
ag2
(g3
(S'S10'
p5502
I0
I1
tp5503
Rp5504
(I3
S'|'
p5505
NNNI10
I1
I0
tp5506
bS'interest_6'
p5507
tp5508
Rp5509
ag2
(g3
(S'S10'
p5510
I0
I1
tp5511
Rp5512
(I3
S'|'
p5513
NNNI10
I1
I0
tp5514
bS'interest_6'
p5515
tp5516
Rp5517
ag2
(g3
(S'S10'
p5518
I0
I1
tp5519
Rp5520
(I3
S'|'
p5521
NNNI10
I1
I0
tp5522
bS'interest_6'
p5523
tp5524
Rp5525
ag2
(g3
(S'S10'
p5526
I0
I1
tp5527
Rp5528
(I3
S'|'
p5529
NNNI10
I1
I0
tp5530
bS'interest_5'
p5531
tp5532
Rp5533
ag2
(g3
(S'S10'
p5534
I0
I1
tp5535
Rp5536
(I3
S'|'
p5537
NNNI10
I1
I0
tp5538
bS'interest_4'
p5539
tp5540
Rp5541
ag2
(g3
(S'S10'
p5542
I0
I1
tp5543
Rp5544
(I3
S'|'
p5545
NNNI10
I1
I0
tp5546
bS'interest_6'
p5547
tp5548
Rp5549
ag2
(g3
(S'S10'
p5550
I0
I1
tp5551
Rp5552
(I3
S'|'
p5553
NNNI10
I1
I0
tp5554
bS'interest_1'
p5555
tp5556
Rp5557
ag2
(g3
(S'S10'
p5558
I0
I1
tp5559
Rp5560
(I3
S'|'
p5561
NNNI10
I1
I0
tp5562
bS'interest_6'
p5563
tp5564
Rp5565
ag2
(g3
(S'S10'
p5566
I0
I1
tp5567
Rp5568
(I3
S'|'
p5569
NNNI10
I1
I0
tp5570
bS'interest_3'
p5571
tp5572
Rp5573
ag2
(g3
(S'S10'
p5574
I0
I1
tp5575
Rp5576
(I3
S'|'
p5577
NNNI10
I1
I0
tp5578
bS'interest_6'
p5579
tp5580
Rp5581
ag2
(g3
(S'S10'
p5582
I0
I1
tp5583
Rp5584
(I3
S'|'
p5585
NNNI10
I1
I0
tp5586
bS'interest_5'
p5587
tp5588
Rp5589
ag2
(g3
(S'S10'
p5590
I0
I1
tp5591
Rp5592
(I3
S'|'
p5593
NNNI10
I1
I0
tp5594
bS'interest_6'
p5595
tp5596
Rp5597
ag2
(g3
(S'S10'
p5598
I0
I1
tp5599
Rp5600
(I3
S'|'
p5601
NNNI10
I1
I0
tp5602
bS'interest_6'
p5603
tp5604
Rp5605
ag2
(g3
(S'S10'
p5606
I0
I1
tp5607
Rp5608
(I3
S'|'
p5609
NNNI10
I1
I0
tp5610
bS'interest_6'
p5611
tp5612
Rp5613
ag2
(g3
(S'S10'
p5614
I0
I1
tp5615
Rp5616
(I3
S'|'
p5617
NNNI10
I1
I0
tp5618
bS'interest_4'
p5619
tp5620
Rp5621
ag2
(g3
(S'S10'
p5622
I0
I1
tp5623
Rp5624
(I3
S'|'
p5625
NNNI10
I1
I0
tp5626
bS'interest_6'
p5627
tp5628
Rp5629
ag2
(g3
(S'S10'
p5630
I0
I1
tp5631
Rp5632
(I3
S'|'
p5633
NNNI10
I1
I0
tp5634
bS'interest_6'
p5635
tp5636
Rp5637
ag2
(g3
(S'S10'
p5638
I0
I1
tp5639
Rp5640
(I3
S'|'
p5641
NNNI10
I1
I0
tp5642
bS'interest_6'
p5643
tp5644
Rp5645
ag2
(g3
(S'S10'
p5646
I0
I1
tp5647
Rp5648
(I3
S'|'
p5649
NNNI10
I1
I0
tp5650
bS'interest_4'
p5651
tp5652
Rp5653
ag2
(g3
(S'S10'
p5654
I0
I1
tp5655
Rp5656
(I3
S'|'
p5657
NNNI10
I1
I0
tp5658
bS'interest_5'
p5659
tp5660
Rp5661
ag2
(g3
(S'S10'
p5662
I0
I1
tp5663
Rp5664
(I3
S'|'
p5665
NNNI10
I1
I0
tp5666
bS'interest_5'
p5667
tp5668
Rp5669
ag2
(g3
(S'S10'
p5670
I0
I1
tp5671
Rp5672
(I3
S'|'
p5673
NNNI10
I1
I0
tp5674
bS'interest_5'
p5675
tp5676
Rp5677
aa.