(lp0
(lp1
cnumpy.core.multiarray
scalar
p2
(cnumpy
dtype
p3
(S'S4'
p4
I0
I1
tp5
Rp6
(I3
S'|'
p7
NNNI4
I1
I0
tp8
bS'cord'
p9
tp10
Rp11
ag2
(g3
(S'S4'
p12
I0
I1
tp13
Rp14
(I3
S'|'
p15
NNNI4
I1
I0
tp16
bS'cord'
p17
tp18
Rp19
ag2
(g3
(S'S4'
p20
I0
I1
tp21
Rp22
(I3
S'|'
p23
NNNI4
I1
I0
tp24
bS'cord'
p25
tp26
Rp27
ag2
(g3
(S'S4'
p28
I0
I1
tp29
Rp30
(I3
S'|'
p31
NNNI4
I1
I0
tp32
bS'cord'
p33
tp34
Rp35
ag2
(g3
(S'S4'
p36
I0
I1
tp37
Rp38
(I3
S'|'
p39
NNNI4
I1
I0
tp40
bS'cord'
p41
tp42
Rp43
ag2
(g3
(S'S4'
p44
I0
I1
tp45
Rp46
(I3
S'|'
p47
NNNI4
I1
I0
tp48
bS'cord'
p49
tp50
Rp51
ag2
(g3
(S'S4'
p52
I0
I1
tp53
Rp54
(I3
S'|'
p55
NNNI4
I1
I0
tp56
bS'cord'
p57
tp58
Rp59
ag2
(g3
(S'S4'
p60
I0
I1
tp61
Rp62
(I3
S'|'
p63
NNNI4
I1
I0
tp64
bS'cord'
p65
tp66
Rp67
ag2
(g3
(S'S4'
p68
I0
I1
tp69
Rp70
(I3
S'|'
p71
NNNI4
I1
I0
tp72
bS'cord'
p73
tp74
Rp75
ag2
(g3
(S'S4'
p76
I0
I1
tp77
Rp78
(I3
S'|'
p79
NNNI4
I1
I0
tp80
bS'cord'
p81
tp82
Rp83
ag2
(g3
(S'S4'
p84
I0
I1
tp85
Rp86
(I3
S'|'
p87
NNNI4
I1
I0
tp88
bS'cord'
p89
tp90
Rp91
ag2
(g3
(S'S4'
p92
I0
I1
tp93
Rp94
(I3
S'|'
p95
NNNI4
I1
I0
tp96
bS'cord'
p97
tp98
Rp99
ag2
(g3
(S'S4'
p100
I0
I1
tp101
Rp102
(I3
S'|'
p103
NNNI4
I1
I0
tp104
bS'cord'
p105
tp106
Rp107
ag2
(g3
(S'S4'
p108
I0
I1
tp109
Rp110
(I3
S'|'
p111
NNNI4
I1
I0
tp112
bS'cord'
p113
tp114
Rp115
ag2
(g3
(S'S4'
p116
I0
I1
tp117
Rp118
(I3
S'|'
p119
NNNI4
I1
I0
tp120
bS'cord'
p121
tp122
Rp123
ag2
(g3
(S'S4'
p124
I0
I1
tp125
Rp126
(I3
S'|'
p127
NNNI4
I1
I0
tp128
bS'cord'
p129
tp130
Rp131
ag2
(g3
(S'S4'
p132
I0
I1
tp133
Rp134
(I3
S'|'
p135
NNNI4
I1
I0
tp136
bS'cord'
p137
tp138
Rp139
ag2
(g3
(S'S5'
p140
I0
I1
tp141
Rp142
(I3
S'|'
p143
NNNI5
I1
I0
tp144
bS'phone'
p145
tp146
Rp147
ag2
(g3
(S'S4'
p148
I0
I1
tp149
Rp150
(I3
S'|'
p151
NNNI4
I1
I0
tp152
bS'cord'
p153
tp154
Rp155
ag2
(g3
(S'S4'
p156
I0
I1
tp157
Rp158
(I3
S'|'
p159
NNNI4
I1
I0
tp160
bS'cord'
p161
tp162
Rp163
ag2
(g3
(S'S4'
p164
I0
I1
tp165
Rp166
(I3
S'|'
p167
NNNI4
I1
I0
tp168
bS'cord'
p169
tp170
Rp171
ag2
(g3
(S'S4'
p172
I0
I1
tp173
Rp174
(I3
S'|'
p175
NNNI4
I1
I0
tp176
bS'cord'
p177
tp178
Rp179
ag2
(g3
(S'S4'
p180
I0
I1
tp181
Rp182
(I3
S'|'
p183
NNNI4
I1
I0
tp184
bS'cord'
p185
tp186
Rp187
ag2
(g3
(S'S4'
p188
I0
I1
tp189
Rp190
(I3
S'|'
p191
NNNI4
I1
I0
tp192
bS'cord'
p193
tp194
Rp195
ag2
(g3
(S'S4'
p196
I0
I1
tp197
Rp198
(I3
S'|'
p199
NNNI4
I1
I0
tp200
bS'cord'
p201
tp202
Rp203
ag2
(g3
(S'S4'
p204
I0
I1
tp205
Rp206
(I3
S'|'
p207
NNNI4
I1
I0
tp208
bS'cord'
p209
tp210
Rp211
ag2
(g3
(S'S4'
p212
I0
I1
tp213
Rp214
(I3
S'|'
p215
NNNI4
I1
I0
tp216
bS'cord'
p217
tp218
Rp219
ag2
(g3
(S'S4'
p220
I0
I1
tp221
Rp222
(I3
S'|'
p223
NNNI4
I1
I0
tp224
bS'cord'
p225
tp226
Rp227
ag2
(g3
(S'S4'
p228
I0
I1
tp229
Rp230
(I3
S'|'
p231
NNNI4
I1
I0
tp232
bS'cord'
p233
tp234
Rp235
ag2
(g3
(S'S4'
p236
I0
I1
tp237
Rp238
(I3
S'|'
p239
NNNI4
I1
I0
tp240
bS'cord'
p241
tp242
Rp243
ag2
(g3
(S'S4'
p244
I0
I1
tp245
Rp246
(I3
S'|'
p247
NNNI4
I1
I0
tp248
bS'cord'
p249
tp250
Rp251
ag2
(g3
(S'S4'
p252
I0
I1
tp253
Rp254
(I3
S'|'
p255
NNNI4
I1
I0
tp256
bS'cord'
p257
tp258
Rp259
ag2
(g3
(S'S4'
p260
I0
I1
tp261
Rp262
(I3
S'|'
p263
NNNI4
I1
I0
tp264
bS'cord'
p265
tp266
Rp267
ag2
(g3
(S'S4'
p268
I0
I1
tp269
Rp270
(I3
S'|'
p271
NNNI4
I1
I0
tp272
bS'cord'
p273
tp274
Rp275
ag2
(g3
(S'S4'
p276
I0
I1
tp277
Rp278
(I3
S'|'
p279
NNNI4
I1
I0
tp280
bS'cord'
p281
tp282
Rp283
ag2
(g3
(S'S4'
p284
I0
I1
tp285
Rp286
(I3
S'|'
p287
NNNI4
I1
I0
tp288
bS'text'
p289
tp290
Rp291
ag2
(g3
(S'S4'
p292
I0
I1
tp293
Rp294
(I3
S'|'
p295
NNNI4
I1
I0
tp296
bS'cord'
p297
tp298
Rp299
ag2
(g3
(S'S8'
p300
I0
I1
tp301
Rp302
(I3
S'|'
p303
NNNI8
I1
I0
tp304
bS'division'
p305
tp306
Rp307
ag2
(g3
(S'S4'
p308
I0
I1
tp309
Rp310
(I3
S'|'
p311
NNNI4
I1
I0
tp312
bS'text'
p313
tp314
Rp315
ag2
(g3
(S'S8'
p316
I0
I1
tp317
Rp318
(I3
S'|'
p319
NNNI8
I1
I0
tp320
bS'division'
p321
tp322
Rp323
ag2
(g3
(S'S8'
p324
I0
I1
tp325
Rp326
(I3
S'|'
p327
NNNI8
I1
I0
tp328
bS'division'
p329
tp330
Rp331
ag2
(g3
(S'S4'
p332
I0
I1
tp333
Rp334
(I3
S'|'
p335
NNNI4
I1
I0
tp336
bS'text'
p337
tp338
Rp339
ag2
(g3
(S'S8'
p340
I0
I1
tp341
Rp342
(I3
S'|'
p343
NNNI8
I1
I0
tp344
bS'division'
p345
tp346
Rp347
ag2
(g3
(S'S8'
p348
I0
I1
tp349
Rp350
(I3
S'|'
p351
NNNI8
I1
I0
tp352
bS'division'
p353
tp354
Rp355
ag2
(g3
(S'S8'
p356
I0
I1
tp357
Rp358
(I3
S'|'
p359
NNNI8
I1
I0
tp360
bS'division'
p361
tp362
Rp363
ag2
(g3
(S'S8'
p364
I0
I1
tp365
Rp366
(I3
S'|'
p367
NNNI8
I1
I0
tp368
bS'division'
p369
tp370
Rp371
ag2
(g3
(S'S8'
p372
I0
I1
tp373
Rp374
(I3
S'|'
p375
NNNI8
I1
I0
tp376
bS'division'
p377
tp378
Rp379
ag2
(g3
(S'S8'
p380
I0
I1
tp381
Rp382
(I3
S'|'
p383
NNNI8
I1
I0
tp384
bS'division'
p385
tp386
Rp387
ag2
(g3
(S'S8'
p388
I0
I1
tp389
Rp390
(I3
S'|'
p391
NNNI8
I1
I0
tp392
bS'division'
p393
tp394
Rp395
ag2
(g3
(S'S8'
p396
I0
I1
tp397
Rp398
(I3
S'|'
p399
NNNI8
I1
I0
tp400
bS'division'
p401
tp402
Rp403
ag2
(g3
(S'S4'
p404
I0
I1
tp405
Rp406
(I3
S'|'
p407
NNNI4
I1
I0
tp408
bS'text'
p409
tp410
Rp411
ag2
(g3
(S'S4'
p412
I0
I1
tp413
Rp414
(I3
S'|'
p415
NNNI4
I1
I0
tp416
bS'text'
p417
tp418
Rp419
ag2
(g3
(S'S4'
p420
I0
I1
tp421
Rp422
(I3
S'|'
p423
NNNI4
I1
I0
tp424
bS'text'
p425
tp426
Rp427
ag2
(g3
(S'S8'
p428
I0
I1
tp429
Rp430
(I3
S'|'
p431
NNNI8
I1
I0
tp432
bS'division'
p433
tp434
Rp435
ag2
(g3
(S'S8'
p436
I0
I1
tp437
Rp438
(I3
S'|'
p439
NNNI8
I1
I0
tp440
bS'division'
p441
tp442
Rp443
ag2
(g3
(S'S8'
p444
I0
I1
tp445
Rp446
(I3
S'|'
p447
NNNI8
I1
I0
tp448
bS'division'
p449
tp450
Rp451
ag2
(g3
(S'S8'
p452
I0
I1
tp453
Rp454
(I3
S'|'
p455
NNNI8
I1
I0
tp456
bS'division'
p457
tp458
Rp459
ag2
(g3
(S'S8'
p460
I0
I1
tp461
Rp462
(I3
S'|'
p463
NNNI8
I1
I0
tp464
bS'division'
p465
tp466
Rp467
ag2
(g3
(S'S8'
p468
I0
I1
tp469
Rp470
(I3
S'|'
p471
NNNI8
I1
I0
tp472
bS'division'
p473
tp474
Rp475
ag2
(g3
(S'S8'
p476
I0
I1
tp477
Rp478
(I3
S'|'
p479
NNNI8
I1
I0
tp480
bS'division'
p481
tp482
Rp483
ag2
(g3
(S'S8'
p484
I0
I1
tp485
Rp486
(I3
S'|'
p487
NNNI8
I1
I0
tp488
bS'division'
p489
tp490
Rp491
ag2
(g3
(S'S8'
p492
I0
I1
tp493
Rp494
(I3
S'|'
p495
NNNI8
I1
I0
tp496
bS'division'
p497
tp498
Rp499
ag2
(g3
(S'S8'
p500
I0
I1
tp501
Rp502
(I3
S'|'
p503
NNNI8
I1
I0
tp504
bS'division'
p505
tp506
Rp507
ag2
(g3
(S'S4'
p508
I0
I1
tp509
Rp510
(I3
S'|'
p511
NNNI4
I1
I0
tp512
bS'text'
p513
tp514
Rp515
ag2
(g3
(S'S8'
p516
I0
I1
tp517
Rp518
(I3
S'|'
p519
NNNI8
I1
I0
tp520
bS'division'
p521
tp522
Rp523
ag2
(g3
(S'S8'
p524
I0
I1
tp525
Rp526
(I3
S'|'
p527
NNNI8
I1
I0
tp528
bS'division'
p529
tp530
Rp531
ag2
(g3
(S'S8'
p532
I0
I1
tp533
Rp534
(I3
S'|'
p535
NNNI8
I1
I0
tp536
bS'division'
p537
tp538
Rp539
ag2
(g3
(S'S8'
p540
I0
I1
tp541
Rp542
(I3
S'|'
p543
NNNI8
I1
I0
tp544
bS'division'
p545
tp546
Rp547
ag2
(g3
(S'S8'
p548
I0
I1
tp549
Rp550
(I3
S'|'
p551
NNNI8
I1
I0
tp552
bS'division'
p553
tp554
Rp555
ag2
(g3
(S'S8'
p556
I0
I1
tp557
Rp558
(I3
S'|'
p559
NNNI8
I1
I0
tp560
bS'division'
p561
tp562
Rp563
ag2
(g3
(S'S8'
p564
I0
I1
tp565
Rp566
(I3
S'|'
p567
NNNI8
I1
I0
tp568
bS'division'
p569
tp570
Rp571
ag2
(g3
(S'S4'
p572
I0
I1
tp573
Rp574
(I3
S'|'
p575
NNNI4
I1
I0
tp576
bS'text'
p577
tp578
Rp579
ag2
(g3
(S'S8'
p580
I0
I1
tp581
Rp582
(I3
S'|'
p583
NNNI8
I1
I0
tp584
bS'division'
p585
tp586
Rp587
ag2
(g3
(S'S8'
p588
I0
I1
tp589
Rp590
(I3
S'|'
p591
NNNI8
I1
I0
tp592
bS'division'
p593
tp594
Rp595
ag2
(g3
(S'S9'
p596
I0
I1
tp597
Rp598
(I3
S'|'
p599
NNNI9
I1
I0
tp600
bS'formation'
p601
tp602
Rp603
ag2
(g3
(S'S9'
p604
I0
I1
tp605
Rp606
(I3
S'|'
p607
NNNI9
I1
I0
tp608
bS'formation'
p609
tp610
Rp611
ag2
(g3
(S'S4'
p612
I0
I1
tp613
Rp614
(I3
S'|'
p615
NNNI4
I1
I0
tp616
bS'cord'
p617
tp618
Rp619
ag2
(g3
(S'S9'
p620
I0
I1
tp621
Rp622
(I3
S'|'
p623
NNNI9
I1
I0
tp624
bS'formation'
p625
tp626
Rp627
ag2
(g3
(S'S9'
p628
I0
I1
tp629
Rp630
(I3
S'|'
p631
NNNI9
I1
I0
tp632
bS'formation'
p633
tp634
Rp635
ag2
(g3
(S'S7'
p636
I0
I1
tp637
Rp638
(I3
S'|'
p639
NNNI7
I1
I0
tp640
bS'product'
p641
tp642
Rp643
ag2
(g3
(S'S9'
p644
I0
I1
tp645
Rp646
(I3
S'|'
p647
NNNI9
I1
I0
tp648
bS'formation'
p649
tp650
Rp651
ag2
(g3
(S'S9'
p652
I0
I1
tp653
Rp654
(I3
S'|'
p655
NNNI9
I1
I0
tp656
bS'formation'
p657
tp658
Rp659
ag2
(g3
(S'S9'
p660
I0
I1
tp661
Rp662
(I3
S'|'
p663
NNNI9
I1
I0
tp664
bS'formation'
p665
tp666
Rp667
ag2
(g3
(S'S9'
p668
I0
I1
tp669
Rp670
(I3
S'|'
p671
NNNI9
I1
I0
tp672
bS'formation'
p673
tp674
Rp675
ag2
(g3
(S'S7'
p676
I0
I1
tp677
Rp678
(I3
S'|'
p679
NNNI7
I1
I0
tp680
bS'product'
p681
tp682
Rp683
ag2
(g3
(S'S9'
p684
I0
I1
tp685
Rp686
(I3
S'|'
p687
NNNI9
I1
I0
tp688
bS'formation'
p689
tp690
Rp691
ag2
(g3
(S'S9'
p692
I0
I1
tp693
Rp694
(I3
S'|'
p695
NNNI9
I1
I0
tp696
bS'formation'
p697
tp698
Rp699
ag2
(g3
(S'S7'
p700
I0
I1
tp701
Rp702
(I3
S'|'
p703
NNNI7
I1
I0
tp704
bS'product'
p705
tp706
Rp707
ag2
(g3
(S'S9'
p708
I0
I1
tp709
Rp710
(I3
S'|'
p711
NNNI9
I1
I0
tp712
bS'formation'
p713
tp714
Rp715
ag2
(g3
(S'S7'
p716
I0
I1
tp717
Rp718
(I3
S'|'
p719
NNNI7
I1
I0
tp720
bS'product'
p721
tp722
Rp723
ag2
(g3
(S'S9'
p724
I0
I1
tp725
Rp726
(I3
S'|'
p727
NNNI9
I1
I0
tp728
bS'formation'
p729
tp730
Rp731
ag2
(g3
(S'S9'
p732
I0
I1
tp733
Rp734
(I3
S'|'
p735
NNNI9
I1
I0
tp736
bS'formation'
p737
tp738
Rp739
ag2
(g3
(S'S9'
p740
I0
I1
tp741
Rp742
(I3
S'|'
p743
NNNI9
I1
I0
tp744
bS'formation'
p745
tp746
Rp747
ag2
(g3
(S'S9'
p748
I0
I1
tp749
Rp750
(I3
S'|'
p751
NNNI9
I1
I0
tp752
bS'formation'
p753
tp754
Rp755
ag2
(g3
(S'S5'
p756
I0
I1
tp757
Rp758
(I3
S'|'
p759
NNNI5
I1
I0
tp760
bS'phone'
p761
tp762
Rp763
ag2
(g3
(S'S9'
p764
I0
I1
tp765
Rp766
(I3
S'|'
p767
NNNI9
I1
I0
tp768
bS'formation'
p769
tp770
Rp771
ag2
(g3
(S'S7'
p772
I0
I1
tp773
Rp774
(I3
S'|'
p775
NNNI7
I1
I0
tp776
bS'product'
p777
tp778
Rp779
ag2
(g3
(S'S9'
p780
I0
I1
tp781
Rp782
(I3
S'|'
p783
NNNI9
I1
I0
tp784
bS'formation'
p785
tp786
Rp787
ag2
(g3
(S'S9'
p788
I0
I1
tp789
Rp790
(I3
S'|'
p791
NNNI9
I1
I0
tp792
bS'formation'
p793
tp794
Rp795
ag2
(g3
(S'S7'
p796
I0
I1
tp797
Rp798
(I3
S'|'
p799
NNNI7
I1
I0
tp800
bS'product'
p801
tp802
Rp803
ag2
(g3
(S'S4'
p804
I0
I1
tp805
Rp806
(I3
S'|'
p807
NNNI4
I1
I0
tp808
bS'text'
p809
tp810
Rp811
ag2
(g3
(S'S4'
p812
I0
I1
tp813
Rp814
(I3
S'|'
p815
NNNI4
I1
I0
tp816
bS'text'
p817
tp818
Rp819
ag2
(g3
(S'S9'
p820
I0
I1
tp821
Rp822
(I3
S'|'
p823
NNNI9
I1
I0
tp824
bS'formation'
p825
tp826
Rp827
ag2
(g3
(S'S7'
p828
I0
I1
tp829
Rp830
(I3
S'|'
p831
NNNI7
I1
I0
tp832
bS'product'
p833
tp834
Rp835
ag2
(g3
(S'S9'
p836
I0
I1
tp837
Rp838
(I3
S'|'
p839
NNNI9
I1
I0
tp840
bS'formation'
p841
tp842
Rp843
ag2
(g3
(S'S7'
p844
I0
I1
tp845
Rp846
(I3
S'|'
p847
NNNI7
I1
I0
tp848
bS'product'
p849
tp850
Rp851
ag2
(g3
(S'S9'
p852
I0
I1
tp853
Rp854
(I3
S'|'
p855
NNNI9
I1
I0
tp856
bS'formation'
p857
tp858
Rp859
ag2
(g3
(S'S8'
p860
I0
I1
tp861
Rp862
(I3
S'|'
p863
NNNI8
I1
I0
tp864
bS'division'
p865
tp866
Rp867
ag2
(g3
(S'S9'
p868
I0
I1
tp869
Rp870
(I3
S'|'
p871
NNNI9
I1
I0
tp872
bS'formation'
p873
tp874
Rp875
ag2
(g3
(S'S5'
p876
I0
I1
tp877
Rp878
(I3
S'|'
p879
NNNI5
I1
I0
tp880
bS'phone'
p881
tp882
Rp883
ag2
(g3
(S'S5'
p884
I0
I1
tp885
Rp886
(I3
S'|'
p887
NNNI5
I1
I0
tp888
bS'phone'
p889
tp890
Rp891
ag2
(g3
(S'S5'
p892
I0
I1
tp893
Rp894
(I3
S'|'
p895
NNNI5
I1
I0
tp896
bS'phone'
p897
tp898
Rp899
ag2
(g3
(S'S5'
p900
I0
I1
tp901
Rp902
(I3
S'|'
p903
NNNI5
I1
I0
tp904
bS'phone'
p905
tp906
Rp907
ag2
(g3
(S'S5'
p908
I0
I1
tp909
Rp910
(I3
S'|'
p911
NNNI5
I1
I0
tp912
bS'phone'
p913
tp914
Rp915
ag2
(g3
(S'S5'
p916
I0
I1
tp917
Rp918
(I3
S'|'
p919
NNNI5
I1
I0
tp920
bS'phone'
p921
tp922
Rp923
ag2
(g3
(S'S5'
p924
I0
I1
tp925
Rp926
(I3
S'|'
p927
NNNI5
I1
I0
tp928
bS'phone'
p929
tp930
Rp931
ag2
(g3
(S'S5'
p932
I0
I1
tp933
Rp934
(I3
S'|'
p935
NNNI5
I1
I0
tp936
bS'phone'
p937
tp938
Rp939
ag2
(g3
(S'S5'
p940
I0
I1
tp941
Rp942
(I3
S'|'
p943
NNNI5
I1
I0
tp944
bS'phone'
p945
tp946
Rp947
ag2
(g3
(S'S5'
p948
I0
I1
tp949
Rp950
(I3
S'|'
p951
NNNI5
I1
I0
tp952
bS'phone'
p953
tp954
Rp955
ag2
(g3
(S'S5'
p956
I0
I1
tp957
Rp958
(I3
S'|'
p959
NNNI5
I1
I0
tp960
bS'phone'
p961
tp962
Rp963
ag2
(g3
(S'S5'
p964
I0
I1
tp965
Rp966
(I3
S'|'
p967
NNNI5
I1
I0
tp968
bS'phone'
p969
tp970
Rp971
ag2
(g3
(S'S5'
p972
I0
I1
tp973
Rp974
(I3
S'|'
p975
NNNI5
I1
I0
tp976
bS'phone'
p977
tp978
Rp979
ag2
(g3
(S'S5'
p980
I0
I1
tp981
Rp982
(I3
S'|'
p983
NNNI5
I1
I0
tp984
bS'phone'
p985
tp986
Rp987
ag2
(g3
(S'S5'
p988
I0
I1
tp989
Rp990
(I3
S'|'
p991
NNNI5
I1
I0
tp992
bS'phone'
p993
tp994
Rp995
ag2
(g3
(S'S5'
p996
I0
I1
tp997
Rp998
(I3
S'|'
p999
NNNI5
I1
I0
tp1000
bS'phone'
p1001
tp1002
Rp1003
ag2
(g3
(S'S5'
p1004
I0
I1
tp1005
Rp1006
(I3
S'|'
p1007
NNNI5
I1
I0
tp1008
bS'phone'
p1009
tp1010
Rp1011
ag2
(g3
(S'S7'
p1012
I0
I1
tp1013
Rp1014
(I3
S'|'
p1015
NNNI7
I1
I0
tp1016
bS'product'
p1017
tp1018
Rp1019
ag2
(g3
(S'S5'
p1020
I0
I1
tp1021
Rp1022
(I3
S'|'
p1023
NNNI5
I1
I0
tp1024
bS'phone'
p1025
tp1026
Rp1027
ag2
(g3
(S'S7'
p1028
I0
I1
tp1029
Rp1030
(I3
S'|'
p1031
NNNI7
I1
I0
tp1032
bS'product'
p1033
tp1034
Rp1035
ag2
(g3
(S'S7'
p1036
I0
I1
tp1037
Rp1038
(I3
S'|'
p1039
NNNI7
I1
I0
tp1040
bS'product'
p1041
tp1042
Rp1043
ag2
(g3
(S'S5'
p1044
I0
I1
tp1045
Rp1046
(I3
S'|'
p1047
NNNI5
I1
I0
tp1048
bS'phone'
p1049
tp1050
Rp1051
ag2
(g3
(S'S5'
p1052
I0
I1
tp1053
Rp1054
(I3
S'|'
p1055
NNNI5
I1
I0
tp1056
bS'phone'
p1057
tp1058
Rp1059
ag2
(g3
(S'S5'
p1060
I0
I1
tp1061
Rp1062
(I3
S'|'
p1063
NNNI5
I1
I0
tp1064
bS'phone'
p1065
tp1066
Rp1067
ag2
(g3
(S'S5'
p1068
I0
I1
tp1069
Rp1070
(I3
S'|'
p1071
NNNI5
I1
I0
tp1072
bS'phone'
p1073
tp1074
Rp1075
ag2
(g3
(S'S5'
p1076
I0
I1
tp1077
Rp1078
(I3
S'|'
p1079
NNNI5
I1
I0
tp1080
bS'phone'
p1081
tp1082
Rp1083
ag2
(g3
(S'S5'
p1084
I0
I1
tp1085
Rp1086
(I3
S'|'
p1087
NNNI5
I1
I0
tp1088
bS'phone'
p1089
tp1090
Rp1091
ag2
(g3
(S'S5'
p1092
I0
I1
tp1093
Rp1094
(I3
S'|'
p1095
NNNI5
I1
I0
tp1096
bS'phone'
p1097
tp1098
Rp1099
ag2
(g3
(S'S5'
p1100
I0
I1
tp1101
Rp1102
(I3
S'|'
p1103
NNNI5
I1
I0
tp1104
bS'phone'
p1105
tp1106
Rp1107
ag2
(g3
(S'S5'
p1108
I0
I1
tp1109
Rp1110
(I3
S'|'
p1111
NNNI5
I1
I0
tp1112
bS'phone'
p1113
tp1114
Rp1115
ag2
(g3
(S'S5'
p1116
I0
I1
tp1117
Rp1118
(I3
S'|'
p1119
NNNI5
I1
I0
tp1120
bS'phone'
p1121
tp1122
Rp1123
ag2
(g3
(S'S5'
p1124
I0
I1
tp1125
Rp1126
(I3
S'|'
p1127
NNNI5
I1
I0
tp1128
bS'phone'
p1129
tp1130
Rp1131
ag2
(g3
(S'S5'
p1132
I0
I1
tp1133
Rp1134
(I3
S'|'
p1135
NNNI5
I1
I0
tp1136
bS'phone'
p1137
tp1138
Rp1139
ag2
(g3
(S'S5'
p1140
I0
I1
tp1141
Rp1142
(I3
S'|'
p1143
NNNI5
I1
I0
tp1144
bS'phone'
p1145
tp1146
Rp1147
ag2
(g3
(S'S5'
p1148
I0
I1
tp1149
Rp1150
(I3
S'|'
p1151
NNNI5
I1
I0
tp1152
bS'phone'
p1153
tp1154
Rp1155
ag2
(g3
(S'S5'
p1156
I0
I1
tp1157
Rp1158
(I3
S'|'
p1159
NNNI5
I1
I0
tp1160
bS'phone'
p1161
tp1162
Rp1163
ag2
(g3
(S'S5'
p1164
I0
I1
tp1165
Rp1166
(I3
S'|'
p1167
NNNI5
I1
I0
tp1168
bS'phone'
p1169
tp1170
Rp1171
ag2
(g3
(S'S5'
p1172
I0
I1
tp1173
Rp1174
(I3
S'|'
p1175
NNNI5
I1
I0
tp1176
bS'phone'
p1177
tp1178
Rp1179
ag2
(g3
(S'S5'
p1180
I0
I1
tp1181
Rp1182
(I3
S'|'
p1183
NNNI5
I1
I0
tp1184
bS'phone'
p1185
tp1186
Rp1187
ag2
(g3
(S'S4'
p1188
I0
I1
tp1189
Rp1190
(I3
S'|'
p1191
NNNI4
I1
I0
tp1192
bS'cord'
p1193
tp1194
Rp1195
ag2
(g3
(S'S5'
p1196
I0
I1
tp1197
Rp1198
(I3
S'|'
p1199
NNNI5
I1
I0
tp1200
bS'phone'
p1201
tp1202
Rp1203
ag2
(g3
(S'S5'
p1204
I0
I1
tp1205
Rp1206
(I3
S'|'
p1207
NNNI5
I1
I0
tp1208
bS'phone'
p1209
tp1210
Rp1211
ag2
(g3
(S'S5'
p1212
I0
I1
tp1213
Rp1214
(I3
S'|'
p1215
NNNI5
I1
I0
tp1216
bS'phone'
p1217
tp1218
Rp1219
ag2
(g3
(S'S7'
p1220
I0
I1
tp1221
Rp1222
(I3
S'|'
p1223
NNNI7
I1
I0
tp1224
bS'product'
p1225
tp1226
Rp1227
ag2
(g3
(S'S7'
p1228
I0
I1
tp1229
Rp1230
(I3
S'|'
p1231
NNNI7
I1
I0
tp1232
bS'product'
p1233
tp1234
Rp1235
ag2
(g3
(S'S7'
p1236
I0
I1
tp1237
Rp1238
(I3
S'|'
p1239
NNNI7
I1
I0
tp1240
bS'product'
p1241
tp1242
Rp1243
ag2
(g3
(S'S7'
p1244
I0
I1
tp1245
Rp1246
(I3
S'|'
p1247
NNNI7
I1
I0
tp1248
bS'product'
p1249
tp1250
Rp1251
ag2
(g3
(S'S7'
p1252
I0
I1
tp1253
Rp1254
(I3
S'|'
p1255
NNNI7
I1
I0
tp1256
bS'product'
p1257
tp1258
Rp1259
ag2
(g3
(S'S7'
p1260
I0
I1
tp1261
Rp1262
(I3
S'|'
p1263
NNNI7
I1
I0
tp1264
bS'product'
p1265
tp1266
Rp1267
ag2
(g3
(S'S7'
p1268
I0
I1
tp1269
Rp1270
(I3
S'|'
p1271
NNNI7
I1
I0
tp1272
bS'product'
p1273
tp1274
Rp1275
ag2
(g3
(S'S7'
p1276
I0
I1
tp1277
Rp1278
(I3
S'|'
p1279
NNNI7
I1
I0
tp1280
bS'product'
p1281
tp1282
Rp1283
ag2
(g3
(S'S7'
p1284
I0
I1
tp1285
Rp1286
(I3
S'|'
p1287
NNNI7
I1
I0
tp1288
bS'product'
p1289
tp1290
Rp1291
ag2
(g3
(S'S7'
p1292
I0
I1
tp1293
Rp1294
(I3
S'|'
p1295
NNNI7
I1
I0
tp1296
bS'product'
p1297
tp1298
Rp1299
ag2
(g3
(S'S7'
p1300
I0
I1
tp1301
Rp1302
(I3
S'|'
p1303
NNNI7
I1
I0
tp1304
bS'product'
p1305
tp1306
Rp1307
ag2
(g3
(S'S7'
p1308
I0
I1
tp1309
Rp1310
(I3
S'|'
p1311
NNNI7
I1
I0
tp1312
bS'product'
p1313
tp1314
Rp1315
ag2
(g3
(S'S7'
p1316
I0
I1
tp1317
Rp1318
(I3
S'|'
p1319
NNNI7
I1
I0
tp1320
bS'product'
p1321
tp1322
Rp1323
ag2
(g3
(S'S7'
p1324
I0
I1
tp1325
Rp1326
(I3
S'|'
p1327
NNNI7
I1
I0
tp1328
bS'product'
p1329
tp1330
Rp1331
ag2
(g3
(S'S7'
p1332
I0
I1
tp1333
Rp1334
(I3
S'|'
p1335
NNNI7
I1
I0
tp1336
bS'product'
p1337
tp1338
Rp1339
ag2
(g3
(S'S7'
p1340
I0
I1
tp1341
Rp1342
(I3
S'|'
p1343
NNNI7
I1
I0
tp1344
bS'product'
p1345
tp1346
Rp1347
ag2
(g3
(S'S7'
p1348
I0
I1
tp1349
Rp1350
(I3
S'|'
p1351
NNNI7
I1
I0
tp1352
bS'product'
p1353
tp1354
Rp1355
ag2
(g3
(S'S7'
p1356
I0
I1
tp1357
Rp1358
(I3
S'|'
p1359
NNNI7
I1
I0
tp1360
bS'product'
p1361
tp1362
Rp1363
ag2
(g3
(S'S7'
p1364
I0
I1
tp1365
Rp1366
(I3
S'|'
p1367
NNNI7
I1
I0
tp1368
bS'product'
p1369
tp1370
Rp1371
ag2
(g3
(S'S7'
p1372
I0
I1
tp1373
Rp1374
(I3
S'|'
p1375
NNNI7
I1
I0
tp1376
bS'product'
p1377
tp1378
Rp1379
ag2
(g3
(S'S7'
p1380
I0
I1
tp1381
Rp1382
(I3
S'|'
p1383
NNNI7
I1
I0
tp1384
bS'product'
p1385
tp1386
Rp1387
ag2
(g3
(S'S7'
p1388
I0
I1
tp1389
Rp1390
(I3
S'|'
p1391
NNNI7
I1
I0
tp1392
bS'product'
p1393
tp1394
Rp1395
ag2
(g3
(S'S7'
p1396
I0
I1
tp1397
Rp1398
(I3
S'|'
p1399
NNNI7
I1
I0
tp1400
bS'product'
p1401
tp1402
Rp1403
ag2
(g3
(S'S8'
p1404
I0
I1
tp1405
Rp1406
(I3
S'|'
p1407
NNNI8
I1
I0
tp1408
bS'division'
p1409
tp1410
Rp1411
ag2
(g3
(S'S7'
p1412
I0
I1
tp1413
Rp1414
(I3
S'|'
p1415
NNNI7
I1
I0
tp1416
bS'product'
p1417
tp1418
Rp1419
ag2
(g3
(S'S7'
p1420
I0
I1
tp1421
Rp1422
(I3
S'|'
p1423
NNNI7
I1
I0
tp1424
bS'product'
p1425
tp1426
Rp1427
ag2
(g3
(S'S7'
p1428
I0
I1
tp1429
Rp1430
(I3
S'|'
p1431
NNNI7
I1
I0
tp1432
bS'product'
p1433
tp1434
Rp1435
ag2
(g3
(S'S7'
p1436
I0
I1
tp1437
Rp1438
(I3
S'|'
p1439
NNNI7
I1
I0
tp1440
bS'product'
p1441
tp1442
Rp1443
ag2
(g3
(S'S7'
p1444
I0
I1
tp1445
Rp1446
(I3
S'|'
p1447
NNNI7
I1
I0
tp1448
bS'product'
p1449
tp1450
Rp1451
ag2
(g3
(S'S7'
p1452
I0
I1
tp1453
Rp1454
(I3
S'|'
p1455
NNNI7
I1
I0
tp1456
bS'product'
p1457
tp1458
Rp1459
ag2
(g3
(S'S7'
p1460
I0
I1
tp1461
Rp1462
(I3
S'|'
p1463
NNNI7
I1
I0
tp1464
bS'product'
p1465
tp1466
Rp1467
ag2
(g3
(S'S7'
p1468
I0
I1
tp1469
Rp1470
(I3
S'|'
p1471
NNNI7
I1
I0
tp1472
bS'product'
p1473
tp1474
Rp1475
ag2
(g3
(S'S7'
p1476
I0
I1
tp1477
Rp1478
(I3
S'|'
p1479
NNNI7
I1
I0
tp1480
bS'product'
p1481
tp1482
Rp1483
ag2
(g3
(S'S7'
p1484
I0
I1
tp1485
Rp1486
(I3
S'|'
p1487
NNNI7
I1
I0
tp1488
bS'product'
p1489
tp1490
Rp1491
ag2
(g3
(S'S7'
p1492
I0
I1
tp1493
Rp1494
(I3
S'|'
p1495
NNNI7
I1
I0
tp1496
bS'product'
p1497
tp1498
Rp1499
ag2
(g3
(S'S7'
p1500
I0
I1
tp1501
Rp1502
(I3
S'|'
p1503
NNNI7
I1
I0
tp1504
bS'product'
p1505
tp1506
Rp1507
ag2
(g3
(S'S7'
p1508
I0
I1
tp1509
Rp1510
(I3
S'|'
p1511
NNNI7
I1
I0
tp1512
bS'product'
p1513
tp1514
Rp1515
ag2
(g3
(S'S7'
p1516
I0
I1
tp1517
Rp1518
(I3
S'|'
p1519
NNNI7
I1
I0
tp1520
bS'product'
p1521
tp1522
Rp1523
ag2
(g3
(S'S7'
p1524
I0
I1
tp1525
Rp1526
(I3
S'|'
p1527
NNNI7
I1
I0
tp1528
bS'product'
p1529
tp1530
Rp1531
ag2
(g3
(S'S7'
p1532
I0
I1
tp1533
Rp1534
(I3
S'|'
p1535
NNNI7
I1
I0
tp1536
bS'product'
p1537
tp1538
Rp1539
ag2
(g3
(S'S7'
p1540
I0
I1
tp1541
Rp1542
(I3
S'|'
p1543
NNNI7
I1
I0
tp1544
bS'product'
p1545
tp1546
Rp1547
ag2
(g3
(S'S7'
p1548
I0
I1
tp1549
Rp1550
(I3
S'|'
p1551
NNNI7
I1
I0
tp1552
bS'product'
p1553
tp1554
Rp1555
ag2
(g3
(S'S7'
p1556
I0
I1
tp1557
Rp1558
(I3
S'|'
p1559
NNNI7
I1
I0
tp1560
bS'product'
p1561
tp1562
Rp1563
ag2
(g3
(S'S4'
p1564
I0
I1
tp1565
Rp1566
(I3
S'|'
p1567
NNNI4
I1
I0
tp1568
bS'cord'
p1569
tp1570
Rp1571
ag2
(g3
(S'S7'
p1572
I0
I1
tp1573
Rp1574
(I3
S'|'
p1575
NNNI7
I1
I0
tp1576
bS'product'
p1577
tp1578
Rp1579
ag2
(g3
(S'S7'
p1580
I0
I1
tp1581
Rp1582
(I3
S'|'
p1583
NNNI7
I1
I0
tp1584
bS'product'
p1585
tp1586
Rp1587
ag2
(g3
(S'S7'
p1588
I0
I1
tp1589
Rp1590
(I3
S'|'
p1591
NNNI7
I1
I0
tp1592
bS'product'
p1593
tp1594
Rp1595
ag2
(g3
(S'S7'
p1596
I0
I1
tp1597
Rp1598
(I3
S'|'
p1599
NNNI7
I1
I0
tp1600
bS'product'
p1601
tp1602
Rp1603
ag2
(g3
(S'S7'
p1604
I0
I1
tp1605
Rp1606
(I3
S'|'
p1607
NNNI7
I1
I0
tp1608
bS'product'
p1609
tp1610
Rp1611
ag2
(g3
(S'S7'
p1612
I0
I1
tp1613
Rp1614
(I3
S'|'
p1615
NNNI7
I1
I0
tp1616
bS'product'
p1617
tp1618
Rp1619
ag2
(g3
(S'S7'
p1620
I0
I1
tp1621
Rp1622
(I3
S'|'
p1623
NNNI7
I1
I0
tp1624
bS'product'
p1625
tp1626
Rp1627
ag2
(g3
(S'S7'
p1628
I0
I1
tp1629
Rp1630
(I3
S'|'
p1631
NNNI7
I1
I0
tp1632
bS'product'
p1633
tp1634
Rp1635
ag2
(g3
(S'S7'
p1636
I0
I1
tp1637
Rp1638
(I3
S'|'
p1639
NNNI7
I1
I0
tp1640
bS'product'
p1641
tp1642
Rp1643
ag2
(g3
(S'S7'
p1644
I0
I1
tp1645
Rp1646
(I3
S'|'
p1647
NNNI7
I1
I0
tp1648
bS'product'
p1649
tp1650
Rp1651
ag2
(g3
(S'S7'
p1652
I0
I1
tp1653
Rp1654
(I3
S'|'
p1655
NNNI7
I1
I0
tp1656
bS'product'
p1657
tp1658
Rp1659
ag2
(g3
(S'S7'
p1660
I0
I1
tp1661
Rp1662
(I3
S'|'
p1663
NNNI7
I1
I0
tp1664
bS'product'
p1665
tp1666
Rp1667
ag2
(g3
(S'S7'
p1668
I0
I1
tp1669
Rp1670
(I3
S'|'
p1671
NNNI7
I1
I0
tp1672
bS'product'
p1673
tp1674
Rp1675
ag2
(g3
(S'S7'
p1676
I0
I1
tp1677
Rp1678
(I3
S'|'
p1679
NNNI7
I1
I0
tp1680
bS'product'
p1681
tp1682
Rp1683
ag2
(g3
(S'S7'
p1684
I0
I1
tp1685
Rp1686
(I3
S'|'
p1687
NNNI7
I1
I0
tp1688
bS'product'
p1689
tp1690
Rp1691
ag2
(g3
(S'S7'
p1692
I0
I1
tp1693
Rp1694
(I3
S'|'
p1695
NNNI7
I1
I0
tp1696
bS'product'
p1697
tp1698
Rp1699
ag2
(g3
(S'S7'
p1700
I0
I1
tp1701
Rp1702
(I3
S'|'
p1703
NNNI7
I1
I0
tp1704
bS'product'
p1705
tp1706
Rp1707
ag2
(g3
(S'S7'
p1708
I0
I1
tp1709
Rp1710
(I3
S'|'
p1711
NNNI7
I1
I0
tp1712
bS'product'
p1713
tp1714
Rp1715
ag2
(g3
(S'S7'
p1716
I0
I1
tp1717
Rp1718
(I3
S'|'
p1719
NNNI7
I1
I0
tp1720
bS'product'
p1721
tp1722
Rp1723
ag2
(g3
(S'S7'
p1724
I0
I1
tp1725
Rp1726
(I3
S'|'
p1727
NNNI7
I1
I0
tp1728
bS'product'
p1729
tp1730
Rp1731
ag2
(g3
(S'S7'
p1732
I0
I1
tp1733
Rp1734
(I3
S'|'
p1735
NNNI7
I1
I0
tp1736
bS'product'
p1737
tp1738
Rp1739
ag2
(g3
(S'S7'
p1740
I0
I1
tp1741
Rp1742
(I3
S'|'
p1743
NNNI7
I1
I0
tp1744
bS'product'
p1745
tp1746
Rp1747
ag2
(g3
(S'S7'
p1748
I0
I1
tp1749
Rp1750
(I3
S'|'
p1751
NNNI7
I1
I0
tp1752
bS'product'
p1753
tp1754
Rp1755
ag2
(g3
(S'S7'
p1756
I0
I1
tp1757
Rp1758
(I3
S'|'
p1759
NNNI7
I1
I0
tp1760
bS'product'
p1761
tp1762
Rp1763
ag2
(g3
(S'S7'
p1764
I0
I1
tp1765
Rp1766
(I3
S'|'
p1767
NNNI7
I1
I0
tp1768
bS'product'
p1769
tp1770
Rp1771
ag2
(g3
(S'S7'
p1772
I0
I1
tp1773
Rp1774
(I3
S'|'
p1775
NNNI7
I1
I0
tp1776
bS'product'
p1777
tp1778
Rp1779
ag2
(g3
(S'S7'
p1780
I0
I1
tp1781
Rp1782
(I3
S'|'
p1783
NNNI7
I1
I0
tp1784
bS'product'
p1785
tp1786
Rp1787
ag2
(g3
(S'S7'
p1788
I0
I1
tp1789
Rp1790
(I3
S'|'
p1791
NNNI7
I1
I0
tp1792
bS'product'
p1793
tp1794
Rp1795
ag2
(g3
(S'S7'
p1796
I0
I1
tp1797
Rp1798
(I3
S'|'
p1799
NNNI7
I1
I0
tp1800
bS'product'
p1801
tp1802
Rp1803
ag2
(g3
(S'S7'
p1804
I0
I1
tp1805
Rp1806
(I3
S'|'
p1807
NNNI7
I1
I0
tp1808
bS'product'
p1809
tp1810
Rp1811
ag2
(g3
(S'S7'
p1812
I0
I1
tp1813
Rp1814
(I3
S'|'
p1815
NNNI7
I1
I0
tp1816
bS'product'
p1817
tp1818
Rp1819
ag2
(g3
(S'S7'
p1820
I0
I1
tp1821
Rp1822
(I3
S'|'
p1823
NNNI7
I1
I0
tp1824
bS'product'
p1825
tp1826
Rp1827
ag2
(g3
(S'S7'
p1828
I0
I1
tp1829
Rp1830
(I3
S'|'
p1831
NNNI7
I1
I0
tp1832
bS'product'
p1833
tp1834
Rp1835
ag2
(g3
(S'S7'
p1836
I0
I1
tp1837
Rp1838
(I3
S'|'
p1839
NNNI7
I1
I0
tp1840
bS'product'
p1841
tp1842
Rp1843
ag2
(g3
(S'S7'
p1844
I0
I1
tp1845
Rp1846
(I3
S'|'
p1847
NNNI7
I1
I0
tp1848
bS'product'
p1849
tp1850
Rp1851
ag2
(g3
(S'S7'
p1852
I0
I1
tp1853
Rp1854
(I3
S'|'
p1855
NNNI7
I1
I0
tp1856
bS'product'
p1857
tp1858
Rp1859
ag2
(g3
(S'S7'
p1860
I0
I1
tp1861
Rp1862
(I3
S'|'
p1863
NNNI7
I1
I0
tp1864
bS'product'
p1865
tp1866
Rp1867
ag2
(g3
(S'S7'
p1868
I0
I1
tp1869
Rp1870
(I3
S'|'
p1871
NNNI7
I1
I0
tp1872
bS'product'
p1873
tp1874
Rp1875
ag2
(g3
(S'S7'
p1876
I0
I1
tp1877
Rp1878
(I3
S'|'
p1879
NNNI7
I1
I0
tp1880
bS'product'
p1881
tp1882
Rp1883
ag2
(g3
(S'S7'
p1884
I0
I1
tp1885
Rp1886
(I3
S'|'
p1887
NNNI7
I1
I0
tp1888
bS'product'
p1889
tp1890
Rp1891
ag2
(g3
(S'S7'
p1892
I0
I1
tp1893
Rp1894
(I3
S'|'
p1895
NNNI7
I1
I0
tp1896
bS'product'
p1897
tp1898
Rp1899
ag2
(g3
(S'S7'
p1900
I0
I1
tp1901
Rp1902
(I3
S'|'
p1903
NNNI7
I1
I0
tp1904
bS'product'
p1905
tp1906
Rp1907
ag2
(g3
(S'S7'
p1908
I0
I1
tp1909
Rp1910
(I3
S'|'
p1911
NNNI7
I1
I0
tp1912
bS'product'
p1913
tp1914
Rp1915
ag2
(g3
(S'S7'
p1916
I0
I1
tp1917
Rp1918
(I3
S'|'
p1919
NNNI7
I1
I0
tp1920
bS'product'
p1921
tp1922
Rp1923
ag2
(g3
(S'S7'
p1924
I0
I1
tp1925
Rp1926
(I3
S'|'
p1927
NNNI7
I1
I0
tp1928
bS'product'
p1929
tp1930
Rp1931
ag2
(g3
(S'S7'
p1932
I0
I1
tp1933
Rp1934
(I3
S'|'
p1935
NNNI7
I1
I0
tp1936
bS'product'
p1937
tp1938
Rp1939
ag2
(g3
(S'S7'
p1940
I0
I1
tp1941
Rp1942
(I3
S'|'
p1943
NNNI7
I1
I0
tp1944
bS'product'
p1945
tp1946
Rp1947
ag2
(g3
(S'S7'
p1948
I0
I1
tp1949
Rp1950
(I3
S'|'
p1951
NNNI7
I1
I0
tp1952
bS'product'
p1953
tp1954
Rp1955
ag2
(g3
(S'S4'
p1956
I0
I1
tp1957
Rp1958
(I3
S'|'
p1959
NNNI4
I1
I0
tp1960
bS'text'
p1961
tp1962
Rp1963
ag2
(g3
(S'S7'
p1964
I0
I1
tp1965
Rp1966
(I3
S'|'
p1967
NNNI7
I1
I0
tp1968
bS'product'
p1969
tp1970
Rp1971
ag2
(g3
(S'S7'
p1972
I0
I1
tp1973
Rp1974
(I3
S'|'
p1975
NNNI7
I1
I0
tp1976
bS'product'
p1977
tp1978
Rp1979
ag2
(g3
(S'S7'
p1980
I0
I1
tp1981
Rp1982
(I3
S'|'
p1983
NNNI7
I1
I0
tp1984
bS'product'
p1985
tp1986
Rp1987
ag2
(g3
(S'S7'
p1988
I0
I1
tp1989
Rp1990
(I3
S'|'
p1991
NNNI7
I1
I0
tp1992
bS'product'
p1993
tp1994
Rp1995
ag2
(g3
(S'S7'
p1996
I0
I1
tp1997
Rp1998
(I3
S'|'
p1999
NNNI7
I1
I0
tp2000
bS'product'
p2001
tp2002
Rp2003
ag2
(g3
(S'S7'
p2004
I0
I1
tp2005
Rp2006
(I3
S'|'
p2007
NNNI7
I1
I0
tp2008
bS'product'
p2009
tp2010
Rp2011
ag2
(g3
(S'S7'
p2012
I0
I1
tp2013
Rp2014
(I3
S'|'
p2015
NNNI7
I1
I0
tp2016
bS'product'
p2017
tp2018
Rp2019
ag2
(g3
(S'S7'
p2020
I0
I1
tp2021
Rp2022
(I3
S'|'
p2023
NNNI7
I1
I0
tp2024
bS'product'
p2025
tp2026
Rp2027
ag2
(g3
(S'S7'
p2028
I0
I1
tp2029
Rp2030
(I3
S'|'
p2031
NNNI7
I1
I0
tp2032
bS'product'
p2033
tp2034
Rp2035
ag2
(g3
(S'S7'
p2036
I0
I1
tp2037
Rp2038
(I3
S'|'
p2039
NNNI7
I1
I0
tp2040
bS'product'
p2041
tp2042
Rp2043
ag2
(g3
(S'S7'
p2044
I0
I1
tp2045
Rp2046
(I3
S'|'
p2047
NNNI7
I1
I0
tp2048
bS'product'
p2049
tp2050
Rp2051
ag2
(g3
(S'S4'
p2052
I0
I1
tp2053
Rp2054
(I3
S'|'
p2055
NNNI4
I1
I0
tp2056
bS'text'
p2057
tp2058
Rp2059
ag2
(g3
(S'S7'
p2060
I0
I1
tp2061
Rp2062
(I3
S'|'
p2063
NNNI7
I1
I0
tp2064
bS'product'
p2065
tp2066
Rp2067
ag2
(g3
(S'S7'
p2068
I0
I1
tp2069
Rp2070
(I3
S'|'
p2071
NNNI7
I1
I0
tp2072
bS'product'
p2073
tp2074
Rp2075
ag2
(g3
(S'S7'
p2076
I0
I1
tp2077
Rp2078
(I3
S'|'
p2079
NNNI7
I1
I0
tp2080
bS'product'
p2081
tp2082
Rp2083
ag2
(g3
(S'S7'
p2084
I0
I1
tp2085
Rp2086
(I3
S'|'
p2087
NNNI7
I1
I0
tp2088
bS'product'
p2089
tp2090
Rp2091
ag2
(g3
(S'S7'
p2092
I0
I1
tp2093
Rp2094
(I3
S'|'
p2095
NNNI7
I1
I0
tp2096
bS'product'
p2097
tp2098
Rp2099
ag2
(g3
(S'S7'
p2100
I0
I1
tp2101
Rp2102
(I3
S'|'
p2103
NNNI7
I1
I0
tp2104
bS'product'
p2105
tp2106
Rp2107
ag2
(g3
(S'S7'
p2108
I0
I1
tp2109
Rp2110
(I3
S'|'
p2111
NNNI7
I1
I0
tp2112
bS'product'
p2113
tp2114
Rp2115
ag2
(g3
(S'S7'
p2116
I0
I1
tp2117
Rp2118
(I3
S'|'
p2119
NNNI7
I1
I0
tp2120
bS'product'
p2121
tp2122
Rp2123
ag2
(g3
(S'S7'
p2124
I0
I1
tp2125
Rp2126
(I3
S'|'
p2127
NNNI7
I1
I0
tp2128
bS'product'
p2129
tp2130
Rp2131
ag2
(g3
(S'S7'
p2132
I0
I1
tp2133
Rp2134
(I3
S'|'
p2135
NNNI7
I1
I0
tp2136
bS'product'
p2137
tp2138
Rp2139
ag2
(g3
(S'S7'
p2140
I0
I1
tp2141
Rp2142
(I3
S'|'
p2143
NNNI7
I1
I0
tp2144
bS'product'
p2145
tp2146
Rp2147
ag2
(g3
(S'S7'
p2148
I0
I1
tp2149
Rp2150
(I3
S'|'
p2151
NNNI7
I1
I0
tp2152
bS'product'
p2153
tp2154
Rp2155
ag2
(g3
(S'S7'
p2156
I0
I1
tp2157
Rp2158
(I3
S'|'
p2159
NNNI7
I1
I0
tp2160
bS'product'
p2161
tp2162
Rp2163
ag2
(g3
(S'S7'
p2164
I0
I1
tp2165
Rp2166
(I3
S'|'
p2167
NNNI7
I1
I0
tp2168
bS'product'
p2169
tp2170
Rp2171
ag2
(g3
(S'S7'
p2172
I0
I1
tp2173
Rp2174
(I3
S'|'
p2175
NNNI7
I1
I0
tp2176
bS'product'
p2177
tp2178
Rp2179
ag2
(g3
(S'S7'
p2180
I0
I1
tp2181
Rp2182
(I3
S'|'
p2183
NNNI7
I1
I0
tp2184
bS'product'
p2185
tp2186
Rp2187
ag2
(g3
(S'S7'
p2188
I0
I1
tp2189
Rp2190
(I3
S'|'
p2191
NNNI7
I1
I0
tp2192
bS'product'
p2193
tp2194
Rp2195
ag2
(g3
(S'S7'
p2196
I0
I1
tp2197
Rp2198
(I3
S'|'
p2199
NNNI7
I1
I0
tp2200
bS'product'
p2201
tp2202
Rp2203
ag2
(g3
(S'S7'
p2204
I0
I1
tp2205
Rp2206
(I3
S'|'
p2207
NNNI7
I1
I0
tp2208
bS'product'
p2209
tp2210
Rp2211
ag2
(g3
(S'S7'
p2212
I0
I1
tp2213
Rp2214
(I3
S'|'
p2215
NNNI7
I1
I0
tp2216
bS'product'
p2217
tp2218
Rp2219
ag2
(g3
(S'S7'
p2220
I0
I1
tp2221
Rp2222
(I3
S'|'
p2223
NNNI7
I1
I0
tp2224
bS'product'
p2225
tp2226
Rp2227
ag2
(g3
(S'S7'
p2228
I0
I1
tp2229
Rp2230
(I3
S'|'
p2231
NNNI7
I1
I0
tp2232
bS'product'
p2233
tp2234
Rp2235
ag2
(g3
(S'S7'
p2236
I0
I1
tp2237
Rp2238
(I3
S'|'
p2239
NNNI7
I1
I0
tp2240
bS'product'
p2241
tp2242
Rp2243
ag2
(g3
(S'S7'
p2244
I0
I1
tp2245
Rp2246
(I3
S'|'
p2247
NNNI7
I1
I0
tp2248
bS'product'
p2249
tp2250
Rp2251
ag2
(g3
(S'S7'
p2252
I0
I1
tp2253
Rp2254
(I3
S'|'
p2255
NNNI7
I1
I0
tp2256
bS'product'
p2257
tp2258
Rp2259
ag2
(g3
(S'S7'
p2260
I0
I1
tp2261
Rp2262
(I3
S'|'
p2263
NNNI7
I1
I0
tp2264
bS'product'
p2265
tp2266
Rp2267
ag2
(g3
(S'S7'
p2268
I0
I1
tp2269
Rp2270
(I3
S'|'
p2271
NNNI7
I1
I0
tp2272
bS'product'
p2273
tp2274
Rp2275
ag2
(g3
(S'S7'
p2276
I0
I1
tp2277
Rp2278
(I3
S'|'
p2279
NNNI7
I1
I0
tp2280
bS'product'
p2281
tp2282
Rp2283
ag2
(g3
(S'S7'
p2284
I0
I1
tp2285
Rp2286
(I3
S'|'
p2287
NNNI7
I1
I0
tp2288
bS'product'
p2289
tp2290
Rp2291
ag2
(g3
(S'S7'
p2292
I0
I1
tp2293
Rp2294
(I3
S'|'
p2295
NNNI7
I1
I0
tp2296
bS'product'
p2297
tp2298
Rp2299
ag2
(g3
(S'S7'
p2300
I0
I1
tp2301
Rp2302
(I3
S'|'
p2303
NNNI7
I1
I0
tp2304
bS'product'
p2305
tp2306
Rp2307
ag2
(g3
(S'S7'
p2308
I0
I1
tp2309
Rp2310
(I3
S'|'
p2311
NNNI7
I1
I0
tp2312
bS'product'
p2313
tp2314
Rp2315
ag2
(g3
(S'S7'
p2316
I0
I1
tp2317
Rp2318
(I3
S'|'
p2319
NNNI7
I1
I0
tp2320
bS'product'
p2321
tp2322
Rp2323
ag2
(g3
(S'S7'
p2324
I0
I1
tp2325
Rp2326
(I3
S'|'
p2327
NNNI7
I1
I0
tp2328
bS'product'
p2329
tp2330
Rp2331
ag2
(g3
(S'S7'
p2332
I0
I1
tp2333
Rp2334
(I3
S'|'
p2335
NNNI7
I1
I0
tp2336
bS'product'
p2337
tp2338
Rp2339
ag2
(g3
(S'S7'
p2340
I0
I1
tp2341
Rp2342
(I3
S'|'
p2343
NNNI7
I1
I0
tp2344
bS'product'
p2345
tp2346
Rp2347
ag2
(g3
(S'S7'
p2348
I0
I1
tp2349
Rp2350
(I3
S'|'
p2351
NNNI7
I1
I0
tp2352
bS'product'
p2353
tp2354
Rp2355
ag2
(g3
(S'S7'
p2356
I0
I1
tp2357
Rp2358
(I3
S'|'
p2359
NNNI7
I1
I0
tp2360
bS'product'
p2361
tp2362
Rp2363
ag2
(g3
(S'S7'
p2364
I0
I1
tp2365
Rp2366
(I3
S'|'
p2367
NNNI7
I1
I0
tp2368
bS'product'
p2369
tp2370
Rp2371
ag2
(g3
(S'S7'
p2372
I0
I1
tp2373
Rp2374
(I3
S'|'
p2375
NNNI7
I1
I0
tp2376
bS'product'
p2377
tp2378
Rp2379
ag2
(g3
(S'S7'
p2380
I0
I1
tp2381
Rp2382
(I3
S'|'
p2383
NNNI7
I1
I0
tp2384
bS'product'
p2385
tp2386
Rp2387
ag2
(g3
(S'S7'
p2388
I0
I1
tp2389
Rp2390
(I3
S'|'
p2391
NNNI7
I1
I0
tp2392
bS'product'
p2393
tp2394
Rp2395
ag2
(g3
(S'S7'
p2396
I0
I1
tp2397
Rp2398
(I3
S'|'
p2399
NNNI7
I1
I0
tp2400
bS'product'
p2401
tp2402
Rp2403
ag2
(g3
(S'S7'
p2404
I0
I1
tp2405
Rp2406
(I3
S'|'
p2407
NNNI7
I1
I0
tp2408
bS'product'
p2409
tp2410
Rp2411
ag2
(g3
(S'S7'
p2412
I0
I1
tp2413
Rp2414
(I3
S'|'
p2415
NNNI7
I1
I0
tp2416
bS'product'
p2417
tp2418
Rp2419
ag2
(g3
(S'S7'
p2420
I0
I1
tp2421
Rp2422
(I3
S'|'
p2423
NNNI7
I1
I0
tp2424
bS'product'
p2425
tp2426
Rp2427
ag2
(g3
(S'S7'
p2428
I0
I1
tp2429
Rp2430
(I3
S'|'
p2431
NNNI7
I1
I0
tp2432
bS'product'
p2433
tp2434
Rp2435
ag2
(g3
(S'S7'
p2436
I0
I1
tp2437
Rp2438
(I3
S'|'
p2439
NNNI7
I1
I0
tp2440
bS'product'
p2441
tp2442
Rp2443
ag2
(g3
(S'S7'
p2444
I0
I1
tp2445
Rp2446
(I3
S'|'
p2447
NNNI7
I1
I0
tp2448
bS'product'
p2449
tp2450
Rp2451
ag2
(g3
(S'S7'
p2452
I0
I1
tp2453
Rp2454
(I3
S'|'
p2455
NNNI7
I1
I0
tp2456
bS'product'
p2457
tp2458
Rp2459
ag2
(g3
(S'S7'
p2460
I0
I1
tp2461
Rp2462
(I3
S'|'
p2463
NNNI7
I1
I0
tp2464
bS'product'
p2465
tp2466
Rp2467
ag2
(g3
(S'S7'
p2468
I0
I1
tp2469
Rp2470
(I3
S'|'
p2471
NNNI7
I1
I0
tp2472
bS'product'
p2473
tp2474
Rp2475
ag2
(g3
(S'S7'
p2476
I0
I1
tp2477
Rp2478
(I3
S'|'
p2479
NNNI7
I1
I0
tp2480
bS'product'
p2481
tp2482
Rp2483
ag2
(g3
(S'S7'
p2484
I0
I1
tp2485
Rp2486
(I3
S'|'
p2487
NNNI7
I1
I0
tp2488
bS'product'
p2489
tp2490
Rp2491
ag2
(g3
(S'S7'
p2492
I0
I1
tp2493
Rp2494
(I3
S'|'
p2495
NNNI7
I1
I0
tp2496
bS'product'
p2497
tp2498
Rp2499
ag2
(g3
(S'S7'
p2500
I0
I1
tp2501
Rp2502
(I3
S'|'
p2503
NNNI7
I1
I0
tp2504
bS'product'
p2505
tp2506
Rp2507
ag2
(g3
(S'S7'
p2508
I0
I1
tp2509
Rp2510
(I3
S'|'
p2511
NNNI7
I1
I0
tp2512
bS'product'
p2513
tp2514
Rp2515
ag2
(g3
(S'S7'
p2516
I0
I1
tp2517
Rp2518
(I3
S'|'
p2519
NNNI7
I1
I0
tp2520
bS'product'
p2521
tp2522
Rp2523
ag2
(g3
(S'S7'
p2524
I0
I1
tp2525
Rp2526
(I3
S'|'
p2527
NNNI7
I1
I0
tp2528
bS'product'
p2529
tp2530
Rp2531
ag2
(g3
(S'S7'
p2532
I0
I1
tp2533
Rp2534
(I3
S'|'
p2535
NNNI7
I1
I0
tp2536
bS'product'
p2537
tp2538
Rp2539
ag2
(g3
(S'S7'
p2540
I0
I1
tp2541
Rp2542
(I3
S'|'
p2543
NNNI7
I1
I0
tp2544
bS'product'
p2545
tp2546
Rp2547
ag2
(g3
(S'S7'
p2548
I0
I1
tp2549
Rp2550
(I3
S'|'
p2551
NNNI7
I1
I0
tp2552
bS'product'
p2553
tp2554
Rp2555
ag2
(g3
(S'S7'
p2556
I0
I1
tp2557
Rp2558
(I3
S'|'
p2559
NNNI7
I1
I0
tp2560
bS'product'
p2561
tp2562
Rp2563
ag2
(g3
(S'S7'
p2564
I0
I1
tp2565
Rp2566
(I3
S'|'
p2567
NNNI7
I1
I0
tp2568
bS'product'
p2569
tp2570
Rp2571
ag2
(g3
(S'S7'
p2572
I0
I1
tp2573
Rp2574
(I3
S'|'
p2575
NNNI7
I1
I0
tp2576
bS'product'
p2577
tp2578
Rp2579
ag2
(g3
(S'S7'
p2580
I0
I1
tp2581
Rp2582
(I3
S'|'
p2583
NNNI7
I1
I0
tp2584
bS'product'
p2585
tp2586
Rp2587
ag2
(g3
(S'S7'
p2588
I0
I1
tp2589
Rp2590
(I3
S'|'
p2591
NNNI7
I1
I0
tp2592
bS'product'
p2593
tp2594
Rp2595
ag2
(g3
(S'S7'
p2596
I0
I1
tp2597
Rp2598
(I3
S'|'
p2599
NNNI7
I1
I0
tp2600
bS'product'
p2601
tp2602
Rp2603
ag2
(g3
(S'S7'
p2604
I0
I1
tp2605
Rp2606
(I3
S'|'
p2607
NNNI7
I1
I0
tp2608
bS'product'
p2609
tp2610
Rp2611
ag2
(g3
(S'S7'
p2612
I0
I1
tp2613
Rp2614
(I3
S'|'
p2615
NNNI7
I1
I0
tp2616
bS'product'
p2617
tp2618
Rp2619
ag2
(g3
(S'S7'
p2620
I0
I1
tp2621
Rp2622
(I3
S'|'
p2623
NNNI7
I1
I0
tp2624
bS'product'
p2625
tp2626
Rp2627
ag2
(g3
(S'S7'
p2628
I0
I1
tp2629
Rp2630
(I3
S'|'
p2631
NNNI7
I1
I0
tp2632
bS'product'
p2633
tp2634
Rp2635
ag2
(g3
(S'S7'
p2636
I0
I1
tp2637
Rp2638
(I3
S'|'
p2639
NNNI7
I1
I0
tp2640
bS'product'
p2641
tp2642
Rp2643
ag2
(g3
(S'S7'
p2644
I0
I1
tp2645
Rp2646
(I3
S'|'
p2647
NNNI7
I1
I0
tp2648
bS'product'
p2649
tp2650
Rp2651
ag2
(g3
(S'S7'
p2652
I0
I1
tp2653
Rp2654
(I3
S'|'
p2655
NNNI7
I1
I0
tp2656
bS'product'
p2657
tp2658
Rp2659
ag2
(g3
(S'S7'
p2660
I0
I1
tp2661
Rp2662
(I3
S'|'
p2663
NNNI7
I1
I0
tp2664
bS'product'
p2665
tp2666
Rp2667
ag2
(g3
(S'S7'
p2668
I0
I1
tp2669
Rp2670
(I3
S'|'
p2671
NNNI7
I1
I0
tp2672
bS'product'
p2673
tp2674
Rp2675
ag2
(g3
(S'S7'
p2676
I0
I1
tp2677
Rp2678
(I3
S'|'
p2679
NNNI7
I1
I0
tp2680
bS'product'
p2681
tp2682
Rp2683
ag2
(g3
(S'S7'
p2684
I0
I1
tp2685
Rp2686
(I3
S'|'
p2687
NNNI7
I1
I0
tp2688
bS'product'
p2689
tp2690
Rp2691
ag2
(g3
(S'S7'
p2692
I0
I1
tp2693
Rp2694
(I3
S'|'
p2695
NNNI7
I1
I0
tp2696
bS'product'
p2697
tp2698
Rp2699
ag2
(g3
(S'S7'
p2700
I0
I1
tp2701
Rp2702
(I3
S'|'
p2703
NNNI7
I1
I0
tp2704
bS'product'
p2705
tp2706
Rp2707
ag2
(g3
(S'S7'
p2708
I0
I1
tp2709
Rp2710
(I3
S'|'
p2711
NNNI7
I1
I0
tp2712
bS'product'
p2713
tp2714
Rp2715
ag2
(g3
(S'S7'
p2716
I0
I1
tp2717
Rp2718
(I3
S'|'
p2719
NNNI7
I1
I0
tp2720
bS'product'
p2721
tp2722
Rp2723
ag2
(g3
(S'S7'
p2724
I0
I1
tp2725
Rp2726
(I3
S'|'
p2727
NNNI7
I1
I0
tp2728
bS'product'
p2729
tp2730
Rp2731
ag2
(g3
(S'S7'
p2732
I0
I1
tp2733
Rp2734
(I3
S'|'
p2735
NNNI7
I1
I0
tp2736
bS'product'
p2737
tp2738
Rp2739
ag2
(g3
(S'S7'
p2740
I0
I1
tp2741
Rp2742
(I3
S'|'
p2743
NNNI7
I1
I0
tp2744
bS'product'
p2745
tp2746
Rp2747
ag2
(g3
(S'S7'
p2748
I0
I1
tp2749
Rp2750
(I3
S'|'
p2751
NNNI7
I1
I0
tp2752
bS'product'
p2753
tp2754
Rp2755
ag2
(g3
(S'S7'
p2756
I0
I1
tp2757
Rp2758
(I3
S'|'
p2759
NNNI7
I1
I0
tp2760
bS'product'
p2761
tp2762
Rp2763
ag2
(g3
(S'S7'
p2764
I0
I1
tp2765
Rp2766
(I3
S'|'
p2767
NNNI7
I1
I0
tp2768
bS'product'
p2769
tp2770
Rp2771
ag2
(g3
(S'S7'
p2772
I0
I1
tp2773
Rp2774
(I3
S'|'
p2775
NNNI7
I1
I0
tp2776
bS'product'
p2777
tp2778
Rp2779
ag2
(g3
(S'S7'
p2780
I0
I1
tp2781
Rp2782
(I3
S'|'
p2783
NNNI7
I1
I0
tp2784
bS'product'
p2785
tp2786
Rp2787
ag2
(g3
(S'S7'
p2788
I0
I1
tp2789
Rp2790
(I3
S'|'
p2791
NNNI7
I1
I0
tp2792
bS'product'
p2793
tp2794
Rp2795
ag2
(g3
(S'S7'
p2796
I0
I1
tp2797
Rp2798
(I3
S'|'
p2799
NNNI7
I1
I0
tp2800
bS'product'
p2801
tp2802
Rp2803
ag2
(g3
(S'S7'
p2804
I0
I1
tp2805
Rp2806
(I3
S'|'
p2807
NNNI7
I1
I0
tp2808
bS'product'
p2809
tp2810
Rp2811
ag2
(g3
(S'S7'
p2812
I0
I1
tp2813
Rp2814
(I3
S'|'
p2815
NNNI7
I1
I0
tp2816
bS'product'
p2817
tp2818
Rp2819
ag2
(g3
(S'S7'
p2820
I0
I1
tp2821
Rp2822
(I3
S'|'
p2823
NNNI7
I1
I0
tp2824
bS'product'
p2825
tp2826
Rp2827
ag2
(g3
(S'S7'
p2828
I0
I1
tp2829
Rp2830
(I3
S'|'
p2831
NNNI7
I1
I0
tp2832
bS'product'
p2833
tp2834
Rp2835
ag2
(g3
(S'S7'
p2836
I0
I1
tp2837
Rp2838
(I3
S'|'
p2839
NNNI7
I1
I0
tp2840
bS'product'
p2841
tp2842
Rp2843
ag2
(g3
(S'S7'
p2844
I0
I1
tp2845
Rp2846
(I3
S'|'
p2847
NNNI7
I1
I0
tp2848
bS'product'
p2849
tp2850
Rp2851
ag2
(g3
(S'S7'
p2852
I0
I1
tp2853
Rp2854
(I3
S'|'
p2855
NNNI7
I1
I0
tp2856
bS'product'
p2857
tp2858
Rp2859
ag2
(g3
(S'S7'
p2860
I0
I1
tp2861
Rp2862
(I3
S'|'
p2863
NNNI7
I1
I0
tp2864
bS'product'
p2865
tp2866
Rp2867
ag2
(g3
(S'S7'
p2868
I0
I1
tp2869
Rp2870
(I3
S'|'
p2871
NNNI7
I1
I0
tp2872
bS'product'
p2873
tp2874
Rp2875
ag2
(g3
(S'S7'
p2876
I0
I1
tp2877
Rp2878
(I3
S'|'
p2879
NNNI7
I1
I0
tp2880
bS'product'
p2881
tp2882
Rp2883
ag2
(g3
(S'S7'
p2884
I0
I1
tp2885
Rp2886
(I3
S'|'
p2887
NNNI7
I1
I0
tp2888
bS'product'
p2889
tp2890
Rp2891
ag2
(g3
(S'S7'
p2892
I0
I1
tp2893
Rp2894
(I3
S'|'
p2895
NNNI7
I1
I0
tp2896
bS'product'
p2897
tp2898
Rp2899
ag2
(g3
(S'S7'
p2900
I0
I1
tp2901
Rp2902
(I3
S'|'
p2903
NNNI7
I1
I0
tp2904
bS'product'
p2905
tp2906
Rp2907
ag2
(g3
(S'S7'
p2908
I0
I1
tp2909
Rp2910
(I3
S'|'
p2911
NNNI7
I1
I0
tp2912
bS'product'
p2913
tp2914
Rp2915
ag2
(g3
(S'S7'
p2916
I0
I1
tp2917
Rp2918
(I3
S'|'
p2919
NNNI7
I1
I0
tp2920
bS'product'
p2921
tp2922
Rp2923
ag2
(g3
(S'S7'
p2924
I0
I1
tp2925
Rp2926
(I3
S'|'
p2927
NNNI7
I1
I0
tp2928
bS'product'
p2929
tp2930
Rp2931
ag2
(g3
(S'S7'
p2932
I0
I1
tp2933
Rp2934
(I3
S'|'
p2935
NNNI7
I1
I0
tp2936
bS'product'
p2937
tp2938
Rp2939
ag2
(g3
(S'S7'
p2940
I0
I1
tp2941
Rp2942
(I3
S'|'
p2943
NNNI7
I1
I0
tp2944
bS'product'
p2945
tp2946
Rp2947
ag2
(g3
(S'S7'
p2948
I0
I1
tp2949
Rp2950
(I3
S'|'
p2951
NNNI7
I1
I0
tp2952
bS'product'
p2953
tp2954
Rp2955
ag2
(g3
(S'S7'
p2956
I0
I1
tp2957
Rp2958
(I3
S'|'
p2959
NNNI7
I1
I0
tp2960
bS'product'
p2961
tp2962
Rp2963
ag2
(g3
(S'S7'
p2964
I0
I1
tp2965
Rp2966
(I3
S'|'
p2967
NNNI7
I1
I0
tp2968
bS'product'
p2969
tp2970
Rp2971
ag2
(g3
(S'S7'
p2972
I0
I1
tp2973
Rp2974
(I3
S'|'
p2975
NNNI7
I1
I0
tp2976
bS'product'
p2977
tp2978
Rp2979
ag2
(g3
(S'S7'
p2980
I0
I1
tp2981
Rp2982
(I3
S'|'
p2983
NNNI7
I1
I0
tp2984
bS'product'
p2985
tp2986
Rp2987
ag2
(g3
(S'S7'
p2988
I0
I1
tp2989
Rp2990
(I3
S'|'
p2991
NNNI7
I1
I0
tp2992
bS'product'
p2993
tp2994
Rp2995
ag2
(g3
(S'S4'
p2996
I0
I1
tp2997
Rp2998
(I3
S'|'
p2999
NNNI4
I1
I0
tp3000
bS'text'
p3001
tp3002
Rp3003
ag2
(g3
(S'S4'
p3004
I0
I1
tp3005
Rp3006
(I3
S'|'
p3007
NNNI4
I1
I0
tp3008
bS'text'
p3009
tp3010
Rp3011
ag2
(g3
(S'S4'
p3012
I0
I1
tp3013
Rp3014
(I3
S'|'
p3015
NNNI4
I1
I0
tp3016
bS'text'
p3017
tp3018
Rp3019
ag2
(g3
(S'S4'
p3020
I0
I1
tp3021
Rp3022
(I3
S'|'
p3023
NNNI4
I1
I0
tp3024
bS'text'
p3025
tp3026
Rp3027
ag2
(g3
(S'S4'
p3028
I0
I1
tp3029
Rp3030
(I3
S'|'
p3031
NNNI4
I1
I0
tp3032
bS'text'
p3033
tp3034
Rp3035
ag2
(g3
(S'S4'
p3036
I0
I1
tp3037
Rp3038
(I3
S'|'
p3039
NNNI4
I1
I0
tp3040
bS'text'
p3041
tp3042
Rp3043
ag2
(g3
(S'S4'
p3044
I0
I1
tp3045
Rp3046
(I3
S'|'
p3047
NNNI4
I1
I0
tp3048
bS'cord'
p3049
tp3050
Rp3051
ag2
(g3
(S'S4'
p3052
I0
I1
tp3053
Rp3054
(I3
S'|'
p3055
NNNI4
I1
I0
tp3056
bS'cord'
p3057
tp3058
Rp3059
ag2
(g3
(S'S4'
p3060
I0
I1
tp3061
Rp3062
(I3
S'|'
p3063
NNNI4
I1
I0
tp3064
bS'text'
p3065
tp3066
Rp3067
ag2
(g3
(S'S7'
p3068
I0
I1
tp3069
Rp3070
(I3
S'|'
p3071
NNNI7
I1
I0
tp3072
bS'product'
p3073
tp3074
Rp3075
ag2
(g3
(S'S4'
p3076
I0
I1
tp3077
Rp3078
(I3
S'|'
p3079
NNNI4
I1
I0
tp3080
bS'text'
p3081
tp3082
Rp3083
ag2
(g3
(S'S4'
p3084
I0
I1
tp3085
Rp3086
(I3
S'|'
p3087
NNNI4
I1
I0
tp3088
bS'text'
p3089
tp3090
Rp3091
ag2
(g3
(S'S4'
p3092
I0
I1
tp3093
Rp3094
(I3
S'|'
p3095
NNNI4
I1
I0
tp3096
bS'text'
p3097
tp3098
Rp3099
ag2
(g3
(S'S4'
p3100
I0
I1
tp3101
Rp3102
(I3
S'|'
p3103
NNNI4
I1
I0
tp3104
bS'text'
p3105
tp3106
Rp3107
ag2
(g3
(S'S4'
p3108
I0
I1
tp3109
Rp3110
(I3
S'|'
p3111
NNNI4
I1
I0
tp3112
bS'text'
p3113
tp3114
Rp3115
ag2
(g3
(S'S4'
p3116
I0
I1
tp3117
Rp3118
(I3
S'|'
p3119
NNNI4
I1
I0
tp3120
bS'text'
p3121
tp3122
Rp3123
ag2
(g3
(S'S4'
p3124
I0
I1
tp3125
Rp3126
(I3
S'|'
p3127
NNNI4
I1
I0
tp3128
bS'text'
p3129
tp3130
Rp3131
ag2
(g3
(S'S4'
p3132
I0
I1
tp3133
Rp3134
(I3
S'|'
p3135
NNNI4
I1
I0
tp3136
bS'text'
p3137
tp3138
Rp3139
ag2
(g3
(S'S4'
p3140
I0
I1
tp3141
Rp3142
(I3
S'|'
p3143
NNNI4
I1
I0
tp3144
bS'text'
p3145
tp3146
Rp3147
ag2
(g3
(S'S4'
p3148
I0
I1
tp3149
Rp3150
(I3
S'|'
p3151
NNNI4
I1
I0
tp3152
bS'text'
p3153
tp3154
Rp3155
ag2
(g3
(S'S4'
p3156
I0
I1
tp3157
Rp3158
(I3
S'|'
p3159
NNNI4
I1
I0
tp3160
bS'text'
p3161
tp3162
Rp3163
ag2
(g3
(S'S4'
p3164
I0
I1
tp3165
Rp3166
(I3
S'|'
p3167
NNNI4
I1
I0
tp3168
bS'text'
p3169
tp3170
Rp3171
ag2
(g3
(S'S4'
p3172
I0
I1
tp3173
Rp3174
(I3
S'|'
p3175
NNNI4
I1
I0
tp3176
bS'text'
p3177
tp3178
Rp3179
ag2
(g3
(S'S4'
p3180
I0
I1
tp3181
Rp3182
(I3
S'|'
p3183
NNNI4
I1
I0
tp3184
bS'text'
p3185
tp3186
Rp3187
ag2
(g3
(S'S4'
p3188
I0
I1
tp3189
Rp3190
(I3
S'|'
p3191
NNNI4
I1
I0
tp3192
bS'text'
p3193
tp3194
Rp3195
ag2
(g3
(S'S8'
p3196
I0
I1
tp3197
Rp3198
(I3
S'|'
p3199
NNNI8
I1
I0
tp3200
bS'division'
p3201
tp3202
Rp3203
ag2
(g3
(S'S4'
p3204
I0
I1
tp3205
Rp3206
(I3
S'|'
p3207
NNNI4
I1
I0
tp3208
bS'text'
p3209
tp3210
Rp3211
ag2
(g3
(S'S8'
p3212
I0
I1
tp3213
Rp3214
(I3
S'|'
p3215
NNNI8
I1
I0
tp3216
bS'division'
p3217
tp3218
Rp3219
ag2
(g3
(S'S4'
p3220
I0
I1
tp3221
Rp3222
(I3
S'|'
p3223
NNNI4
I1
I0
tp3224
bS'text'
p3225
tp3226
Rp3227
ag2
(g3
(S'S7'
p3228
I0
I1
tp3229
Rp3230
(I3
S'|'
p3231
NNNI7
I1
I0
tp3232
bS'product'
p3233
tp3234
Rp3235
ag2
(g3
(S'S4'
p3236
I0
I1
tp3237
Rp3238
(I3
S'|'
p3239
NNNI4
I1
I0
tp3240
bS'text'
p3241
tp3242
Rp3243
ag2
(g3
(S'S4'
p3244
I0
I1
tp3245
Rp3246
(I3
S'|'
p3247
NNNI4
I1
I0
tp3248
bS'text'
p3249
tp3250
Rp3251
ag2
(g3
(S'S4'
p3252
I0
I1
tp3253
Rp3254
(I3
S'|'
p3255
NNNI4
I1
I0
tp3256
bS'text'
p3257
tp3258
Rp3259
ag2
(g3
(S'S4'
p3260
I0
I1
tp3261
Rp3262
(I3
S'|'
p3263
NNNI4
I1
I0
tp3264
bS'text'
p3265
tp3266
Rp3267
ag2
(g3
(S'S4'
p3268
I0
I1
tp3269
Rp3270
(I3
S'|'
p3271
NNNI4
I1
I0
tp3272
bS'text'
p3273
tp3274
Rp3275
ag2
(g3
(S'S4'
p3276
I0
I1
tp3277
Rp3278
(I3
S'|'
p3279
NNNI4
I1
I0
tp3280
bS'text'
p3281
tp3282
Rp3283
ag2
(g3
(S'S4'
p3284
I0
I1
tp3285
Rp3286
(I3
S'|'
p3287
NNNI4
I1
I0
tp3288
bS'text'
p3289
tp3290
Rp3291
ag2
(g3
(S'S4'
p3292
I0
I1
tp3293
Rp3294
(I3
S'|'
p3295
NNNI4
I1
I0
tp3296
bS'text'
p3297
tp3298
Rp3299
ag2
(g3
(S'S7'
p3300
I0
I1
tp3301
Rp3302
(I3
S'|'
p3303
NNNI7
I1
I0
tp3304
bS'product'
p3305
tp3306
Rp3307
ag2
(g3
(S'S4'
p3308
I0
I1
tp3309
Rp3310
(I3
S'|'
p3311
NNNI4
I1
I0
tp3312
bS'text'
p3313
tp3314
Rp3315
aa(lp3316
g2
(g3
(S'S7'
p3317
I0
I1
tp3318
Rp3319
(I3
S'|'
p3320
NNNI7
I1
I0
tp3321
bS'product'
p3322
tp3323
Rp3324
ag2
(g3
(S'S4'
p3325
I0
I1
tp3326
Rp3327
(I3
S'|'
p3328
NNNI4
I1
I0
tp3329
bS'cord'
p3330
tp3331
Rp3332
ag2
(g3
(S'S4'
p3333
I0
I1
tp3334
Rp3335
(I3
S'|'
p3336
NNNI4
I1
I0
tp3337
bS'cord'
p3338
tp3339
Rp3340
ag2
(g3
(S'S4'
p3341
I0
I1
tp3342
Rp3343
(I3
S'|'
p3344
NNNI4
I1
I0
tp3345
bS'cord'
p3346
tp3347
Rp3348
ag2
(g3
(S'S4'
p3349
I0
I1
tp3350
Rp3351
(I3
S'|'
p3352
NNNI4
I1
I0
tp3353
bS'cord'
p3354
tp3355
Rp3356
ag2
(g3
(S'S4'
p3357
I0
I1
tp3358
Rp3359
(I3
S'|'
p3360
NNNI4
I1
I0
tp3361
bS'cord'
p3362
tp3363
Rp3364
ag2
(g3
(S'S4'
p3365
I0
I1
tp3366
Rp3367
(I3
S'|'
p3368
NNNI4
I1
I0
tp3369
bS'cord'
p3370
tp3371
Rp3372
ag2
(g3
(S'S7'
p3373
I0
I1
tp3374
Rp3375
(I3
S'|'
p3376
NNNI7
I1
I0
tp3377
bS'product'
p3378
tp3379
Rp3380
ag2
(g3
(S'S7'
p3381
I0
I1
tp3382
Rp3383
(I3
S'|'
p3384
NNNI7
I1
I0
tp3385
bS'product'
p3386
tp3387
Rp3388
ag2
(g3
(S'S8'
p3389
I0
I1
tp3390
Rp3391
(I3
S'|'
p3392
NNNI8
I1
I0
tp3393
bS'division'
p3394
tp3395
Rp3396
ag2
(g3
(S'S4'
p3397
I0
I1
tp3398
Rp3399
(I3
S'|'
p3400
NNNI4
I1
I0
tp3401
bS'cord'
p3402
tp3403
Rp3404
ag2
(g3
(S'S4'
p3405
I0
I1
tp3406
Rp3407
(I3
S'|'
p3408
NNNI4
I1
I0
tp3409
bS'cord'
p3410
tp3411
Rp3412
ag2
(g3
(S'S4'
p3413
I0
I1
tp3414
Rp3415
(I3
S'|'
p3416
NNNI4
I1
I0
tp3417
bS'text'
p3418
tp3419
Rp3420
ag2
(g3
(S'S4'
p3421
I0
I1
tp3422
Rp3423
(I3
S'|'
p3424
NNNI4
I1
I0
tp3425
bS'cord'
p3426
tp3427
Rp3428
ag2
(g3
(S'S4'
p3429
I0
I1
tp3430
Rp3431
(I3
S'|'
p3432
NNNI4
I1
I0
tp3433
bS'cord'
p3434
tp3435
Rp3436
ag2
(g3
(S'S7'
p3437
I0
I1
tp3438
Rp3439
(I3
S'|'
p3440
NNNI7
I1
I0
tp3441
bS'product'
p3442
tp3443
Rp3444
ag2
(g3
(S'S4'
p3445
I0
I1
tp3446
Rp3447
(I3
S'|'
p3448
NNNI4
I1
I0
tp3449
bS'cord'
p3450
tp3451
Rp3452
ag2
(g3
(S'S4'
p3453
I0
I1
tp3454
Rp3455
(I3
S'|'
p3456
NNNI4
I1
I0
tp3457
bS'text'
p3458
tp3459
Rp3460
ag2
(g3
(S'S8'
p3461
I0
I1
tp3462
Rp3463
(I3
S'|'
p3464
NNNI8
I1
I0
tp3465
bS'division'
p3466
tp3467
Rp3468
ag2
(g3
(S'S4'
p3469
I0
I1
tp3470
Rp3471
(I3
S'|'
p3472
NNNI4
I1
I0
tp3473
bS'cord'
p3474
tp3475
Rp3476
ag2
(g3
(S'S5'
p3477
I0
I1
tp3478
Rp3479
(I3
S'|'
p3480
NNNI5
I1
I0
tp3481
bS'phone'
p3482
tp3483
Rp3484
ag2
(g3
(S'S4'
p3485
I0
I1
tp3486
Rp3487
(I3
S'|'
p3488
NNNI4
I1
I0
tp3489
bS'text'
p3490
tp3491
Rp3492
ag2
(g3
(S'S4'
p3493
I0
I1
tp3494
Rp3495
(I3
S'|'
p3496
NNNI4
I1
I0
tp3497
bS'cord'
p3498
tp3499
Rp3500
ag2
(g3
(S'S4'
p3501
I0
I1
tp3502
Rp3503
(I3
S'|'
p3504
NNNI4
I1
I0
tp3505
bS'cord'
p3506
tp3507
Rp3508
ag2
(g3
(S'S4'
p3509
I0
I1
tp3510
Rp3511
(I3
S'|'
p3512
NNNI4
I1
I0
tp3513
bS'cord'
p3514
tp3515
Rp3516
ag2
(g3
(S'S8'
p3517
I0
I1
tp3518
Rp3519
(I3
S'|'
p3520
NNNI8
I1
I0
tp3521
bS'division'
p3522
tp3523
Rp3524
ag2
(g3
(S'S5'
p3525
I0
I1
tp3526
Rp3527
(I3
S'|'
p3528
NNNI5
I1
I0
tp3529
bS'phone'
p3530
tp3531
Rp3532
ag2
(g3
(S'S4'
p3533
I0
I1
tp3534
Rp3535
(I3
S'|'
p3536
NNNI4
I1
I0
tp3537
bS'cord'
p3538
tp3539
Rp3540
ag2
(g3
(S'S4'
p3541
I0
I1
tp3542
Rp3543
(I3
S'|'
p3544
NNNI4
I1
I0
tp3545
bS'text'
p3546
tp3547
Rp3548
ag2
(g3
(S'S7'
p3549
I0
I1
tp3550
Rp3551
(I3
S'|'
p3552
NNNI7
I1
I0
tp3553
bS'product'
p3554
tp3555
Rp3556
ag2
(g3
(S'S7'
p3557
I0
I1
tp3558
Rp3559
(I3
S'|'
p3560
NNNI7
I1
I0
tp3561
bS'product'
p3562
tp3563
Rp3564
ag2
(g3
(S'S4'
p3565
I0
I1
tp3566
Rp3567
(I3
S'|'
p3568
NNNI4
I1
I0
tp3569
bS'cord'
p3570
tp3571
Rp3572
ag2
(g3
(S'S4'
p3573
I0
I1
tp3574
Rp3575
(I3
S'|'
p3576
NNNI4
I1
I0
tp3577
bS'text'
p3578
tp3579
Rp3580
ag2
(g3
(S'S4'
p3581
I0
I1
tp3582
Rp3583
(I3
S'|'
p3584
NNNI4
I1
I0
tp3585
bS'cord'
p3586
tp3587
Rp3588
ag2
(g3
(S'S4'
p3589
I0
I1
tp3590
Rp3591
(I3
S'|'
p3592
NNNI4
I1
I0
tp3593
bS'cord'
p3594
tp3595
Rp3596
ag2
(g3
(S'S5'
p3597
I0
I1
tp3598
Rp3599
(I3
S'|'
p3600
NNNI5
I1
I0
tp3601
bS'phone'
p3602
tp3603
Rp3604
ag2
(g3
(S'S4'
p3605
I0
I1
tp3606
Rp3607
(I3
S'|'
p3608
NNNI4
I1
I0
tp3609
bS'cord'
p3610
tp3611
Rp3612
ag2
(g3
(S'S8'
p3613
I0
I1
tp3614
Rp3615
(I3
S'|'
p3616
NNNI8
I1
I0
tp3617
bS'division'
p3618
tp3619
Rp3620
ag2
(g3
(S'S8'
p3621
I0
I1
tp3622
Rp3623
(I3
S'|'
p3624
NNNI8
I1
I0
tp3625
bS'division'
p3626
tp3627
Rp3628
ag2
(g3
(S'S8'
p3629
I0
I1
tp3630
Rp3631
(I3
S'|'
p3632
NNNI8
I1
I0
tp3633
bS'division'
p3634
tp3635
Rp3636
ag2
(g3
(S'S8'
p3637
I0
I1
tp3638
Rp3639
(I3
S'|'
p3640
NNNI8
I1
I0
tp3641
bS'division'
p3642
tp3643
Rp3644
ag2
(g3
(S'S8'
p3645
I0
I1
tp3646
Rp3647
(I3
S'|'
p3648
NNNI8
I1
I0
tp3649
bS'division'
p3650
tp3651
Rp3652
ag2
(g3
(S'S8'
p3653
I0
I1
tp3654
Rp3655
(I3
S'|'
p3656
NNNI8
I1
I0
tp3657
bS'division'
p3658
tp3659
Rp3660
ag2
(g3
(S'S8'
p3661
I0
I1
tp3662
Rp3663
(I3
S'|'
p3664
NNNI8
I1
I0
tp3665
bS'division'
p3666
tp3667
Rp3668
ag2
(g3
(S'S8'
p3669
I0
I1
tp3670
Rp3671
(I3
S'|'
p3672
NNNI8
I1
I0
tp3673
bS'division'
p3674
tp3675
Rp3676
ag2
(g3
(S'S8'
p3677
I0
I1
tp3678
Rp3679
(I3
S'|'
p3680
NNNI8
I1
I0
tp3681
bS'division'
p3682
tp3683
Rp3684
ag2
(g3
(S'S8'
p3685
I0
I1
tp3686
Rp3687
(I3
S'|'
p3688
NNNI8
I1
I0
tp3689
bS'division'
p3690
tp3691
Rp3692
ag2
(g3
(S'S8'
p3693
I0
I1
tp3694
Rp3695
(I3
S'|'
p3696
NNNI8
I1
I0
tp3697
bS'division'
p3698
tp3699
Rp3700
ag2
(g3
(S'S8'
p3701
I0
I1
tp3702
Rp3703
(I3
S'|'
p3704
NNNI8
I1
I0
tp3705
bS'division'
p3706
tp3707
Rp3708
ag2
(g3
(S'S5'
p3709
I0
I1
tp3710
Rp3711
(I3
S'|'
p3712
NNNI5
I1
I0
tp3713
bS'phone'
p3714
tp3715
Rp3716
ag2
(g3
(S'S7'
p3717
I0
I1
tp3718
Rp3719
(I3
S'|'
p3720
NNNI7
I1
I0
tp3721
bS'product'
p3722
tp3723
Rp3724
ag2
(g3
(S'S7'
p3725
I0
I1
tp3726
Rp3727
(I3
S'|'
p3728
NNNI7
I1
I0
tp3729
bS'product'
p3730
tp3731
Rp3732
ag2
(g3
(S'S8'
p3733
I0
I1
tp3734
Rp3735
(I3
S'|'
p3736
NNNI8
I1
I0
tp3737
bS'division'
p3738
tp3739
Rp3740
ag2
(g3
(S'S8'
p3741
I0
I1
tp3742
Rp3743
(I3
S'|'
p3744
NNNI8
I1
I0
tp3745
bS'division'
p3746
tp3747
Rp3748
ag2
(g3
(S'S8'
p3749
I0
I1
tp3750
Rp3751
(I3
S'|'
p3752
NNNI8
I1
I0
tp3753
bS'division'
p3754
tp3755
Rp3756
ag2
(g3
(S'S8'
p3757
I0
I1
tp3758
Rp3759
(I3
S'|'
p3760
NNNI8
I1
I0
tp3761
bS'division'
p3762
tp3763
Rp3764
ag2
(g3
(S'S4'
p3765
I0
I1
tp3766
Rp3767
(I3
S'|'
p3768
NNNI4
I1
I0
tp3769
bS'text'
p3770
tp3771
Rp3772
ag2
(g3
(S'S8'
p3773
I0
I1
tp3774
Rp3775
(I3
S'|'
p3776
NNNI8
I1
I0
tp3777
bS'division'
p3778
tp3779
Rp3780
ag2
(g3
(S'S8'
p3781
I0
I1
tp3782
Rp3783
(I3
S'|'
p3784
NNNI8
I1
I0
tp3785
bS'division'
p3786
tp3787
Rp3788
ag2
(g3
(S'S4'
p3789
I0
I1
tp3790
Rp3791
(I3
S'|'
p3792
NNNI4
I1
I0
tp3793
bS'text'
p3794
tp3795
Rp3796
ag2
(g3
(S'S4'
p3797
I0
I1
tp3798
Rp3799
(I3
S'|'
p3800
NNNI4
I1
I0
tp3801
bS'cord'
p3802
tp3803
Rp3804
ag2
(g3
(S'S8'
p3805
I0
I1
tp3806
Rp3807
(I3
S'|'
p3808
NNNI8
I1
I0
tp3809
bS'division'
p3810
tp3811
Rp3812
ag2
(g3
(S'S8'
p3813
I0
I1
tp3814
Rp3815
(I3
S'|'
p3816
NNNI8
I1
I0
tp3817
bS'division'
p3818
tp3819
Rp3820
ag2
(g3
(S'S4'
p3821
I0
I1
tp3822
Rp3823
(I3
S'|'
p3824
NNNI4
I1
I0
tp3825
bS'text'
p3826
tp3827
Rp3828
ag2
(g3
(S'S8'
p3829
I0
I1
tp3830
Rp3831
(I3
S'|'
p3832
NNNI8
I1
I0
tp3833
bS'division'
p3834
tp3835
Rp3836
ag2
(g3
(S'S8'
p3837
I0
I1
tp3838
Rp3839
(I3
S'|'
p3840
NNNI8
I1
I0
tp3841
bS'division'
p3842
tp3843
Rp3844
ag2
(g3
(S'S8'
p3845
I0
I1
tp3846
Rp3847
(I3
S'|'
p3848
NNNI8
I1
I0
tp3849
bS'division'
p3850
tp3851
Rp3852
ag2
(g3
(S'S7'
p3853
I0
I1
tp3854
Rp3855
(I3
S'|'
p3856
NNNI7
I1
I0
tp3857
bS'product'
p3858
tp3859
Rp3860
ag2
(g3
(S'S8'
p3861
I0
I1
tp3862
Rp3863
(I3
S'|'
p3864
NNNI8
I1
I0
tp3865
bS'division'
p3866
tp3867
Rp3868
ag2
(g3
(S'S8'
p3869
I0
I1
tp3870
Rp3871
(I3
S'|'
p3872
NNNI8
I1
I0
tp3873
bS'division'
p3874
tp3875
Rp3876
ag2
(g3
(S'S8'
p3877
I0
I1
tp3878
Rp3879
(I3
S'|'
p3880
NNNI8
I1
I0
tp3881
bS'division'
p3882
tp3883
Rp3884
ag2
(g3
(S'S5'
p3885
I0
I1
tp3886
Rp3887
(I3
S'|'
p3888
NNNI5
I1
I0
tp3889
bS'phone'
p3890
tp3891
Rp3892
ag2
(g3
(S'S8'
p3893
I0
I1
tp3894
Rp3895
(I3
S'|'
p3896
NNNI8
I1
I0
tp3897
bS'division'
p3898
tp3899
Rp3900
ag2
(g3
(S'S8'
p3901
I0
I1
tp3902
Rp3903
(I3
S'|'
p3904
NNNI8
I1
I0
tp3905
bS'division'
p3906
tp3907
Rp3908
ag2
(g3
(S'S8'
p3909
I0
I1
tp3910
Rp3911
(I3
S'|'
p3912
NNNI8
I1
I0
tp3913
bS'division'
p3914
tp3915
Rp3916
ag2
(g3
(S'S4'
p3917
I0
I1
tp3918
Rp3919
(I3
S'|'
p3920
NNNI4
I1
I0
tp3921
bS'cord'
p3922
tp3923
Rp3924
ag2
(g3
(S'S4'
p3925
I0
I1
tp3926
Rp3927
(I3
S'|'
p3928
NNNI4
I1
I0
tp3929
bS'cord'
p3930
tp3931
Rp3932
ag2
(g3
(S'S7'
p3933
I0
I1
tp3934
Rp3935
(I3
S'|'
p3936
NNNI7
I1
I0
tp3937
bS'product'
p3938
tp3939
Rp3940
ag2
(g3
(S'S4'
p3941
I0
I1
tp3942
Rp3943
(I3
S'|'
p3944
NNNI4
I1
I0
tp3945
bS'text'
p3946
tp3947
Rp3948
ag2
(g3
(S'S7'
p3949
I0
I1
tp3950
Rp3951
(I3
S'|'
p3952
NNNI7
I1
I0
tp3953
bS'product'
p3954
tp3955
Rp3956
ag2
(g3
(S'S9'
p3957
I0
I1
tp3958
Rp3959
(I3
S'|'
p3960
NNNI9
I1
I0
tp3961
bS'formation'
p3962
tp3963
Rp3964
ag2
(g3
(S'S9'
p3965
I0
I1
tp3966
Rp3967
(I3
S'|'
p3968
NNNI9
I1
I0
tp3969
bS'formation'
p3970
tp3971
Rp3972
ag2
(g3
(S'S9'
p3973
I0
I1
tp3974
Rp3975
(I3
S'|'
p3976
NNNI9
I1
I0
tp3977
bS'formation'
p3978
tp3979
Rp3980
ag2
(g3
(S'S8'
p3981
I0
I1
tp3982
Rp3983
(I3
S'|'
p3984
NNNI8
I1
I0
tp3985
bS'division'
p3986
tp3987
Rp3988
ag2
(g3
(S'S9'
p3989
I0
I1
tp3990
Rp3991
(I3
S'|'
p3992
NNNI9
I1
I0
tp3993
bS'formation'
p3994
tp3995
Rp3996
ag2
(g3
(S'S9'
p3997
I0
I1
tp3998
Rp3999
(I3
S'|'
p4000
NNNI9
I1
I0
tp4001
bS'formation'
p4002
tp4003
Rp4004
ag2
(g3
(S'S8'
p4005
I0
I1
tp4006
Rp4007
(I3
S'|'
p4008
NNNI8
I1
I0
tp4009
bS'division'
p4010
tp4011
Rp4012
ag2
(g3
(S'S7'
p4013
I0
I1
tp4014
Rp4015
(I3
S'|'
p4016
NNNI7
I1
I0
tp4017
bS'product'
p4018
tp4019
Rp4020
ag2
(g3
(S'S9'
p4021
I0
I1
tp4022
Rp4023
(I3
S'|'
p4024
NNNI9
I1
I0
tp4025
bS'formation'
p4026
tp4027
Rp4028
ag2
(g3
(S'S7'
p4029
I0
I1
tp4030
Rp4031
(I3
S'|'
p4032
NNNI7
I1
I0
tp4033
bS'product'
p4034
tp4035
Rp4036
ag2
(g3
(S'S9'
p4037
I0
I1
tp4038
Rp4039
(I3
S'|'
p4040
NNNI9
I1
I0
tp4041
bS'formation'
p4042
tp4043
Rp4044
ag2
(g3
(S'S9'
p4045
I0
I1
tp4046
Rp4047
(I3
S'|'
p4048
NNNI9
I1
I0
tp4049
bS'formation'
p4050
tp4051
Rp4052
ag2
(g3
(S'S9'
p4053
I0
I1
tp4054
Rp4055
(I3
S'|'
p4056
NNNI9
I1
I0
tp4057
bS'formation'
p4058
tp4059
Rp4060
ag2
(g3
(S'S9'
p4061
I0
I1
tp4062
Rp4063
(I3
S'|'
p4064
NNNI9
I1
I0
tp4065
bS'formation'
p4066
tp4067
Rp4068
ag2
(g3
(S'S7'
p4069
I0
I1
tp4070
Rp4071
(I3
S'|'
p4072
NNNI7
I1
I0
tp4073
bS'product'
p4074
tp4075
Rp4076
ag2
(g3
(S'S4'
p4077
I0
I1
tp4078
Rp4079
(I3
S'|'
p4080
NNNI4
I1
I0
tp4081
bS'cord'
p4082
tp4083
Rp4084
ag2
(g3
(S'S4'
p4085
I0
I1
tp4086
Rp4087
(I3
S'|'
p4088
NNNI4
I1
I0
tp4089
bS'text'
p4090
tp4091
Rp4092
ag2
(g3
(S'S9'
p4093
I0
I1
tp4094
Rp4095
(I3
S'|'
p4096
NNNI9
I1
I0
tp4097
bS'formation'
p4098
tp4099
Rp4100
ag2
(g3
(S'S9'
p4101
I0
I1
tp4102
Rp4103
(I3
S'|'
p4104
NNNI9
I1
I0
tp4105
bS'formation'
p4106
tp4107
Rp4108
ag2
(g3
(S'S7'
p4109
I0
I1
tp4110
Rp4111
(I3
S'|'
p4112
NNNI7
I1
I0
tp4113
bS'product'
p4114
tp4115
Rp4116
ag2
(g3
(S'S7'
p4117
I0
I1
tp4118
Rp4119
(I3
S'|'
p4120
NNNI7
I1
I0
tp4121
bS'product'
p4122
tp4123
Rp4124
ag2
(g3
(S'S7'
p4125
I0
I1
tp4126
Rp4127
(I3
S'|'
p4128
NNNI7
I1
I0
tp4129
bS'product'
p4130
tp4131
Rp4132
ag2
(g3
(S'S9'
p4133
I0
I1
tp4134
Rp4135
(I3
S'|'
p4136
NNNI9
I1
I0
tp4137
bS'formation'
p4138
tp4139
Rp4140
ag2
(g3
(S'S7'
p4141
I0
I1
tp4142
Rp4143
(I3
S'|'
p4144
NNNI7
I1
I0
tp4145
bS'product'
p4146
tp4147
Rp4148
ag2
(g3
(S'S9'
p4149
I0
I1
tp4150
Rp4151
(I3
S'|'
p4152
NNNI9
I1
I0
tp4153
bS'formation'
p4154
tp4155
Rp4156
ag2
(g3
(S'S9'
p4157
I0
I1
tp4158
Rp4159
(I3
S'|'
p4160
NNNI9
I1
I0
tp4161
bS'formation'
p4162
tp4163
Rp4164
ag2
(g3
(S'S9'
p4165
I0
I1
tp4166
Rp4167
(I3
S'|'
p4168
NNNI9
I1
I0
tp4169
bS'formation'
p4170
tp4171
Rp4172
ag2
(g3
(S'S7'
p4173
I0
I1
tp4174
Rp4175
(I3
S'|'
p4176
NNNI7
I1
I0
tp4177
bS'product'
p4178
tp4179
Rp4180
ag2
(g3
(S'S9'
p4181
I0
I1
tp4182
Rp4183
(I3
S'|'
p4184
NNNI9
I1
I0
tp4185
bS'formation'
p4186
tp4187
Rp4188
ag2
(g3
(S'S7'
p4189
I0
I1
tp4190
Rp4191
(I3
S'|'
p4192
NNNI7
I1
I0
tp4193
bS'product'
p4194
tp4195
Rp4196
ag2
(g3
(S'S5'
p4197
I0
I1
tp4198
Rp4199
(I3
S'|'
p4200
NNNI5
I1
I0
tp4201
bS'phone'
p4202
tp4203
Rp4204
ag2
(g3
(S'S5'
p4205
I0
I1
tp4206
Rp4207
(I3
S'|'
p4208
NNNI5
I1
I0
tp4209
bS'phone'
p4210
tp4211
Rp4212
ag2
(g3
(S'S5'
p4213
I0
I1
tp4214
Rp4215
(I3
S'|'
p4216
NNNI5
I1
I0
tp4217
bS'phone'
p4218
tp4219
Rp4220
ag2
(g3
(S'S5'
p4221
I0
I1
tp4222
Rp4223
(I3
S'|'
p4224
NNNI5
I1
I0
tp4225
bS'phone'
p4226
tp4227
Rp4228
ag2
(g3
(S'S5'
p4229
I0
I1
tp4230
Rp4231
(I3
S'|'
p4232
NNNI5
I1
I0
tp4233
bS'phone'
p4234
tp4235
Rp4236
ag2
(g3
(S'S4'
p4237
I0
I1
tp4238
Rp4239
(I3
S'|'
p4240
NNNI4
I1
I0
tp4241
bS'cord'
p4242
tp4243
Rp4244
ag2
(g3
(S'S7'
p4245
I0
I1
tp4246
Rp4247
(I3
S'|'
p4248
NNNI7
I1
I0
tp4249
bS'product'
p4250
tp4251
Rp4252
ag2
(g3
(S'S5'
p4253
I0
I1
tp4254
Rp4255
(I3
S'|'
p4256
NNNI5
I1
I0
tp4257
bS'phone'
p4258
tp4259
Rp4260
ag2
(g3
(S'S7'
p4261
I0
I1
tp4262
Rp4263
(I3
S'|'
p4264
NNNI7
I1
I0
tp4265
bS'product'
p4266
tp4267
Rp4268
ag2
(g3
(S'S5'
p4269
I0
I1
tp4270
Rp4271
(I3
S'|'
p4272
NNNI5
I1
I0
tp4273
bS'phone'
p4274
tp4275
Rp4276
ag2
(g3
(S'S5'
p4277
I0
I1
tp4278
Rp4279
(I3
S'|'
p4280
NNNI5
I1
I0
tp4281
bS'phone'
p4282
tp4283
Rp4284
ag2
(g3
(S'S5'
p4285
I0
I1
tp4286
Rp4287
(I3
S'|'
p4288
NNNI5
I1
I0
tp4289
bS'phone'
p4290
tp4291
Rp4292
ag2
(g3
(S'S9'
p4293
I0
I1
tp4294
Rp4295
(I3
S'|'
p4296
NNNI9
I1
I0
tp4297
bS'formation'
p4298
tp4299
Rp4300
ag2
(g3
(S'S4'
p4301
I0
I1
tp4302
Rp4303
(I3
S'|'
p4304
NNNI4
I1
I0
tp4305
bS'text'
p4306
tp4307
Rp4308
ag2
(g3
(S'S7'
p4309
I0
I1
tp4310
Rp4311
(I3
S'|'
p4312
NNNI7
I1
I0
tp4313
bS'product'
p4314
tp4315
Rp4316
ag2
(g3
(S'S4'
p4317
I0
I1
tp4318
Rp4319
(I3
S'|'
p4320
NNNI4
I1
I0
tp4321
bS'cord'
p4322
tp4323
Rp4324
ag2
(g3
(S'S7'
p4325
I0
I1
tp4326
Rp4327
(I3
S'|'
p4328
NNNI7
I1
I0
tp4329
bS'product'
p4330
tp4331
Rp4332
ag2
(g3
(S'S5'
p4333
I0
I1
tp4334
Rp4335
(I3
S'|'
p4336
NNNI5
I1
I0
tp4337
bS'phone'
p4338
tp4339
Rp4340
ag2
(g3
(S'S5'
p4341
I0
I1
tp4342
Rp4343
(I3
S'|'
p4344
NNNI5
I1
I0
tp4345
bS'phone'
p4346
tp4347
Rp4348
ag2
(g3
(S'S7'
p4349
I0
I1
tp4350
Rp4351
(I3
S'|'
p4352
NNNI7
I1
I0
tp4353
bS'product'
p4354
tp4355
Rp4356
ag2
(g3
(S'S5'
p4357
I0
I1
tp4358
Rp4359
(I3
S'|'
p4360
NNNI5
I1
I0
tp4361
bS'phone'
p4362
tp4363
Rp4364
ag2
(g3
(S'S5'
p4365
I0
I1
tp4366
Rp4367
(I3
S'|'
p4368
NNNI5
I1
I0
tp4369
bS'phone'
p4370
tp4371
Rp4372
ag2
(g3
(S'S5'
p4373
I0
I1
tp4374
Rp4375
(I3
S'|'
p4376
NNNI5
I1
I0
tp4377
bS'phone'
p4378
tp4379
Rp4380
ag2
(g3
(S'S7'
p4381
I0
I1
tp4382
Rp4383
(I3
S'|'
p4384
NNNI7
I1
I0
tp4385
bS'product'
p4386
tp4387
Rp4388
ag2
(g3
(S'S5'
p4389
I0
I1
tp4390
Rp4391
(I3
S'|'
p4392
NNNI5
I1
I0
tp4393
bS'phone'
p4394
tp4395
Rp4396
ag2
(g3
(S'S9'
p4397
I0
I1
tp4398
Rp4399
(I3
S'|'
p4400
NNNI9
I1
I0
tp4401
bS'formation'
p4402
tp4403
Rp4404
ag2
(g3
(S'S5'
p4405
I0
I1
tp4406
Rp4407
(I3
S'|'
p4408
NNNI5
I1
I0
tp4409
bS'phone'
p4410
tp4411
Rp4412
ag2
(g3
(S'S5'
p4413
I0
I1
tp4414
Rp4415
(I3
S'|'
p4416
NNNI5
I1
I0
tp4417
bS'phone'
p4418
tp4419
Rp4420
ag2
(g3
(S'S7'
p4421
I0
I1
tp4422
Rp4423
(I3
S'|'
p4424
NNNI7
I1
I0
tp4425
bS'product'
p4426
tp4427
Rp4428
ag2
(g3
(S'S5'
p4429
I0
I1
tp4430
Rp4431
(I3
S'|'
p4432
NNNI5
I1
I0
tp4433
bS'phone'
p4434
tp4435
Rp4436
ag2
(g3
(S'S5'
p4437
I0
I1
tp4438
Rp4439
(I3
S'|'
p4440
NNNI5
I1
I0
tp4441
bS'phone'
p4442
tp4443
Rp4444
ag2
(g3
(S'S9'
p4445
I0
I1
tp4446
Rp4447
(I3
S'|'
p4448
NNNI9
I1
I0
tp4449
bS'formation'
p4450
tp4451
Rp4452
ag2
(g3
(S'S5'
p4453
I0
I1
tp4454
Rp4455
(I3
S'|'
p4456
NNNI5
I1
I0
tp4457
bS'phone'
p4458
tp4459
Rp4460
ag2
(g3
(S'S5'
p4461
I0
I1
tp4462
Rp4463
(I3
S'|'
p4464
NNNI5
I1
I0
tp4465
bS'phone'
p4466
tp4467
Rp4468
ag2
(g3
(S'S5'
p4469
I0
I1
tp4470
Rp4471
(I3
S'|'
p4472
NNNI5
I1
I0
tp4473
bS'phone'
p4474
tp4475
Rp4476
ag2
(g3
(S'S4'
p4477
I0
I1
tp4478
Rp4479
(I3
S'|'
p4480
NNNI4
I1
I0
tp4481
bS'text'
p4482
tp4483
Rp4484
ag2
(g3
(S'S5'
p4485
I0
I1
tp4486
Rp4487
(I3
S'|'
p4488
NNNI5
I1
I0
tp4489
bS'phone'
p4490
tp4491
Rp4492
ag2
(g3
(S'S5'
p4493
I0
I1
tp4494
Rp4495
(I3
S'|'
p4496
NNNI5
I1
I0
tp4497
bS'phone'
p4498
tp4499
Rp4500
ag2
(g3
(S'S5'
p4501
I0
I1
tp4502
Rp4503
(I3
S'|'
p4504
NNNI5
I1
I0
tp4505
bS'phone'
p4506
tp4507
Rp4508
ag2
(g3
(S'S4'
p4509
I0
I1
tp4510
Rp4511
(I3
S'|'
p4512
NNNI4
I1
I0
tp4513
bS'cord'
p4514
tp4515
Rp4516
ag2
(g3
(S'S5'
p4517
I0
I1
tp4518
Rp4519
(I3
S'|'
p4520
NNNI5
I1
I0
tp4521
bS'phone'
p4522
tp4523
Rp4524
ag2
(g3
(S'S4'
p4525
I0
I1
tp4526
Rp4527
(I3
S'|'
p4528
NNNI4
I1
I0
tp4529
bS'text'
p4530
tp4531
Rp4532
ag2
(g3
(S'S7'
p4533
I0
I1
tp4534
Rp4535
(I3
S'|'
p4536
NNNI7
I1
I0
tp4537
bS'product'
p4538
tp4539
Rp4540
ag2
(g3
(S'S7'
p4541
I0
I1
tp4542
Rp4543
(I3
S'|'
p4544
NNNI7
I1
I0
tp4545
bS'product'
p4546
tp4547
Rp4548
ag2
(g3
(S'S7'
p4549
I0
I1
tp4550
Rp4551
(I3
S'|'
p4552
NNNI7
I1
I0
tp4553
bS'product'
p4554
tp4555
Rp4556
ag2
(g3
(S'S7'
p4557
I0
I1
tp4558
Rp4559
(I3
S'|'
p4560
NNNI7
I1
I0
tp4561
bS'product'
p4562
tp4563
Rp4564
ag2
(g3
(S'S7'
p4565
I0
I1
tp4566
Rp4567
(I3
S'|'
p4568
NNNI7
I1
I0
tp4569
bS'product'
p4570
tp4571
Rp4572
ag2
(g3
(S'S7'
p4573
I0
I1
tp4574
Rp4575
(I3
S'|'
p4576
NNNI7
I1
I0
tp4577
bS'product'
p4578
tp4579
Rp4580
ag2
(g3
(S'S7'
p4581
I0
I1
tp4582
Rp4583
(I3
S'|'
p4584
NNNI7
I1
I0
tp4585
bS'product'
p4586
tp4587
Rp4588
ag2
(g3
(S'S8'
p4589
I0
I1
tp4590
Rp4591
(I3
S'|'
p4592
NNNI8
I1
I0
tp4593
bS'division'
p4594
tp4595
Rp4596
ag2
(g3
(S'S7'
p4597
I0
I1
tp4598
Rp4599
(I3
S'|'
p4600
NNNI7
I1
I0
tp4601
bS'product'
p4602
tp4603
Rp4604
ag2
(g3
(S'S7'
p4605
I0
I1
tp4606
Rp4607
(I3
S'|'
p4608
NNNI7
I1
I0
tp4609
bS'product'
p4610
tp4611
Rp4612
ag2
(g3
(S'S7'
p4613
I0
I1
tp4614
Rp4615
(I3
S'|'
p4616
NNNI7
I1
I0
tp4617
bS'product'
p4618
tp4619
Rp4620
ag2
(g3
(S'S4'
p4621
I0
I1
tp4622
Rp4623
(I3
S'|'
p4624
NNNI4
I1
I0
tp4625
bS'text'
p4626
tp4627
Rp4628
ag2
(g3
(S'S7'
p4629
I0
I1
tp4630
Rp4631
(I3
S'|'
p4632
NNNI7
I1
I0
tp4633
bS'product'
p4634
tp4635
Rp4636
ag2
(g3
(S'S7'
p4637
I0
I1
tp4638
Rp4639
(I3
S'|'
p4640
NNNI7
I1
I0
tp4641
bS'product'
p4642
tp4643
Rp4644
ag2
(g3
(S'S7'
p4645
I0
I1
tp4646
Rp4647
(I3
S'|'
p4648
NNNI7
I1
I0
tp4649
bS'product'
p4650
tp4651
Rp4652
ag2
(g3
(S'S7'
p4653
I0
I1
tp4654
Rp4655
(I3
S'|'
p4656
NNNI7
I1
I0
tp4657
bS'product'
p4658
tp4659
Rp4660
ag2
(g3
(S'S7'
p4661
I0
I1
tp4662
Rp4663
(I3
S'|'
p4664
NNNI7
I1
I0
tp4665
bS'product'
p4666
tp4667
Rp4668
ag2
(g3
(S'S7'
p4669
I0
I1
tp4670
Rp4671
(I3
S'|'
p4672
NNNI7
I1
I0
tp4673
bS'product'
p4674
tp4675
Rp4676
ag2
(g3
(S'S7'
p4677
I0
I1
tp4678
Rp4679
(I3
S'|'
p4680
NNNI7
I1
I0
tp4681
bS'product'
p4682
tp4683
Rp4684
ag2
(g3
(S'S4'
p4685
I0
I1
tp4686
Rp4687
(I3
S'|'
p4688
NNNI4
I1
I0
tp4689
bS'text'
p4690
tp4691
Rp4692
ag2
(g3
(S'S7'
p4693
I0
I1
tp4694
Rp4695
(I3
S'|'
p4696
NNNI7
I1
I0
tp4697
bS'product'
p4698
tp4699
Rp4700
ag2
(g3
(S'S7'
p4701
I0
I1
tp4702
Rp4703
(I3
S'|'
p4704
NNNI7
I1
I0
tp4705
bS'product'
p4706
tp4707
Rp4708
ag2
(g3
(S'S5'
p4709
I0
I1
tp4710
Rp4711
(I3
S'|'
p4712
NNNI5
I1
I0
tp4713
bS'phone'
p4714
tp4715
Rp4716
ag2
(g3
(S'S7'
p4717
I0
I1
tp4718
Rp4719
(I3
S'|'
p4720
NNNI7
I1
I0
tp4721
bS'product'
p4722
tp4723
Rp4724
ag2
(g3
(S'S7'
p4725
I0
I1
tp4726
Rp4727
(I3
S'|'
p4728
NNNI7
I1
I0
tp4729
bS'product'
p4730
tp4731
Rp4732
ag2
(g3
(S'S7'
p4733
I0
I1
tp4734
Rp4735
(I3
S'|'
p4736
NNNI7
I1
I0
tp4737
bS'product'
p4738
tp4739
Rp4740
ag2
(g3
(S'S7'
p4741
I0
I1
tp4742
Rp4743
(I3
S'|'
p4744
NNNI7
I1
I0
tp4745
bS'product'
p4746
tp4747
Rp4748
ag2
(g3
(S'S7'
p4749
I0
I1
tp4750
Rp4751
(I3
S'|'
p4752
NNNI7
I1
I0
tp4753
bS'product'
p4754
tp4755
Rp4756
ag2
(g3
(S'S4'
p4757
I0
I1
tp4758
Rp4759
(I3
S'|'
p4760
NNNI4
I1
I0
tp4761
bS'cord'
p4762
tp4763
Rp4764
ag2
(g3
(S'S7'
p4765
I0
I1
tp4766
Rp4767
(I3
S'|'
p4768
NNNI7
I1
I0
tp4769
bS'product'
p4770
tp4771
Rp4772
ag2
(g3
(S'S7'
p4773
I0
I1
tp4774
Rp4775
(I3
S'|'
p4776
NNNI7
I1
I0
tp4777
bS'product'
p4778
tp4779
Rp4780
ag2
(g3
(S'S7'
p4781
I0
I1
tp4782
Rp4783
(I3
S'|'
p4784
NNNI7
I1
I0
tp4785
bS'product'
p4786
tp4787
Rp4788
ag2
(g3
(S'S7'
p4789
I0
I1
tp4790
Rp4791
(I3
S'|'
p4792
NNNI7
I1
I0
tp4793
bS'product'
p4794
tp4795
Rp4796
ag2
(g3
(S'S7'
p4797
I0
I1
tp4798
Rp4799
(I3
S'|'
p4800
NNNI7
I1
I0
tp4801
bS'product'
p4802
tp4803
Rp4804
ag2
(g3
(S'S7'
p4805
I0
I1
tp4806
Rp4807
(I3
S'|'
p4808
NNNI7
I1
I0
tp4809
bS'product'
p4810
tp4811
Rp4812
ag2
(g3
(S'S7'
p4813
I0
I1
tp4814
Rp4815
(I3
S'|'
p4816
NNNI7
I1
I0
tp4817
bS'product'
p4818
tp4819
Rp4820
ag2
(g3
(S'S7'
p4821
I0
I1
tp4822
Rp4823
(I3
S'|'
p4824
NNNI7
I1
I0
tp4825
bS'product'
p4826
tp4827
Rp4828
ag2
(g3
(S'S7'
p4829
I0
I1
tp4830
Rp4831
(I3
S'|'
p4832
NNNI7
I1
I0
tp4833
bS'product'
p4834
tp4835
Rp4836
ag2
(g3
(S'S7'
p4837
I0
I1
tp4838
Rp4839
(I3
S'|'
p4840
NNNI7
I1
I0
tp4841
bS'product'
p4842
tp4843
Rp4844
ag2
(g3
(S'S7'
p4845
I0
I1
tp4846
Rp4847
(I3
S'|'
p4848
NNNI7
I1
I0
tp4849
bS'product'
p4850
tp4851
Rp4852
ag2
(g3
(S'S7'
p4853
I0
I1
tp4854
Rp4855
(I3
S'|'
p4856
NNNI7
I1
I0
tp4857
bS'product'
p4858
tp4859
Rp4860
ag2
(g3
(S'S5'
p4861
I0
I1
tp4862
Rp4863
(I3
S'|'
p4864
NNNI5
I1
I0
tp4865
bS'phone'
p4866
tp4867
Rp4868
ag2
(g3
(S'S7'
p4869
I0
I1
tp4870
Rp4871
(I3
S'|'
p4872
NNNI7
I1
I0
tp4873
bS'product'
p4874
tp4875
Rp4876
ag2
(g3
(S'S4'
p4877
I0
I1
tp4878
Rp4879
(I3
S'|'
p4880
NNNI4
I1
I0
tp4881
bS'cord'
p4882
tp4883
Rp4884
ag2
(g3
(S'S7'
p4885
I0
I1
tp4886
Rp4887
(I3
S'|'
p4888
NNNI7
I1
I0
tp4889
bS'product'
p4890
tp4891
Rp4892
ag2
(g3
(S'S7'
p4893
I0
I1
tp4894
Rp4895
(I3
S'|'
p4896
NNNI7
I1
I0
tp4897
bS'product'
p4898
tp4899
Rp4900
ag2
(g3
(S'S7'
p4901
I0
I1
tp4902
Rp4903
(I3
S'|'
p4904
NNNI7
I1
I0
tp4905
bS'product'
p4906
tp4907
Rp4908
ag2
(g3
(S'S7'
p4909
I0
I1
tp4910
Rp4911
(I3
S'|'
p4912
NNNI7
I1
I0
tp4913
bS'product'
p4914
tp4915
Rp4916
ag2
(g3
(S'S7'
p4917
I0
I1
tp4918
Rp4919
(I3
S'|'
p4920
NNNI7
I1
I0
tp4921
bS'product'
p4922
tp4923
Rp4924
ag2
(g3
(S'S7'
p4925
I0
I1
tp4926
Rp4927
(I3
S'|'
p4928
NNNI7
I1
I0
tp4929
bS'product'
p4930
tp4931
Rp4932
ag2
(g3
(S'S7'
p4933
I0
I1
tp4934
Rp4935
(I3
S'|'
p4936
NNNI7
I1
I0
tp4937
bS'product'
p4938
tp4939
Rp4940
ag2
(g3
(S'S5'
p4941
I0
I1
tp4942
Rp4943
(I3
S'|'
p4944
NNNI5
I1
I0
tp4945
bS'phone'
p4946
tp4947
Rp4948
ag2
(g3
(S'S7'
p4949
I0
I1
tp4950
Rp4951
(I3
S'|'
p4952
NNNI7
I1
I0
tp4953
bS'product'
p4954
tp4955
Rp4956
ag2
(g3
(S'S7'
p4957
I0
I1
tp4958
Rp4959
(I3
S'|'
p4960
NNNI7
I1
I0
tp4961
bS'product'
p4962
tp4963
Rp4964
ag2
(g3
(S'S7'
p4965
I0
I1
tp4966
Rp4967
(I3
S'|'
p4968
NNNI7
I1
I0
tp4969
bS'product'
p4970
tp4971
Rp4972
ag2
(g3
(S'S7'
p4973
I0
I1
tp4974
Rp4975
(I3
S'|'
p4976
NNNI7
I1
I0
tp4977
bS'product'
p4978
tp4979
Rp4980
ag2
(g3
(S'S7'
p4981
I0
I1
tp4982
Rp4983
(I3
S'|'
p4984
NNNI7
I1
I0
tp4985
bS'product'
p4986
tp4987
Rp4988
ag2
(g3
(S'S7'
p4989
I0
I1
tp4990
Rp4991
(I3
S'|'
p4992
NNNI7
I1
I0
tp4993
bS'product'
p4994
tp4995
Rp4996
ag2
(g3
(S'S7'
p4997
I0
I1
tp4998
Rp4999
(I3
S'|'
p5000
NNNI7
I1
I0
tp5001
bS'product'
p5002
tp5003
Rp5004
ag2
(g3
(S'S7'
p5005
I0
I1
tp5006
Rp5007
(I3
S'|'
p5008
NNNI7
I1
I0
tp5009
bS'product'
p5010
tp5011
Rp5012
ag2
(g3
(S'S7'
p5013
I0
I1
tp5014
Rp5015
(I3
S'|'
p5016
NNNI7
I1
I0
tp5017
bS'product'
p5018
tp5019
Rp5020
ag2
(g3
(S'S7'
p5021
I0
I1
tp5022
Rp5023
(I3
S'|'
p5024
NNNI7
I1
I0
tp5025
bS'product'
p5026
tp5027
Rp5028
ag2
(g3
(S'S7'
p5029
I0
I1
tp5030
Rp5031
(I3
S'|'
p5032
NNNI7
I1
I0
tp5033
bS'product'
p5034
tp5035
Rp5036
ag2
(g3
(S'S7'
p5037
I0
I1
tp5038
Rp5039
(I3
S'|'
p5040
NNNI7
I1
I0
tp5041
bS'product'
p5042
tp5043
Rp5044
ag2
(g3
(S'S7'
p5045
I0
I1
tp5046
Rp5047
(I3
S'|'
p5048
NNNI7
I1
I0
tp5049
bS'product'
p5050
tp5051
Rp5052
ag2
(g3
(S'S7'
p5053
I0
I1
tp5054
Rp5055
(I3
S'|'
p5056
NNNI7
I1
I0
tp5057
bS'product'
p5058
tp5059
Rp5060
ag2
(g3
(S'S9'
p5061
I0
I1
tp5062
Rp5063
(I3
S'|'
p5064
NNNI9
I1
I0
tp5065
bS'formation'
p5066
tp5067
Rp5068
ag2
(g3
(S'S7'
p5069
I0
I1
tp5070
Rp5071
(I3
S'|'
p5072
NNNI7
I1
I0
tp5073
bS'product'
p5074
tp5075
Rp5076
ag2
(g3
(S'S7'
p5077
I0
I1
tp5078
Rp5079
(I3
S'|'
p5080
NNNI7
I1
I0
tp5081
bS'product'
p5082
tp5083
Rp5084
ag2
(g3
(S'S7'
p5085
I0
I1
tp5086
Rp5087
(I3
S'|'
p5088
NNNI7
I1
I0
tp5089
bS'product'
p5090
tp5091
Rp5092
ag2
(g3
(S'S7'
p5093
I0
I1
tp5094
Rp5095
(I3
S'|'
p5096
NNNI7
I1
I0
tp5097
bS'product'
p5098
tp5099
Rp5100
ag2
(g3
(S'S7'
p5101
I0
I1
tp5102
Rp5103
(I3
S'|'
p5104
NNNI7
I1
I0
tp5105
bS'product'
p5106
tp5107
Rp5108
ag2
(g3
(S'S7'
p5109
I0
I1
tp5110
Rp5111
(I3
S'|'
p5112
NNNI7
I1
I0
tp5113
bS'product'
p5114
tp5115
Rp5116
ag2
(g3
(S'S7'
p5117
I0
I1
tp5118
Rp5119
(I3
S'|'
p5120
NNNI7
I1
I0
tp5121
bS'product'
p5122
tp5123
Rp5124
ag2
(g3
(S'S7'
p5125
I0
I1
tp5126
Rp5127
(I3
S'|'
p5128
NNNI7
I1
I0
tp5129
bS'product'
p5130
tp5131
Rp5132
ag2
(g3
(S'S4'
p5133
I0
I1
tp5134
Rp5135
(I3
S'|'
p5136
NNNI4
I1
I0
tp5137
bS'text'
p5138
tp5139
Rp5140
ag2
(g3
(S'S7'
p5141
I0
I1
tp5142
Rp5143
(I3
S'|'
p5144
NNNI7
I1
I0
tp5145
bS'product'
p5146
tp5147
Rp5148
ag2
(g3
(S'S7'
p5149
I0
I1
tp5150
Rp5151
(I3
S'|'
p5152
NNNI7
I1
I0
tp5153
bS'product'
p5154
tp5155
Rp5156
ag2
(g3
(S'S7'
p5157
I0
I1
tp5158
Rp5159
(I3
S'|'
p5160
NNNI7
I1
I0
tp5161
bS'product'
p5162
tp5163
Rp5164
ag2
(g3
(S'S7'
p5165
I0
I1
tp5166
Rp5167
(I3
S'|'
p5168
NNNI7
I1
I0
tp5169
bS'product'
p5170
tp5171
Rp5172
ag2
(g3
(S'S4'
p5173
I0
I1
tp5174
Rp5175
(I3
S'|'
p5176
NNNI4
I1
I0
tp5177
bS'cord'
p5178
tp5179
Rp5180
ag2
(g3
(S'S7'
p5181
I0
I1
tp5182
Rp5183
(I3
S'|'
p5184
NNNI7
I1
I0
tp5185
bS'product'
p5186
tp5187
Rp5188
ag2
(g3
(S'S7'
p5189
I0
I1
tp5190
Rp5191
(I3
S'|'
p5192
NNNI7
I1
I0
tp5193
bS'product'
p5194
tp5195
Rp5196
ag2
(g3
(S'S7'
p5197
I0
I1
tp5198
Rp5199
(I3
S'|'
p5200
NNNI7
I1
I0
tp5201
bS'product'
p5202
tp5203
Rp5204
ag2
(g3
(S'S7'
p5205
I0
I1
tp5206
Rp5207
(I3
S'|'
p5208
NNNI7
I1
I0
tp5209
bS'product'
p5210
tp5211
Rp5212
ag2
(g3
(S'S7'
p5213
I0
I1
tp5214
Rp5215
(I3
S'|'
p5216
NNNI7
I1
I0
tp5217
bS'product'
p5218
tp5219
Rp5220
ag2
(g3
(S'S7'
p5221
I0
I1
tp5222
Rp5223
(I3
S'|'
p5224
NNNI7
I1
I0
tp5225
bS'product'
p5226
tp5227
Rp5228
ag2
(g3
(S'S7'
p5229
I0
I1
tp5230
Rp5231
(I3
S'|'
p5232
NNNI7
I1
I0
tp5233
bS'product'
p5234
tp5235
Rp5236
ag2
(g3
(S'S7'
p5237
I0
I1
tp5238
Rp5239
(I3
S'|'
p5240
NNNI7
I1
I0
tp5241
bS'product'
p5242
tp5243
Rp5244
ag2
(g3
(S'S7'
p5245
I0
I1
tp5246
Rp5247
(I3
S'|'
p5248
NNNI7
I1
I0
tp5249
bS'product'
p5250
tp5251
Rp5252
ag2
(g3
(S'S7'
p5253
I0
I1
tp5254
Rp5255
(I3
S'|'
p5256
NNNI7
I1
I0
tp5257
bS'product'
p5258
tp5259
Rp5260
ag2
(g3
(S'S7'
p5261
I0
I1
tp5262
Rp5263
(I3
S'|'
p5264
NNNI7
I1
I0
tp5265
bS'product'
p5266
tp5267
Rp5268
ag2
(g3
(S'S7'
p5269
I0
I1
tp5270
Rp5271
(I3
S'|'
p5272
NNNI7
I1
I0
tp5273
bS'product'
p5274
tp5275
Rp5276
ag2
(g3
(S'S7'
p5277
I0
I1
tp5278
Rp5279
(I3
S'|'
p5280
NNNI7
I1
I0
tp5281
bS'product'
p5282
tp5283
Rp5284
ag2
(g3
(S'S7'
p5285
I0
I1
tp5286
Rp5287
(I3
S'|'
p5288
NNNI7
I1
I0
tp5289
bS'product'
p5290
tp5291
Rp5292
ag2
(g3
(S'S7'
p5293
I0
I1
tp5294
Rp5295
(I3
S'|'
p5296
NNNI7
I1
I0
tp5297
bS'product'
p5298
tp5299
Rp5300
ag2
(g3
(S'S7'
p5301
I0
I1
tp5302
Rp5303
(I3
S'|'
p5304
NNNI7
I1
I0
tp5305
bS'product'
p5306
tp5307
Rp5308
ag2
(g3
(S'S7'
p5309
I0
I1
tp5310
Rp5311
(I3
S'|'
p5312
NNNI7
I1
I0
tp5313
bS'product'
p5314
tp5315
Rp5316
ag2
(g3
(S'S8'
p5317
I0
I1
tp5318
Rp5319
(I3
S'|'
p5320
NNNI8
I1
I0
tp5321
bS'division'
p5322
tp5323
Rp5324
ag2
(g3
(S'S7'
p5325
I0
I1
tp5326
Rp5327
(I3
S'|'
p5328
NNNI7
I1
I0
tp5329
bS'product'
p5330
tp5331
Rp5332
ag2
(g3
(S'S7'
p5333
I0
I1
tp5334
Rp5335
(I3
S'|'
p5336
NNNI7
I1
I0
tp5337
bS'product'
p5338
tp5339
Rp5340
ag2
(g3
(S'S7'
p5341
I0
I1
tp5342
Rp5343
(I3
S'|'
p5344
NNNI7
I1
I0
tp5345
bS'product'
p5346
tp5347
Rp5348
ag2
(g3
(S'S7'
p5349
I0
I1
tp5350
Rp5351
(I3
S'|'
p5352
NNNI7
I1
I0
tp5353
bS'product'
p5354
tp5355
Rp5356
ag2
(g3
(S'S7'
p5357
I0
I1
tp5358
Rp5359
(I3
S'|'
p5360
NNNI7
I1
I0
tp5361
bS'product'
p5362
tp5363
Rp5364
ag2
(g3
(S'S7'
p5365
I0
I1
tp5366
Rp5367
(I3
S'|'
p5368
NNNI7
I1
I0
tp5369
bS'product'
p5370
tp5371
Rp5372
ag2
(g3
(S'S7'
p5373
I0
I1
tp5374
Rp5375
(I3
S'|'
p5376
NNNI7
I1
I0
tp5377
bS'product'
p5378
tp5379
Rp5380
ag2
(g3
(S'S7'
p5381
I0
I1
tp5382
Rp5383
(I3
S'|'
p5384
NNNI7
I1
I0
tp5385
bS'product'
p5386
tp5387
Rp5388
ag2
(g3
(S'S7'
p5389
I0
I1
tp5390
Rp5391
(I3
S'|'
p5392
NNNI7
I1
I0
tp5393
bS'product'
p5394
tp5395
Rp5396
ag2
(g3
(S'S7'
p5397
I0
I1
tp5398
Rp5399
(I3
S'|'
p5400
NNNI7
I1
I0
tp5401
bS'product'
p5402
tp5403
Rp5404
ag2
(g3
(S'S7'
p5405
I0
I1
tp5406
Rp5407
(I3
S'|'
p5408
NNNI7
I1
I0
tp5409
bS'product'
p5410
tp5411
Rp5412
ag2
(g3
(S'S7'
p5413
I0
I1
tp5414
Rp5415
(I3
S'|'
p5416
NNNI7
I1
I0
tp5417
bS'product'
p5418
tp5419
Rp5420
ag2
(g3
(S'S4'
p5421
I0
I1
tp5422
Rp5423
(I3
S'|'
p5424
NNNI4
I1
I0
tp5425
bS'text'
p5426
tp5427
Rp5428
ag2
(g3
(S'S4'
p5429
I0
I1
tp5430
Rp5431
(I3
S'|'
p5432
NNNI4
I1
I0
tp5433
bS'text'
p5434
tp5435
Rp5436
ag2
(g3
(S'S7'
p5437
I0
I1
tp5438
Rp5439
(I3
S'|'
p5440
NNNI7
I1
I0
tp5441
bS'product'
p5442
tp5443
Rp5444
ag2
(g3
(S'S7'
p5445
I0
I1
tp5446
Rp5447
(I3
S'|'
p5448
NNNI7
I1
I0
tp5449
bS'product'
p5450
tp5451
Rp5452
ag2
(g3
(S'S9'
p5453
I0
I1
tp5454
Rp5455
(I3
S'|'
p5456
NNNI9
I1
I0
tp5457
bS'formation'
p5458
tp5459
Rp5460
ag2
(g3
(S'S7'
p5461
I0
I1
tp5462
Rp5463
(I3
S'|'
p5464
NNNI7
I1
I0
tp5465
bS'product'
p5466
tp5467
Rp5468
ag2
(g3
(S'S7'
p5469
I0
I1
tp5470
Rp5471
(I3
S'|'
p5472
NNNI7
I1
I0
tp5473
bS'product'
p5474
tp5475
Rp5476
ag2
(g3
(S'S4'
p5477
I0
I1
tp5478
Rp5479
(I3
S'|'
p5480
NNNI4
I1
I0
tp5481
bS'text'
p5482
tp5483
Rp5484
ag2
(g3
(S'S7'
p5485
I0
I1
tp5486
Rp5487
(I3
S'|'
p5488
NNNI7
I1
I0
tp5489
bS'product'
p5490
tp5491
Rp5492
ag2
(g3
(S'S7'
p5493
I0
I1
tp5494
Rp5495
(I3
S'|'
p5496
NNNI7
I1
I0
tp5497
bS'product'
p5498
tp5499
Rp5500
ag2
(g3
(S'S7'
p5501
I0
I1
tp5502
Rp5503
(I3
S'|'
p5504
NNNI7
I1
I0
tp5505
bS'product'
p5506
tp5507
Rp5508
ag2
(g3
(S'S7'
p5509
I0
I1
tp5510
Rp5511
(I3
S'|'
p5512
NNNI7
I1
I0
tp5513
bS'product'
p5514
tp5515
Rp5516
ag2
(g3
(S'S7'
p5517
I0
I1
tp5518
Rp5519
(I3
S'|'
p5520
NNNI7
I1
I0
tp5521
bS'product'
p5522
tp5523
Rp5524
ag2
(g3
(S'S7'
p5525
I0
I1
tp5526
Rp5527
(I3
S'|'
p5528
NNNI7
I1
I0
tp5529
bS'product'
p5530
tp5531
Rp5532
ag2
(g3
(S'S7'
p5533
I0
I1
tp5534
Rp5535
(I3
S'|'
p5536
NNNI7
I1
I0
tp5537
bS'product'
p5538
tp5539
Rp5540
ag2
(g3
(S'S7'
p5541
I0
I1
tp5542
Rp5543
(I3
S'|'
p5544
NNNI7
I1
I0
tp5545
bS'product'
p5546
tp5547
Rp5548
ag2
(g3
(S'S7'
p5549
I0
I1
tp5550
Rp5551
(I3
S'|'
p5552
NNNI7
I1
I0
tp5553
bS'product'
p5554
tp5555
Rp5556
ag2
(g3
(S'S7'
p5557
I0
I1
tp5558
Rp5559
(I3
S'|'
p5560
NNNI7
I1
I0
tp5561
bS'product'
p5562
tp5563
Rp5564
ag2
(g3
(S'S7'
p5565
I0
I1
tp5566
Rp5567
(I3
S'|'
p5568
NNNI7
I1
I0
tp5569
bS'product'
p5570
tp5571
Rp5572
ag2
(g3
(S'S7'
p5573
I0
I1
tp5574
Rp5575
(I3
S'|'
p5576
NNNI7
I1
I0
tp5577
bS'product'
p5578
tp5579
Rp5580
ag2
(g3
(S'S7'
p5581
I0
I1
tp5582
Rp5583
(I3
S'|'
p5584
NNNI7
I1
I0
tp5585
bS'product'
p5586
tp5587
Rp5588
ag2
(g3
(S'S7'
p5589
I0
I1
tp5590
Rp5591
(I3
S'|'
p5592
NNNI7
I1
I0
tp5593
bS'product'
p5594
tp5595
Rp5596
ag2
(g3
(S'S7'
p5597
I0
I1
tp5598
Rp5599
(I3
S'|'
p5600
NNNI7
I1
I0
tp5601
bS'product'
p5602
tp5603
Rp5604
ag2
(g3
(S'S7'
p5605
I0
I1
tp5606
Rp5607
(I3
S'|'
p5608
NNNI7
I1
I0
tp5609
bS'product'
p5610
tp5611
Rp5612
ag2
(g3
(S'S7'
p5613
I0
I1
tp5614
Rp5615
(I3
S'|'
p5616
NNNI7
I1
I0
tp5617
bS'product'
p5618
tp5619
Rp5620
ag2
(g3
(S'S7'
p5621
I0
I1
tp5622
Rp5623
(I3
S'|'
p5624
NNNI7
I1
I0
tp5625
bS'product'
p5626
tp5627
Rp5628
ag2
(g3
(S'S7'
p5629
I0
I1
tp5630
Rp5631
(I3
S'|'
p5632
NNNI7
I1
I0
tp5633
bS'product'
p5634
tp5635
Rp5636
ag2
(g3
(S'S7'
p5637
I0
I1
tp5638
Rp5639
(I3
S'|'
p5640
NNNI7
I1
I0
tp5641
bS'product'
p5642
tp5643
Rp5644
ag2
(g3
(S'S7'
p5645
I0
I1
tp5646
Rp5647
(I3
S'|'
p5648
NNNI7
I1
I0
tp5649
bS'product'
p5650
tp5651
Rp5652
ag2
(g3
(S'S7'
p5653
I0
I1
tp5654
Rp5655
(I3
S'|'
p5656
NNNI7
I1
I0
tp5657
bS'product'
p5658
tp5659
Rp5660
ag2
(g3
(S'S7'
p5661
I0
I1
tp5662
Rp5663
(I3
S'|'
p5664
NNNI7
I1
I0
tp5665
bS'product'
p5666
tp5667
Rp5668
ag2
(g3
(S'S7'
p5669
I0
I1
tp5670
Rp5671
(I3
S'|'
p5672
NNNI7
I1
I0
tp5673
bS'product'
p5674
tp5675
Rp5676
ag2
(g3
(S'S7'
p5677
I0
I1
tp5678
Rp5679
(I3
S'|'
p5680
NNNI7
I1
I0
tp5681
bS'product'
p5682
tp5683
Rp5684
ag2
(g3
(S'S7'
p5685
I0
I1
tp5686
Rp5687
(I3
S'|'
p5688
NNNI7
I1
I0
tp5689
bS'product'
p5690
tp5691
Rp5692
ag2
(g3
(S'S7'
p5693
I0
I1
tp5694
Rp5695
(I3
S'|'
p5696
NNNI7
I1
I0
tp5697
bS'product'
p5698
tp5699
Rp5700
ag2
(g3
(S'S7'
p5701
I0
I1
tp5702
Rp5703
(I3
S'|'
p5704
NNNI7
I1
I0
tp5705
bS'product'
p5706
tp5707
Rp5708
ag2
(g3
(S'S7'
p5709
I0
I1
tp5710
Rp5711
(I3
S'|'
p5712
NNNI7
I1
I0
tp5713
bS'product'
p5714
tp5715
Rp5716
ag2
(g3
(S'S7'
p5717
I0
I1
tp5718
Rp5719
(I3
S'|'
p5720
NNNI7
I1
I0
tp5721
bS'product'
p5722
tp5723
Rp5724
ag2
(g3
(S'S7'
p5725
I0
I1
tp5726
Rp5727
(I3
S'|'
p5728
NNNI7
I1
I0
tp5729
bS'product'
p5730
tp5731
Rp5732
ag2
(g3
(S'S7'
p5733
I0
I1
tp5734
Rp5735
(I3
S'|'
p5736
NNNI7
I1
I0
tp5737
bS'product'
p5738
tp5739
Rp5740
ag2
(g3
(S'S7'
p5741
I0
I1
tp5742
Rp5743
(I3
S'|'
p5744
NNNI7
I1
I0
tp5745
bS'product'
p5746
tp5747
Rp5748
ag2
(g3
(S'S7'
p5749
I0
I1
tp5750
Rp5751
(I3
S'|'
p5752
NNNI7
I1
I0
tp5753
bS'product'
p5754
tp5755
Rp5756
ag2
(g3
(S'S7'
p5757
I0
I1
tp5758
Rp5759
(I3
S'|'
p5760
NNNI7
I1
I0
tp5761
bS'product'
p5762
tp5763
Rp5764
ag2
(g3
(S'S7'
p5765
I0
I1
tp5766
Rp5767
(I3
S'|'
p5768
NNNI7
I1
I0
tp5769
bS'product'
p5770
tp5771
Rp5772
ag2
(g3
(S'S7'
p5773
I0
I1
tp5774
Rp5775
(I3
S'|'
p5776
NNNI7
I1
I0
tp5777
bS'product'
p5778
tp5779
Rp5780
ag2
(g3
(S'S7'
p5781
I0
I1
tp5782
Rp5783
(I3
S'|'
p5784
NNNI7
I1
I0
tp5785
bS'product'
p5786
tp5787
Rp5788
ag2
(g3
(S'S7'
p5789
I0
I1
tp5790
Rp5791
(I3
S'|'
p5792
NNNI7
I1
I0
tp5793
bS'product'
p5794
tp5795
Rp5796
ag2
(g3
(S'S7'
p5797
I0
I1
tp5798
Rp5799
(I3
S'|'
p5800
NNNI7
I1
I0
tp5801
bS'product'
p5802
tp5803
Rp5804
ag2
(g3
(S'S7'
p5805
I0
I1
tp5806
Rp5807
(I3
S'|'
p5808
NNNI7
I1
I0
tp5809
bS'product'
p5810
tp5811
Rp5812
ag2
(g3
(S'S7'
p5813
I0
I1
tp5814
Rp5815
(I3
S'|'
p5816
NNNI7
I1
I0
tp5817
bS'product'
p5818
tp5819
Rp5820
ag2
(g3
(S'S9'
p5821
I0
I1
tp5822
Rp5823
(I3
S'|'
p5824
NNNI9
I1
I0
tp5825
bS'formation'
p5826
tp5827
Rp5828
ag2
(g3
(S'S7'
p5829
I0
I1
tp5830
Rp5831
(I3
S'|'
p5832
NNNI7
I1
I0
tp5833
bS'product'
p5834
tp5835
Rp5836
ag2
(g3
(S'S7'
p5837
I0
I1
tp5838
Rp5839
(I3
S'|'
p5840
NNNI7
I1
I0
tp5841
bS'product'
p5842
tp5843
Rp5844
ag2
(g3
(S'S7'
p5845
I0
I1
tp5846
Rp5847
(I3
S'|'
p5848
NNNI7
I1
I0
tp5849
bS'product'
p5850
tp5851
Rp5852
ag2
(g3
(S'S7'
p5853
I0
I1
tp5854
Rp5855
(I3
S'|'
p5856
NNNI7
I1
I0
tp5857
bS'product'
p5858
tp5859
Rp5860
ag2
(g3
(S'S7'
p5861
I0
I1
tp5862
Rp5863
(I3
S'|'
p5864
NNNI7
I1
I0
tp5865
bS'product'
p5866
tp5867
Rp5868
ag2
(g3
(S'S7'
p5869
I0
I1
tp5870
Rp5871
(I3
S'|'
p5872
NNNI7
I1
I0
tp5873
bS'product'
p5874
tp5875
Rp5876
ag2
(g3
(S'S7'
p5877
I0
I1
tp5878
Rp5879
(I3
S'|'
p5880
NNNI7
I1
I0
tp5881
bS'product'
p5882
tp5883
Rp5884
ag2
(g3
(S'S7'
p5885
I0
I1
tp5886
Rp5887
(I3
S'|'
p5888
NNNI7
I1
I0
tp5889
bS'product'
p5890
tp5891
Rp5892
ag2
(g3
(S'S4'
p5893
I0
I1
tp5894
Rp5895
(I3
S'|'
p5896
NNNI4
I1
I0
tp5897
bS'text'
p5898
tp5899
Rp5900
ag2
(g3
(S'S7'
p5901
I0
I1
tp5902
Rp5903
(I3
S'|'
p5904
NNNI7
I1
I0
tp5905
bS'product'
p5906
tp5907
Rp5908
ag2
(g3
(S'S7'
p5909
I0
I1
tp5910
Rp5911
(I3
S'|'
p5912
NNNI7
I1
I0
tp5913
bS'product'
p5914
tp5915
Rp5916
ag2
(g3
(S'S7'
p5917
I0
I1
tp5918
Rp5919
(I3
S'|'
p5920
NNNI7
I1
I0
tp5921
bS'product'
p5922
tp5923
Rp5924
ag2
(g3
(S'S8'
p5925
I0
I1
tp5926
Rp5927
(I3
S'|'
p5928
NNNI8
I1
I0
tp5929
bS'division'
p5930
tp5931
Rp5932
ag2
(g3
(S'S7'
p5933
I0
I1
tp5934
Rp5935
(I3
S'|'
p5936
NNNI7
I1
I0
tp5937
bS'product'
p5938
tp5939
Rp5940
ag2
(g3
(S'S7'
p5941
I0
I1
tp5942
Rp5943
(I3
S'|'
p5944
NNNI7
I1
I0
tp5945
bS'product'
p5946
tp5947
Rp5948
ag2
(g3
(S'S7'
p5949
I0
I1
tp5950
Rp5951
(I3
S'|'
p5952
NNNI7
I1
I0
tp5953
bS'product'
p5954
tp5955
Rp5956
ag2
(g3
(S'S7'
p5957
I0
I1
tp5958
Rp5959
(I3
S'|'
p5960
NNNI7
I1
I0
tp5961
bS'product'
p5962
tp5963
Rp5964
ag2
(g3
(S'S7'
p5965
I0
I1
tp5966
Rp5967
(I3
S'|'
p5968
NNNI7
I1
I0
tp5969
bS'product'
p5970
tp5971
Rp5972
ag2
(g3
(S'S7'
p5973
I0
I1
tp5974
Rp5975
(I3
S'|'
p5976
NNNI7
I1
I0
tp5977
bS'product'
p5978
tp5979
Rp5980
ag2
(g3
(S'S7'
p5981
I0
I1
tp5982
Rp5983
(I3
S'|'
p5984
NNNI7
I1
I0
tp5985
bS'product'
p5986
tp5987
Rp5988
ag2
(g3
(S'S4'
p5989
I0
I1
tp5990
Rp5991
(I3
S'|'
p5992
NNNI4
I1
I0
tp5993
bS'text'
p5994
tp5995
Rp5996
ag2
(g3
(S'S7'
p5997
I0
I1
tp5998
Rp5999
(I3
S'|'
p6000
NNNI7
I1
I0
tp6001
bS'product'
p6002
tp6003
Rp6004
ag2
(g3
(S'S7'
p6005
I0
I1
tp6006
Rp6007
(I3
S'|'
p6008
NNNI7
I1
I0
tp6009
bS'product'
p6010
tp6011
Rp6012
ag2
(g3
(S'S7'
p6013
I0
I1
tp6014
Rp6015
(I3
S'|'
p6016
NNNI7
I1
I0
tp6017
bS'product'
p6018
tp6019
Rp6020
ag2
(g3
(S'S7'
p6021
I0
I1
tp6022
Rp6023
(I3
S'|'
p6024
NNNI7
I1
I0
tp6025
bS'product'
p6026
tp6027
Rp6028
ag2
(g3
(S'S7'
p6029
I0
I1
tp6030
Rp6031
(I3
S'|'
p6032
NNNI7
I1
I0
tp6033
bS'product'
p6034
tp6035
Rp6036
ag2
(g3
(S'S7'
p6037
I0
I1
tp6038
Rp6039
(I3
S'|'
p6040
NNNI7
I1
I0
tp6041
bS'product'
p6042
tp6043
Rp6044
ag2
(g3
(S'S7'
p6045
I0
I1
tp6046
Rp6047
(I3
S'|'
p6048
NNNI7
I1
I0
tp6049
bS'product'
p6050
tp6051
Rp6052
ag2
(g3
(S'S7'
p6053
I0
I1
tp6054
Rp6055
(I3
S'|'
p6056
NNNI7
I1
I0
tp6057
bS'product'
p6058
tp6059
Rp6060
ag2
(g3
(S'S7'
p6061
I0
I1
tp6062
Rp6063
(I3
S'|'
p6064
NNNI7
I1
I0
tp6065
bS'product'
p6066
tp6067
Rp6068
ag2
(g3
(S'S7'
p6069
I0
I1
tp6070
Rp6071
(I3
S'|'
p6072
NNNI7
I1
I0
tp6073
bS'product'
p6074
tp6075
Rp6076
ag2
(g3
(S'S4'
p6077
I0
I1
tp6078
Rp6079
(I3
S'|'
p6080
NNNI4
I1
I0
tp6081
bS'cord'
p6082
tp6083
Rp6084
ag2
(g3
(S'S7'
p6085
I0
I1
tp6086
Rp6087
(I3
S'|'
p6088
NNNI7
I1
I0
tp6089
bS'product'
p6090
tp6091
Rp6092
ag2
(g3
(S'S9'
p6093
I0
I1
tp6094
Rp6095
(I3
S'|'
p6096
NNNI9
I1
I0
tp6097
bS'formation'
p6098
tp6099
Rp6100
ag2
(g3
(S'S9'
p6101
I0
I1
tp6102
Rp6103
(I3
S'|'
p6104
NNNI9
I1
I0
tp6105
bS'formation'
p6106
tp6107
Rp6108
ag2
(g3
(S'S7'
p6109
I0
I1
tp6110
Rp6111
(I3
S'|'
p6112
NNNI7
I1
I0
tp6113
bS'product'
p6114
tp6115
Rp6116
ag2
(g3
(S'S7'
p6117
I0
I1
tp6118
Rp6119
(I3
S'|'
p6120
NNNI7
I1
I0
tp6121
bS'product'
p6122
tp6123
Rp6124
ag2
(g3
(S'S7'
p6125
I0
I1
tp6126
Rp6127
(I3
S'|'
p6128
NNNI7
I1
I0
tp6129
bS'product'
p6130
tp6131
Rp6132
ag2
(g3
(S'S7'
p6133
I0
I1
tp6134
Rp6135
(I3
S'|'
p6136
NNNI7
I1
I0
tp6137
bS'product'
p6138
tp6139
Rp6140
ag2
(g3
(S'S7'
p6141
I0
I1
tp6142
Rp6143
(I3
S'|'
p6144
NNNI7
I1
I0
tp6145
bS'product'
p6146
tp6147
Rp6148
ag2
(g3
(S'S7'
p6149
I0
I1
tp6150
Rp6151
(I3
S'|'
p6152
NNNI7
I1
I0
tp6153
bS'product'
p6154
tp6155
Rp6156
ag2
(g3
(S'S7'
p6157
I0
I1
tp6158
Rp6159
(I3
S'|'
p6160
NNNI7
I1
I0
tp6161
bS'product'
p6162
tp6163
Rp6164
ag2
(g3
(S'S7'
p6165
I0
I1
tp6166
Rp6167
(I3
S'|'
p6168
NNNI7
I1
I0
tp6169
bS'product'
p6170
tp6171
Rp6172
ag2
(g3
(S'S7'
p6173
I0
I1
tp6174
Rp6175
(I3
S'|'
p6176
NNNI7
I1
I0
tp6177
bS'product'
p6178
tp6179
Rp6180
ag2
(g3
(S'S7'
p6181
I0
I1
tp6182
Rp6183
(I3
S'|'
p6184
NNNI7
I1
I0
tp6185
bS'product'
p6186
tp6187
Rp6188
ag2
(g3
(S'S7'
p6189
I0
I1
tp6190
Rp6191
(I3
S'|'
p6192
NNNI7
I1
I0
tp6193
bS'product'
p6194
tp6195
Rp6196
ag2
(g3
(S'S7'
p6197
I0
I1
tp6198
Rp6199
(I3
S'|'
p6200
NNNI7
I1
I0
tp6201
bS'product'
p6202
tp6203
Rp6204
ag2
(g3
(S'S7'
p6205
I0
I1
tp6206
Rp6207
(I3
S'|'
p6208
NNNI7
I1
I0
tp6209
bS'product'
p6210
tp6211
Rp6212
ag2
(g3
(S'S7'
p6213
I0
I1
tp6214
Rp6215
(I3
S'|'
p6216
NNNI7
I1
I0
tp6217
bS'product'
p6218
tp6219
Rp6220
ag2
(g3
(S'S7'
p6221
I0
I1
tp6222
Rp6223
(I3
S'|'
p6224
NNNI7
I1
I0
tp6225
bS'product'
p6226
tp6227
Rp6228
ag2
(g3
(S'S7'
p6229
I0
I1
tp6230
Rp6231
(I3
S'|'
p6232
NNNI7
I1
I0
tp6233
bS'product'
p6234
tp6235
Rp6236
ag2
(g3
(S'S7'
p6237
I0
I1
tp6238
Rp6239
(I3
S'|'
p6240
NNNI7
I1
I0
tp6241
bS'product'
p6242
tp6243
Rp6244
ag2
(g3
(S'S7'
p6245
I0
I1
tp6246
Rp6247
(I3
S'|'
p6248
NNNI7
I1
I0
tp6249
bS'product'
p6250
tp6251
Rp6252
ag2
(g3
(S'S7'
p6253
I0
I1
tp6254
Rp6255
(I3
S'|'
p6256
NNNI7
I1
I0
tp6257
bS'product'
p6258
tp6259
Rp6260
ag2
(g3
(S'S7'
p6261
I0
I1
tp6262
Rp6263
(I3
S'|'
p6264
NNNI7
I1
I0
tp6265
bS'product'
p6266
tp6267
Rp6268
ag2
(g3
(S'S7'
p6269
I0
I1
tp6270
Rp6271
(I3
S'|'
p6272
NNNI7
I1
I0
tp6273
bS'product'
p6274
tp6275
Rp6276
ag2
(g3
(S'S4'
p6277
I0
I1
tp6278
Rp6279
(I3
S'|'
p6280
NNNI4
I1
I0
tp6281
bS'cord'
p6282
tp6283
Rp6284
ag2
(g3
(S'S7'
p6285
I0
I1
tp6286
Rp6287
(I3
S'|'
p6288
NNNI7
I1
I0
tp6289
bS'product'
p6290
tp6291
Rp6292
ag2
(g3
(S'S7'
p6293
I0
I1
tp6294
Rp6295
(I3
S'|'
p6296
NNNI7
I1
I0
tp6297
bS'product'
p6298
tp6299
Rp6300
ag2
(g3
(S'S7'
p6301
I0
I1
tp6302
Rp6303
(I3
S'|'
p6304
NNNI7
I1
I0
tp6305
bS'product'
p6306
tp6307
Rp6308
ag2
(g3
(S'S8'
p6309
I0
I1
tp6310
Rp6311
(I3
S'|'
p6312
NNNI8
I1
I0
tp6313
bS'division'
p6314
tp6315
Rp6316
ag2
(g3
(S'S4'
p6317
I0
I1
tp6318
Rp6319
(I3
S'|'
p6320
NNNI4
I1
I0
tp6321
bS'text'
p6322
tp6323
Rp6324
ag2
(g3
(S'S4'
p6325
I0
I1
tp6326
Rp6327
(I3
S'|'
p6328
NNNI4
I1
I0
tp6329
bS'text'
p6330
tp6331
Rp6332
ag2
(g3
(S'S7'
p6333
I0
I1
tp6334
Rp6335
(I3
S'|'
p6336
NNNI7
I1
I0
tp6337
bS'product'
p6338
tp6339
Rp6340
ag2
(g3
(S'S7'
p6341
I0
I1
tp6342
Rp6343
(I3
S'|'
p6344
NNNI7
I1
I0
tp6345
bS'product'
p6346
tp6347
Rp6348
ag2
(g3
(S'S8'
p6349
I0
I1
tp6350
Rp6351
(I3
S'|'
p6352
NNNI8
I1
I0
tp6353
bS'division'
p6354
tp6355
Rp6356
ag2
(g3
(S'S7'
p6357
I0
I1
tp6358
Rp6359
(I3
S'|'
p6360
NNNI7
I1
I0
tp6361
bS'product'
p6362
tp6363
Rp6364
ag2
(g3
(S'S4'
p6365
I0
I1
tp6366
Rp6367
(I3
S'|'
p6368
NNNI4
I1
I0
tp6369
bS'cord'
p6370
tp6371
Rp6372
ag2
(g3
(S'S7'
p6373
I0
I1
tp6374
Rp6375
(I3
S'|'
p6376
NNNI7
I1
I0
tp6377
bS'product'
p6378
tp6379
Rp6380
ag2
(g3
(S'S7'
p6381
I0
I1
tp6382
Rp6383
(I3
S'|'
p6384
NNNI7
I1
I0
tp6385
bS'product'
p6386
tp6387
Rp6388
ag2
(g3
(S'S4'
p6389
I0
I1
tp6390
Rp6391
(I3
S'|'
p6392
NNNI4
I1
I0
tp6393
bS'cord'
p6394
tp6395
Rp6396
ag2
(g3
(S'S4'
p6397
I0
I1
tp6398
Rp6399
(I3
S'|'
p6400
NNNI4
I1
I0
tp6401
bS'text'
p6402
tp6403
Rp6404
ag2
(g3
(S'S7'
p6405
I0
I1
tp6406
Rp6407
(I3
S'|'
p6408
NNNI7
I1
I0
tp6409
bS'product'
p6410
tp6411
Rp6412
ag2
(g3
(S'S4'
p6413
I0
I1
tp6414
Rp6415
(I3
S'|'
p6416
NNNI4
I1
I0
tp6417
bS'text'
p6418
tp6419
Rp6420
ag2
(g3
(S'S4'
p6421
I0
I1
tp6422
Rp6423
(I3
S'|'
p6424
NNNI4
I1
I0
tp6425
bS'cord'
p6426
tp6427
Rp6428
ag2
(g3
(S'S4'
p6429
I0
I1
tp6430
Rp6431
(I3
S'|'
p6432
NNNI4
I1
I0
tp6433
bS'text'
p6434
tp6435
Rp6436
ag2
(g3
(S'S4'
p6437
I0
I1
tp6438
Rp6439
(I3
S'|'
p6440
NNNI4
I1
I0
tp6441
bS'text'
p6442
tp6443
Rp6444
ag2
(g3
(S'S7'
p6445
I0
I1
tp6446
Rp6447
(I3
S'|'
p6448
NNNI7
I1
I0
tp6449
bS'product'
p6450
tp6451
Rp6452
ag2
(g3
(S'S4'
p6453
I0
I1
tp6454
Rp6455
(I3
S'|'
p6456
NNNI4
I1
I0
tp6457
bS'cord'
p6458
tp6459
Rp6460
ag2
(g3
(S'S4'
p6461
I0
I1
tp6462
Rp6463
(I3
S'|'
p6464
NNNI4
I1
I0
tp6465
bS'text'
p6466
tp6467
Rp6468
ag2
(g3
(S'S4'
p6469
I0
I1
tp6470
Rp6471
(I3
S'|'
p6472
NNNI4
I1
I0
tp6473
bS'text'
p6474
tp6475
Rp6476
ag2
(g3
(S'S7'
p6477
I0
I1
tp6478
Rp6479
(I3
S'|'
p6480
NNNI7
I1
I0
tp6481
bS'product'
p6482
tp6483
Rp6484
ag2
(g3
(S'S4'
p6485
I0
I1
tp6486
Rp6487
(I3
S'|'
p6488
NNNI4
I1
I0
tp6489
bS'cord'
p6490
tp6491
Rp6492
ag2
(g3
(S'S4'
p6493
I0
I1
tp6494
Rp6495
(I3
S'|'
p6496
NNNI4
I1
I0
tp6497
bS'text'
p6498
tp6499
Rp6500
ag2
(g3
(S'S4'
p6501
I0
I1
tp6502
Rp6503
(I3
S'|'
p6504
NNNI4
I1
I0
tp6505
bS'text'
p6506
tp6507
Rp6508
ag2
(g3
(S'S4'
p6509
I0
I1
tp6510
Rp6511
(I3
S'|'
p6512
NNNI4
I1
I0
tp6513
bS'text'
p6514
tp6515
Rp6516
ag2
(g3
(S'S5'
p6517
I0
I1
tp6518
Rp6519
(I3
S'|'
p6520
NNNI5
I1
I0
tp6521
bS'phone'
p6522
tp6523
Rp6524
ag2
(g3
(S'S7'
p6525
I0
I1
tp6526
Rp6527
(I3
S'|'
p6528
NNNI7
I1
I0
tp6529
bS'product'
p6530
tp6531
Rp6532
ag2
(g3
(S'S7'
p6533
I0
I1
tp6534
Rp6535
(I3
S'|'
p6536
NNNI7
I1
I0
tp6537
bS'product'
p6538
tp6539
Rp6540
ag2
(g3
(S'S7'
p6541
I0
I1
tp6542
Rp6543
(I3
S'|'
p6544
NNNI7
I1
I0
tp6545
bS'product'
p6546
tp6547
Rp6548
ag2
(g3
(S'S4'
p6549
I0
I1
tp6550
Rp6551
(I3
S'|'
p6552
NNNI4
I1
I0
tp6553
bS'text'
p6554
tp6555
Rp6556
ag2
(g3
(S'S4'
p6557
I0
I1
tp6558
Rp6559
(I3
S'|'
p6560
NNNI4
I1
I0
tp6561
bS'text'
p6562
tp6563
Rp6564
ag2
(g3
(S'S4'
p6565
I0
I1
tp6566
Rp6567
(I3
S'|'
p6568
NNNI4
I1
I0
tp6569
bS'text'
p6570
tp6571
Rp6572
ag2
(g3
(S'S4'
p6573
I0
I1
tp6574
Rp6575
(I3
S'|'
p6576
NNNI4
I1
I0
tp6577
bS'text'
p6578
tp6579
Rp6580
ag2
(g3
(S'S9'
p6581
I0
I1
tp6582
Rp6583
(I3
S'|'
p6584
NNNI9
I1
I0
tp6585
bS'formation'
p6586
tp6587
Rp6588
ag2
(g3
(S'S8'
p6589
I0
I1
tp6590
Rp6591
(I3
S'|'
p6592
NNNI8
I1
I0
tp6593
bS'division'
p6594
tp6595
Rp6596
ag2
(g3
(S'S4'
p6597
I0
I1
tp6598
Rp6599
(I3
S'|'
p6600
NNNI4
I1
I0
tp6601
bS'text'
p6602
tp6603
Rp6604
ag2
(g3
(S'S4'
p6605
I0
I1
tp6606
Rp6607
(I3
S'|'
p6608
NNNI4
I1
I0
tp6609
bS'text'
p6610
tp6611
Rp6612
ag2
(g3
(S'S7'
p6613
I0
I1
tp6614
Rp6615
(I3
S'|'
p6616
NNNI7
I1
I0
tp6617
bS'product'
p6618
tp6619
Rp6620
ag2
(g3
(S'S4'
p6621
I0
I1
tp6622
Rp6623
(I3
S'|'
p6624
NNNI4
I1
I0
tp6625
bS'text'
p6626
tp6627
Rp6628
aa(lp6629
S'cord'
p6630
aS'text'
p6631
ag6630
ag6630
ag6630
ag6630
ag6630
ag6630
ag6630
ag6630
ag6630
ag6630
ag6630
ag6630
ag6630
aS'formation'
p6632
ag6630
ag6630
ag6630
ag6630
ag6632
ag6630
ag6630
ag6630
ag6630
ag6630
ag6630
ag6630
ag6630
ag6630
ag6630
ag6630
ag6630
ag6630
ag6630
ag6630
ag6630
aS'division'
p6633
ag6631
ag6633
ag6633
ag6631
ag6633
ag6633
ag6633
ag6633
ag6633
ag6633
ag6633
ag6633
ag6633
ag6631
ag6633
ag6633
ag6633
ag6633
ag6633
ag6633
ag6633
ag6633
ag6633
ag6633
ag6633
ag6631
ag6633
ag6633
ag6633
ag6633
ag6633
ag6633
ag6633
ag6632
ag6633
ag6633
ag6630
ag6632
ag6631
ag6632
ag6632
ag6632
ag6632
ag6632
ag6632
ag6631
ag6632
ag6632
ag6632
ag6632
ag6632
ag6632
ag6632
ag6632
ag6632
ag6632
aS'phone'
p6634
ag6632
aS'product'
p6635
ag6632
ag6632
ag6632
ag6632
ag6632
ag6632
ag6631
ag6632
ag6632
ag6632
ag6632
ag6632
ag6634
ag6634
ag6634
ag6634
ag6631
ag6634
ag6634
ag6634
ag6634
ag6634
ag6634
ag6634
ag6634
ag6634
ag6634
ag6632
ag6634
ag6634
ag6634
ag6634
ag6632
ag6634
ag6634
ag6634
ag6634
ag6634
ag6634
ag6634
ag6634
ag6634
ag6634
ag6634
ag6634
ag6634
ag6634
ag6634
ag6634
ag6634
ag6634
ag6634
ag6632
ag6634
ag6634
ag6635
ag6635
ag6635
ag6635
ag6635
ag6635
ag6635
ag6635
ag6635
ag6635
ag6635
ag6635
ag6635
ag6635
ag6635
ag6632
ag6631
ag6635
ag6635
ag6635
ag6635
ag6632
ag6635
ag6635
ag6632
ag6635
ag6635
ag6635
ag6635
ag6635
ag6635
ag6633
ag6635
ag6635
ag6635
ag6635
ag6634
ag6635
ag6635
ag6635
ag6635
ag6635
ag6635
ag6632
ag6635
ag6635
ag6635
ag6635
ag6635
ag6635
ag6635
ag6635
ag6635
ag6635
ag6635
ag6635
ag6632
ag6635
ag6632
ag6635
ag6631
ag6633
ag6635
ag6635
ag6635
ag6633
ag6635
ag6631
ag6635
ag6635
ag6635
ag6635
ag6633
ag6635
ag6635
ag6635
ag6635
ag6632
ag6635
ag6635
ag6635
ag6635
ag6635
ag6635
ag6635
ag6635
ag6635
ag6635
ag6635
ag6635
ag6635
ag6635
ag6633
ag6635
ag6635
ag6635
ag6635
ag6635
ag6635
ag6632
ag6635
ag6635
ag6633
ag6635
ag6632
ag6635
ag6635
ag6635
ag6631
ag6635
ag6635
ag6635
ag6631
ag6635
ag6635
ag6635
ag6635
ag6635
ag6635
ag6635
ag6633
ag6635
ag6635
ag6635
ag6635
ag6635
ag6635
ag6635
ag6635
ag6635
ag6635
ag6635
ag6635
ag6635
ag6635
ag6635
ag6635
ag6635
ag6631
ag6635
ag6632
ag6635
ag6635
ag6635
ag6635
ag6635
ag6635
ag6635
ag6635
ag6635
ag6635
ag6635
ag6635
ag6635
ag6635
ag6635
ag6635
ag6635
ag6635
ag6635
ag6635
ag6635
ag6635
ag6635
ag6633
ag6635
ag6635
ag6635
ag6635
ag6635
ag6635
ag6635
ag6635
ag6632
ag6635
ag6635
ag6635
ag6635
ag6635
ag6635
ag6635
ag6635
ag6635
ag6635
ag6635
ag6635
ag6635
ag6635
ag6635
ag6635
ag6635
ag6635
ag6635
ag6635
ag6635
ag6635
ag6635
ag6635
ag6635
ag6635
ag6635
ag6635
ag6635
ag6635
ag6635
ag6635
ag6635
ag6635
ag6635
ag6635
ag6635
ag6635
ag6635
ag6633
ag6635
ag6635
ag6635
ag6634
ag6635
ag6632
ag6635
ag6635
ag6631
ag6631
ag6635
ag6631
ag6631
ag6631
ag6632
ag6631
ag6631
ag6633
ag6631
ag6631
ag6631
ag6631
ag6631
ag6631
ag6631
ag6631
ag6631
ag6631
ag6631
ag6631
ag6631
ag6631
ag6631
ag6631
ag6631
ag6631
ag6632
ag6631
ag6631
ag6631
ag6631
ag6631
ag6631
ag6631
ag6631
ag6631
ag6635
ag6631
aa(lp6636
g6635
ag6630
ag6630
ag6630
ag6630
ag6630
ag6630
ag6630
ag6635
ag6630
ag6630
ag6630
ag6630
ag6630
ag6630
ag6635
ag6630
ag6630
ag6630
ag6630
ag6630
ag6630
ag6630
ag6630
ag6630
ag6630
ag6630
ag6630
ag6630
ag6630
ag6635
ag6630
ag6630
ag6630
ag6630
ag6631
ag6630
ag6634
ag6631
ag6635
ag6633
ag6631
ag6633
ag6633
ag6633
ag6633
ag6633
ag6633
ag6633
ag6633
ag6635
ag6635
ag6635
ag6633
ag6633
ag6633
ag6633
ag6633
ag6633
ag6631
ag6633
ag6633
ag6633
ag6635
ag6633
ag6633
ag6634
ag6633
ag6633
ag6633
ag6633
ag6635
ag6633
ag6633
ag6630
ag6630
ag6635
ag6632
ag6635
ag6635
ag6635
ag6635
ag6635
ag6635
ag6635
ag6635
ag6632
ag6635
ag6632
ag6635
ag6632
ag6632
ag6635
ag6635
ag6635
ag6635
ag6635
ag6632
ag6632
ag6635
ag6635
ag6635
ag6635
ag6635
ag6635
ag6635
ag6635
ag6635
ag6632
ag6634
ag6634
ag6634
ag6635
ag6634
ag6635
ag6635
ag6635
ag6635
ag6635
ag6635
ag6634
ag6635
ag6634
ag6635
ag6635
ag6634
ag6635
ag6634
ag6635
ag6635
ag6634
ag6634
ag6634
ag6634
ag6634
ag6635
ag6635
ag6635
ag6635
ag6634
ag6634
ag6634
ag6630
ag6634
ag6634
ag6634
ag6634
ag6634
ag6630
ag6630
ag6634
ag6634
ag6635
ag6635
ag6635
ag6635
ag6635
ag6635
ag6635
ag6635
ag6635
ag6635
ag6635
ag6635
ag6635
ag6635
ag6635
ag6635
ag6635
ag6635
ag6635
ag6635
ag6635
ag6635
ag6635
ag6635
ag6635
ag6635
ag6635
ag6635
ag6635
ag6635
ag6635
ag6635
ag6635
ag6635
ag6635
ag6635
ag6635
ag6635
ag6635
ag6635
ag6635
ag6635
ag6635
ag6630
ag6635
ag6635
ag6635
ag6635
ag6635
ag6635
ag6635
ag6635
ag6635
ag6635
ag6635
ag6635
ag6635
ag6635
ag6635
ag6635
ag6635
ag6635
ag6635
ag6635
ag6635
ag6635
ag6635
ag6635
ag6635
ag6635
ag6635
ag6635
ag6635
ag6635
ag6635
ag6635
ag6635
ag6635
ag6635
ag6635
ag6635
ag6635
ag6635
ag6635
ag6635
ag6635
ag6635
ag6635
ag6635
ag6635
ag6635
ag6635
ag6635
ag6635
ag6635
ag6635
ag6635
ag6635
ag6635
ag6635
ag6635
ag6635
ag6635
ag6635
ag6635
ag6635
ag6635
ag6635
ag6635
ag6635
ag6635
ag6635
ag6635
ag6635
ag6635
ag6635
ag6635
ag6635
ag6635
ag6635
ag6635
ag6635
ag6635
ag6635
ag6635
ag6635
ag6635
ag6635
ag6635
ag6635
ag6635
ag6635
ag6635
ag6635
ag6635
ag6635
ag6635
ag6635
ag6635
ag6635
ag6635
ag6635
ag6635
ag6635
ag6635
ag6635
ag6635
ag6635
ag6635
ag6635
ag6635
ag6635
ag6635
ag6635
ag6635
ag6635
ag6635
ag6635
ag6635
ag6635
ag6635
ag6635
ag6635
ag6635
ag6635
ag6635
ag6635
ag6635
ag6635
ag6635
ag6635
ag6635
ag6635
ag6635
ag6635
ag6635
ag6635
ag6635
ag6635
ag6635
ag6635
ag6635
ag6635
ag6635
ag6635
ag6635
ag6635
ag6635
ag6635
ag6635
ag6635
ag6635
ag6635
ag6635
ag6635
ag6635
ag6635
ag6635
ag6635
ag6635
ag6635
ag6635
ag6635
ag6635
ag6635
ag6635
ag6635
ag6635
ag6635
ag6635
ag6635
ag6635
ag6635
ag6635
ag6635
ag6635
ag6635
ag6635
ag6635
ag6635
ag6635
ag6635
ag6631
ag6635
ag6635
ag6631
ag6631
ag6635
ag6635
ag6635
ag6635
ag6635
ag6635
ag6635
ag6631
ag6631
ag6631
ag6631
ag6631
ag6631
ag6631
ag6631
ag6631
ag6635
ag6631
ag6631
ag6631
ag6635
ag6631
ag6635
ag6635
ag6635
ag6631
ag6631
ag6631
ag6631
ag6631
ag6635
ag6635
ag6635
ag6635
ag6631
aa(lp6637
g2
(g3
(S'S4'
p6638
I0
I1
tp6639
Rp6640
(I3
S'|'
p6641
NNNI4
I1
I0
tp6642
bS'cord'
p6643
tp6644
Rp6645
ag2
(g3
(S'S4'
p6646
I0
I1
tp6647
Rp6648
(I3
S'|'
p6649
NNNI4
I1
I0
tp6650
bS'cord'
p6651
tp6652
Rp6653
ag2
(g3
(S'S8'
p6654
I0
I1
tp6655
Rp6656
(I3
S'|'
p6657
NNNI8
I1
I0
tp6658
bS'division'
p6659
tp6660
Rp6661
ag2
(g3
(S'S4'
p6662
I0
I1
tp6663
Rp6664
(I3
S'|'
p6665
NNNI4
I1
I0
tp6666
bS'cord'
p6667
tp6668
Rp6669
ag2
(g3
(S'S4'
p6670
I0
I1
tp6671
Rp6672
(I3
S'|'
p6673
NNNI4
I1
I0
tp6674
bS'cord'
p6675
tp6676
Rp6677
ag2
(g3
(S'S4'
p6678
I0
I1
tp6679
Rp6680
(I3
S'|'
p6681
NNNI4
I1
I0
tp6682
bS'cord'
p6683
tp6684
Rp6685
ag2
(g3
(S'S5'
p6686
I0
I1
tp6687
Rp6688
(I3
S'|'
p6689
NNNI5
I1
I0
tp6690
bS'phone'
p6691
tp6692
Rp6693
ag2
(g3
(S'S5'
p6694
I0
I1
tp6695
Rp6696
(I3
S'|'
p6697
NNNI5
I1
I0
tp6698
bS'phone'
p6699
tp6700
Rp6701
ag2
(g3
(S'S4'
p6702
I0
I1
tp6703
Rp6704
(I3
S'|'
p6705
NNNI4
I1
I0
tp6706
bS'cord'
p6707
tp6708
Rp6709
ag2
(g3
(S'S4'
p6710
I0
I1
tp6711
Rp6712
(I3
S'|'
p6713
NNNI4
I1
I0
tp6714
bS'cord'
p6715
tp6716
Rp6717
ag2
(g3
(S'S4'
p6718
I0
I1
tp6719
Rp6720
(I3
S'|'
p6721
NNNI4
I1
I0
tp6722
bS'cord'
p6723
tp6724
Rp6725
ag2
(g3
(S'S5'
p6726
I0
I1
tp6727
Rp6728
(I3
S'|'
p6729
NNNI5
I1
I0
tp6730
bS'phone'
p6731
tp6732
Rp6733
ag2
(g3
(S'S4'
p6734
I0
I1
tp6735
Rp6736
(I3
S'|'
p6737
NNNI4
I1
I0
tp6738
bS'cord'
p6739
tp6740
Rp6741
ag2
(g3
(S'S4'
p6742
I0
I1
tp6743
Rp6744
(I3
S'|'
p6745
NNNI4
I1
I0
tp6746
bS'cord'
p6747
tp6748
Rp6749
ag2
(g3
(S'S4'
p6750
I0
I1
tp6751
Rp6752
(I3
S'|'
p6753
NNNI4
I1
I0
tp6754
bS'cord'
p6755
tp6756
Rp6757
ag2
(g3
(S'S4'
p6758
I0
I1
tp6759
Rp6760
(I3
S'|'
p6761
NNNI4
I1
I0
tp6762
bS'cord'
p6763
tp6764
Rp6765
ag2
(g3
(S'S4'
p6766
I0
I1
tp6767
Rp6768
(I3
S'|'
p6769
NNNI4
I1
I0
tp6770
bS'cord'
p6771
tp6772
Rp6773
ag2
(g3
(S'S5'
p6774
I0
I1
tp6775
Rp6776
(I3
S'|'
p6777
NNNI5
I1
I0
tp6778
bS'phone'
p6779
tp6780
Rp6781
ag2
(g3
(S'S4'
p6782
I0
I1
tp6783
Rp6784
(I3
S'|'
p6785
NNNI4
I1
I0
tp6786
bS'cord'
p6787
tp6788
Rp6789
ag2
(g3
(S'S4'
p6790
I0
I1
tp6791
Rp6792
(I3
S'|'
p6793
NNNI4
I1
I0
tp6794
bS'cord'
p6795
tp6796
Rp6797
ag2
(g3
(S'S4'
p6798
I0
I1
tp6799
Rp6800
(I3
S'|'
p6801
NNNI4
I1
I0
tp6802
bS'cord'
p6803
tp6804
Rp6805
ag2
(g3
(S'S4'
p6806
I0
I1
tp6807
Rp6808
(I3
S'|'
p6809
NNNI4
I1
I0
tp6810
bS'cord'
p6811
tp6812
Rp6813
ag2
(g3
(S'S4'
p6814
I0
I1
tp6815
Rp6816
(I3
S'|'
p6817
NNNI4
I1
I0
tp6818
bS'cord'
p6819
tp6820
Rp6821
ag2
(g3
(S'S4'
p6822
I0
I1
tp6823
Rp6824
(I3
S'|'
p6825
NNNI4
I1
I0
tp6826
bS'cord'
p6827
tp6828
Rp6829
ag2
(g3
(S'S4'
p6830
I0
I1
tp6831
Rp6832
(I3
S'|'
p6833
NNNI4
I1
I0
tp6834
bS'cord'
p6835
tp6836
Rp6837
ag2
(g3
(S'S4'
p6838
I0
I1
tp6839
Rp6840
(I3
S'|'
p6841
NNNI4
I1
I0
tp6842
bS'cord'
p6843
tp6844
Rp6845
ag2
(g3
(S'S5'
p6846
I0
I1
tp6847
Rp6848
(I3
S'|'
p6849
NNNI5
I1
I0
tp6850
bS'phone'
p6851
tp6852
Rp6853
ag2
(g3
(S'S4'
p6854
I0
I1
tp6855
Rp6856
(I3
S'|'
p6857
NNNI4
I1
I0
tp6858
bS'cord'
p6859
tp6860
Rp6861
ag2
(g3
(S'S4'
p6862
I0
I1
tp6863
Rp6864
(I3
S'|'
p6865
NNNI4
I1
I0
tp6866
bS'cord'
p6867
tp6868
Rp6869
ag2
(g3
(S'S4'
p6870
I0
I1
tp6871
Rp6872
(I3
S'|'
p6873
NNNI4
I1
I0
tp6874
bS'cord'
p6875
tp6876
Rp6877
ag2
(g3
(S'S4'
p6878
I0
I1
tp6879
Rp6880
(I3
S'|'
p6881
NNNI4
I1
I0
tp6882
bS'cord'
p6883
tp6884
Rp6885
ag2
(g3
(S'S5'
p6886
I0
I1
tp6887
Rp6888
(I3
S'|'
p6889
NNNI5
I1
I0
tp6890
bS'phone'
p6891
tp6892
Rp6893
ag2
(g3
(S'S4'
p6894
I0
I1
tp6895
Rp6896
(I3
S'|'
p6897
NNNI4
I1
I0
tp6898
bS'cord'
p6899
tp6900
Rp6901
ag2
(g3
(S'S5'
p6902
I0
I1
tp6903
Rp6904
(I3
S'|'
p6905
NNNI5
I1
I0
tp6906
bS'phone'
p6907
tp6908
Rp6909
ag2
(g3
(S'S4'
p6910
I0
I1
tp6911
Rp6912
(I3
S'|'
p6913
NNNI4
I1
I0
tp6914
bS'cord'
p6915
tp6916
Rp6917
ag2
(g3
(S'S5'
p6918
I0
I1
tp6919
Rp6920
(I3
S'|'
p6921
NNNI5
I1
I0
tp6922
bS'phone'
p6923
tp6924
Rp6925
ag2
(g3
(S'S4'
p6926
I0
I1
tp6927
Rp6928
(I3
S'|'
p6929
NNNI4
I1
I0
tp6930
bS'cord'
p6931
tp6932
Rp6933
ag2
(g3
(S'S8'
p6934
I0
I1
tp6935
Rp6936
(I3
S'|'
p6937
NNNI8
I1
I0
tp6938
bS'division'
p6939
tp6940
Rp6941
ag2
(g3
(S'S8'
p6942
I0
I1
tp6943
Rp6944
(I3
S'|'
p6945
NNNI8
I1
I0
tp6946
bS'division'
p6947
tp6948
Rp6949
ag2
(g3
(S'S5'
p6950
I0
I1
tp6951
Rp6952
(I3
S'|'
p6953
NNNI5
I1
I0
tp6954
bS'phone'
p6955
tp6956
Rp6957
ag2
(g3
(S'S8'
p6958
I0
I1
tp6959
Rp6960
(I3
S'|'
p6961
NNNI8
I1
I0
tp6962
bS'division'
p6963
tp6964
Rp6965
ag2
(g3
(S'S5'
p6966
I0
I1
tp6967
Rp6968
(I3
S'|'
p6969
NNNI5
I1
I0
tp6970
bS'phone'
p6971
tp6972
Rp6973
ag2
(g3
(S'S8'
p6974
I0
I1
tp6975
Rp6976
(I3
S'|'
p6977
NNNI8
I1
I0
tp6978
bS'division'
p6979
tp6980
Rp6981
ag2
(g3
(S'S5'
p6982
I0
I1
tp6983
Rp6984
(I3
S'|'
p6985
NNNI5
I1
I0
tp6986
bS'phone'
p6987
tp6988
Rp6989
ag2
(g3
(S'S8'
p6990
I0
I1
tp6991
Rp6992
(I3
S'|'
p6993
NNNI8
I1
I0
tp6994
bS'division'
p6995
tp6996
Rp6997
ag2
(g3
(S'S5'
p6998
I0
I1
tp6999
Rp7000
(I3
S'|'
p7001
NNNI5
I1
I0
tp7002
bS'phone'
p7003
tp7004
Rp7005
ag2
(g3
(S'S8'
p7006
I0
I1
tp7007
Rp7008
(I3
S'|'
p7009
NNNI8
I1
I0
tp7010
bS'division'
p7011
tp7012
Rp7013
ag2
(g3
(S'S8'
p7014
I0
I1
tp7015
Rp7016
(I3
S'|'
p7017
NNNI8
I1
I0
tp7018
bS'division'
p7019
tp7020
Rp7021
ag2
(g3
(S'S8'
p7022
I0
I1
tp7023
Rp7024
(I3
S'|'
p7025
NNNI8
I1
I0
tp7026
bS'division'
p7027
tp7028
Rp7029
ag2
(g3
(S'S8'
p7030
I0
I1
tp7031
Rp7032
(I3
S'|'
p7033
NNNI8
I1
I0
tp7034
bS'division'
p7035
tp7036
Rp7037
ag2
(g3
(S'S5'
p7038
I0
I1
tp7039
Rp7040
(I3
S'|'
p7041
NNNI5
I1
I0
tp7042
bS'phone'
p7043
tp7044
Rp7045
ag2
(g3
(S'S5'
p7046
I0
I1
tp7047
Rp7048
(I3
S'|'
p7049
NNNI5
I1
I0
tp7050
bS'phone'
p7051
tp7052
Rp7053
ag2
(g3
(S'S4'
p7054
I0
I1
tp7055
Rp7056
(I3
S'|'
p7057
NNNI4
I1
I0
tp7058
bS'cord'
p7059
tp7060
Rp7061
ag2
(g3
(S'S8'
p7062
I0
I1
tp7063
Rp7064
(I3
S'|'
p7065
NNNI8
I1
I0
tp7066
bS'division'
p7067
tp7068
Rp7069
ag2
(g3
(S'S4'
p7070
I0
I1
tp7071
Rp7072
(I3
S'|'
p7073
NNNI4
I1
I0
tp7074
bS'cord'
p7075
tp7076
Rp7077
ag2
(g3
(S'S4'
p7078
I0
I1
tp7079
Rp7080
(I3
S'|'
p7081
NNNI4
I1
I0
tp7082
bS'cord'
p7083
tp7084
Rp7085
ag2
(g3
(S'S4'
p7086
I0
I1
tp7087
Rp7088
(I3
S'|'
p7089
NNNI4
I1
I0
tp7090
bS'cord'
p7091
tp7092
Rp7093
ag2
(g3
(S'S5'
p7094
I0
I1
tp7095
Rp7096
(I3
S'|'
p7097
NNNI5
I1
I0
tp7098
bS'phone'
p7099
tp7100
Rp7101
ag2
(g3
(S'S8'
p7102
I0
I1
tp7103
Rp7104
(I3
S'|'
p7105
NNNI8
I1
I0
tp7106
bS'division'
p7107
tp7108
Rp7109
ag2
(g3
(S'S8'
p7110
I0
I1
tp7111
Rp7112
(I3
S'|'
p7113
NNNI8
I1
I0
tp7114
bS'division'
p7115
tp7116
Rp7117
ag2
(g3
(S'S4'
p7118
I0
I1
tp7119
Rp7120
(I3
S'|'
p7121
NNNI4
I1
I0
tp7122
bS'cord'
p7123
tp7124
Rp7125
ag2
(g3
(S'S5'
p7126
I0
I1
tp7127
Rp7128
(I3
S'|'
p7129
NNNI5
I1
I0
tp7130
bS'phone'
p7131
tp7132
Rp7133
ag2
(g3
(S'S5'
p7134
I0
I1
tp7135
Rp7136
(I3
S'|'
p7137
NNNI5
I1
I0
tp7138
bS'phone'
p7139
tp7140
Rp7141
ag2
(g3
(S'S5'
p7142
I0
I1
tp7143
Rp7144
(I3
S'|'
p7145
NNNI5
I1
I0
tp7146
bS'phone'
p7147
tp7148
Rp7149
ag2
(g3
(S'S8'
p7150
I0
I1
tp7151
Rp7152
(I3
S'|'
p7153
NNNI8
I1
I0
tp7154
bS'division'
p7155
tp7156
Rp7157
ag2
(g3
(S'S8'
p7158
I0
I1
tp7159
Rp7160
(I3
S'|'
p7161
NNNI8
I1
I0
tp7162
bS'division'
p7163
tp7164
Rp7165
ag2
(g3
(S'S8'
p7166
I0
I1
tp7167
Rp7168
(I3
S'|'
p7169
NNNI8
I1
I0
tp7170
bS'division'
p7171
tp7172
Rp7173
ag2
(g3
(S'S4'
p7174
I0
I1
tp7175
Rp7176
(I3
S'|'
p7177
NNNI4
I1
I0
tp7178
bS'cord'
p7179
tp7180
Rp7181
ag2
(g3
(S'S5'
p7182
I0
I1
tp7183
Rp7184
(I3
S'|'
p7185
NNNI5
I1
I0
tp7186
bS'phone'
p7187
tp7188
Rp7189
ag2
(g3
(S'S5'
p7190
I0
I1
tp7191
Rp7192
(I3
S'|'
p7193
NNNI5
I1
I0
tp7194
bS'phone'
p7195
tp7196
Rp7197
ag2
(g3
(S'S5'
p7198
I0
I1
tp7199
Rp7200
(I3
S'|'
p7201
NNNI5
I1
I0
tp7202
bS'phone'
p7203
tp7204
Rp7205
ag2
(g3
(S'S4'
p7206
I0
I1
tp7207
Rp7208
(I3
S'|'
p7209
NNNI4
I1
I0
tp7210
bS'cord'
p7211
tp7212
Rp7213
ag2
(g3
(S'S8'
p7214
I0
I1
tp7215
Rp7216
(I3
S'|'
p7217
NNNI8
I1
I0
tp7218
bS'division'
p7219
tp7220
Rp7221
ag2
(g3
(S'S8'
p7222
I0
I1
tp7223
Rp7224
(I3
S'|'
p7225
NNNI8
I1
I0
tp7226
bS'division'
p7227
tp7228
Rp7229
ag2
(g3
(S'S5'
p7230
I0
I1
tp7231
Rp7232
(I3
S'|'
p7233
NNNI5
I1
I0
tp7234
bS'phone'
p7235
tp7236
Rp7237
ag2
(g3
(S'S4'
p7238
I0
I1
tp7239
Rp7240
(I3
S'|'
p7241
NNNI4
I1
I0
tp7242
bS'cord'
p7243
tp7244
Rp7245
ag2
(g3
(S'S4'
p7246
I0
I1
tp7247
Rp7248
(I3
S'|'
p7249
NNNI4
I1
I0
tp7250
bS'cord'
p7251
tp7252
Rp7253
ag2
(g3
(S'S4'
p7254
I0
I1
tp7255
Rp7256
(I3
S'|'
p7257
NNNI4
I1
I0
tp7258
bS'cord'
p7259
tp7260
Rp7261
ag2
(g3
(S'S5'
p7262
I0
I1
tp7263
Rp7264
(I3
S'|'
p7265
NNNI5
I1
I0
tp7266
bS'phone'
p7267
tp7268
Rp7269
ag2
(g3
(S'S8'
p7270
I0
I1
tp7271
Rp7272
(I3
S'|'
p7273
NNNI8
I1
I0
tp7274
bS'division'
p7275
tp7276
Rp7277
ag2
(g3
(S'S7'
p7278
I0
I1
tp7279
Rp7280
(I3
S'|'
p7281
NNNI7
I1
I0
tp7282
bS'product'
p7283
tp7284
Rp7285
ag2
(g3
(S'S4'
p7286
I0
I1
tp7287
Rp7288
(I3
S'|'
p7289
NNNI4
I1
I0
tp7290
bS'cord'
p7291
tp7292
Rp7293
ag2
(g3
(S'S9'
p7294
I0
I1
tp7295
Rp7296
(I3
S'|'
p7297
NNNI9
I1
I0
tp7298
bS'formation'
p7299
tp7300
Rp7301
ag2
(g3
(S'S4'
p7302
I0
I1
tp7303
Rp7304
(I3
S'|'
p7305
NNNI4
I1
I0
tp7306
bS'cord'
p7307
tp7308
Rp7309
ag2
(g3
(S'S5'
p7310
I0
I1
tp7311
Rp7312
(I3
S'|'
p7313
NNNI5
I1
I0
tp7314
bS'phone'
p7315
tp7316
Rp7317
ag2
(g3
(S'S4'
p7318
I0
I1
tp7319
Rp7320
(I3
S'|'
p7321
NNNI4
I1
I0
tp7322
bS'cord'
p7323
tp7324
Rp7325
ag2
(g3
(S'S4'
p7326
I0
I1
tp7327
Rp7328
(I3
S'|'
p7329
NNNI4
I1
I0
tp7330
bS'cord'
p7331
tp7332
Rp7333
ag2
(g3
(S'S5'
p7334
I0
I1
tp7335
Rp7336
(I3
S'|'
p7337
NNNI5
I1
I0
tp7338
bS'phone'
p7339
tp7340
Rp7341
ag2
(g3
(S'S4'
p7342
I0
I1
tp7343
Rp7344
(I3
S'|'
p7345
NNNI4
I1
I0
tp7346
bS'cord'
p7347
tp7348
Rp7349
ag2
(g3
(S'S5'
p7350
I0
I1
tp7351
Rp7352
(I3
S'|'
p7353
NNNI5
I1
I0
tp7354
bS'phone'
p7355
tp7356
Rp7357
ag2
(g3
(S'S9'
p7358
I0
I1
tp7359
Rp7360
(I3
S'|'
p7361
NNNI9
I1
I0
tp7362
bS'formation'
p7363
tp7364
Rp7365
ag2
(g3
(S'S4'
p7366
I0
I1
tp7367
Rp7368
(I3
S'|'
p7369
NNNI4
I1
I0
tp7370
bS'cord'
p7371
tp7372
Rp7373
ag2
(g3
(S'S4'
p7374
I0
I1
tp7375
Rp7376
(I3
S'|'
p7377
NNNI4
I1
I0
tp7378
bS'cord'
p7379
tp7380
Rp7381
ag2
(g3
(S'S8'
p7382
I0
I1
tp7383
Rp7384
(I3
S'|'
p7385
NNNI8
I1
I0
tp7386
bS'division'
p7387
tp7388
Rp7389
ag2
(g3
(S'S4'
p7390
I0
I1
tp7391
Rp7392
(I3
S'|'
p7393
NNNI4
I1
I0
tp7394
bS'cord'
p7395
tp7396
Rp7397
ag2
(g3
(S'S8'
p7398
I0
I1
tp7399
Rp7400
(I3
S'|'
p7401
NNNI8
I1
I0
tp7402
bS'division'
p7403
tp7404
Rp7405
ag2
(g3
(S'S5'
p7406
I0
I1
tp7407
Rp7408
(I3
S'|'
p7409
NNNI5
I1
I0
tp7410
bS'phone'
p7411
tp7412
Rp7413
ag2
(g3
(S'S4'
p7414
I0
I1
tp7415
Rp7416
(I3
S'|'
p7417
NNNI4
I1
I0
tp7418
bS'cord'
p7419
tp7420
Rp7421
ag2
(g3
(S'S8'
p7422
I0
I1
tp7423
Rp7424
(I3
S'|'
p7425
NNNI8
I1
I0
tp7426
bS'division'
p7427
tp7428
Rp7429
ag2
(g3
(S'S5'
p7430
I0
I1
tp7431
Rp7432
(I3
S'|'
p7433
NNNI5
I1
I0
tp7434
bS'phone'
p7435
tp7436
Rp7437
ag2
(g3
(S'S4'
p7438
I0
I1
tp7439
Rp7440
(I3
S'|'
p7441
NNNI4
I1
I0
tp7442
bS'cord'
p7443
tp7444
Rp7445
ag2
(g3
(S'S8'
p7446
I0
I1
tp7447
Rp7448
(I3
S'|'
p7449
NNNI8
I1
I0
tp7450
bS'division'
p7451
tp7452
Rp7453
ag2
(g3
(S'S8'
p7454
I0
I1
tp7455
Rp7456
(I3
S'|'
p7457
NNNI8
I1
I0
tp7458
bS'division'
p7459
tp7460
Rp7461
ag2
(g3
(S'S7'
p7462
I0
I1
tp7463
Rp7464
(I3
S'|'
p7465
NNNI7
I1
I0
tp7466
bS'product'
p7467
tp7468
Rp7469
ag2
(g3
(S'S9'
p7470
I0
I1
tp7471
Rp7472
(I3
S'|'
p7473
NNNI9
I1
I0
tp7474
bS'formation'
p7475
tp7476
Rp7477
ag2
(g3
(S'S4'
p7478
I0
I1
tp7479
Rp7480
(I3
S'|'
p7481
NNNI4
I1
I0
tp7482
bS'cord'
p7483
tp7484
Rp7485
ag2
(g3
(S'S4'
p7486
I0
I1
tp7487
Rp7488
(I3
S'|'
p7489
NNNI4
I1
I0
tp7490
bS'cord'
p7491
tp7492
Rp7493
ag2
(g3
(S'S4'
p7494
I0
I1
tp7495
Rp7496
(I3
S'|'
p7497
NNNI4
I1
I0
tp7498
bS'cord'
p7499
tp7500
Rp7501
ag2
(g3
(S'S4'
p7502
I0
I1
tp7503
Rp7504
(I3
S'|'
p7505
NNNI4
I1
I0
tp7506
bS'cord'
p7507
tp7508
Rp7509
ag2
(g3
(S'S5'
p7510
I0
I1
tp7511
Rp7512
(I3
S'|'
p7513
NNNI5
I1
I0
tp7514
bS'phone'
p7515
tp7516
Rp7517
ag2
(g3
(S'S4'
p7518
I0
I1
tp7519
Rp7520
(I3
S'|'
p7521
NNNI4
I1
I0
tp7522
bS'cord'
p7523
tp7524
Rp7525
ag2
(g3
(S'S5'
p7526
I0
I1
tp7527
Rp7528
(I3
S'|'
p7529
NNNI5
I1
I0
tp7530
bS'phone'
p7531
tp7532
Rp7533
ag2
(g3
(S'S5'
p7534
I0
I1
tp7535
Rp7536
(I3
S'|'
p7537
NNNI5
I1
I0
tp7538
bS'phone'
p7539
tp7540
Rp7541
ag2
(g3
(S'S8'
p7542
I0
I1
tp7543
Rp7544
(I3
S'|'
p7545
NNNI8
I1
I0
tp7546
bS'division'
p7547
tp7548
Rp7549
ag2
(g3
(S'S5'
p7550
I0
I1
tp7551
Rp7552
(I3
S'|'
p7553
NNNI5
I1
I0
tp7554
bS'phone'
p7555
tp7556
Rp7557
ag2
(g3
(S'S5'
p7558
I0
I1
tp7559
Rp7560
(I3
S'|'
p7561
NNNI5
I1
I0
tp7562
bS'phone'
p7563
tp7564
Rp7565
ag2
(g3
(S'S4'
p7566
I0
I1
tp7567
Rp7568
(I3
S'|'
p7569
NNNI4
I1
I0
tp7570
bS'cord'
p7571
tp7572
Rp7573
ag2
(g3
(S'S5'
p7574
I0
I1
tp7575
Rp7576
(I3
S'|'
p7577
NNNI5
I1
I0
tp7578
bS'phone'
p7579
tp7580
Rp7581
ag2
(g3
(S'S5'
p7582
I0
I1
tp7583
Rp7584
(I3
S'|'
p7585
NNNI5
I1
I0
tp7586
bS'phone'
p7587
tp7588
Rp7589
ag2
(g3
(S'S4'
p7590
I0
I1
tp7591
Rp7592
(I3
S'|'
p7593
NNNI4
I1
I0
tp7594
bS'cord'
p7595
tp7596
Rp7597
ag2
(g3
(S'S5'
p7598
I0
I1
tp7599
Rp7600
(I3
S'|'
p7601
NNNI5
I1
I0
tp7602
bS'phone'
p7603
tp7604
Rp7605
ag2
(g3
(S'S8'
p7606
I0
I1
tp7607
Rp7608
(I3
S'|'
p7609
NNNI8
I1
I0
tp7610
bS'division'
p7611
tp7612
Rp7613
ag2
(g3
(S'S4'
p7614
I0
I1
tp7615
Rp7616
(I3
S'|'
p7617
NNNI4
I1
I0
tp7618
bS'cord'
p7619
tp7620
Rp7621
ag2
(g3
(S'S4'
p7622
I0
I1
tp7623
Rp7624
(I3
S'|'
p7625
NNNI4
I1
I0
tp7626
bS'cord'
p7627
tp7628
Rp7629
ag2
(g3
(S'S5'
p7630
I0
I1
tp7631
Rp7632
(I3
S'|'
p7633
NNNI5
I1
I0
tp7634
bS'phone'
p7635
tp7636
Rp7637
ag2
(g3
(S'S4'
p7638
I0
I1
tp7639
Rp7640
(I3
S'|'
p7641
NNNI4
I1
I0
tp7642
bS'cord'
p7643
tp7644
Rp7645
ag2
(g3
(S'S5'
p7646
I0
I1
tp7647
Rp7648
(I3
S'|'
p7649
NNNI5
I1
I0
tp7650
bS'phone'
p7651
tp7652
Rp7653
ag2
(g3
(S'S5'
p7654
I0
I1
tp7655
Rp7656
(I3
S'|'
p7657
NNNI5
I1
I0
tp7658
bS'phone'
p7659
tp7660
Rp7661
ag2
(g3
(S'S5'
p7662
I0
I1
tp7663
Rp7664
(I3
S'|'
p7665
NNNI5
I1
I0
tp7666
bS'phone'
p7667
tp7668
Rp7669
ag2
(g3
(S'S5'
p7670
I0
I1
tp7671
Rp7672
(I3
S'|'
p7673
NNNI5
I1
I0
tp7674
bS'phone'
p7675
tp7676
Rp7677
ag2
(g3
(S'S5'
p7678
I0
I1
tp7679
Rp7680
(I3
S'|'
p7681
NNNI5
I1
I0
tp7682
bS'phone'
p7683
tp7684
Rp7685
ag2
(g3
(S'S8'
p7686
I0
I1
tp7687
Rp7688
(I3
S'|'
p7689
NNNI8
I1
I0
tp7690
bS'division'
p7691
tp7692
Rp7693
ag2
(g3
(S'S5'
p7694
I0
I1
tp7695
Rp7696
(I3
S'|'
p7697
NNNI5
I1
I0
tp7698
bS'phone'
p7699
tp7700
Rp7701
ag2
(g3
(S'S5'
p7702
I0
I1
tp7703
Rp7704
(I3
S'|'
p7705
NNNI5
I1
I0
tp7706
bS'phone'
p7707
tp7708
Rp7709
ag2
(g3
(S'S5'
p7710
I0
I1
tp7711
Rp7712
(I3
S'|'
p7713
NNNI5
I1
I0
tp7714
bS'phone'
p7715
tp7716
Rp7717
ag2
(g3
(S'S5'
p7718
I0
I1
tp7719
Rp7720
(I3
S'|'
p7721
NNNI5
I1
I0
tp7722
bS'phone'
p7723
tp7724
Rp7725
ag2
(g3
(S'S5'
p7726
I0
I1
tp7727
Rp7728
(I3
S'|'
p7729
NNNI5
I1
I0
tp7730
bS'phone'
p7731
tp7732
Rp7733
ag2
(g3
(S'S5'
p7734
I0
I1
tp7735
Rp7736
(I3
S'|'
p7737
NNNI5
I1
I0
tp7738
bS'phone'
p7739
tp7740
Rp7741
ag2
(g3
(S'S4'
p7742
I0
I1
tp7743
Rp7744
(I3
S'|'
p7745
NNNI4
I1
I0
tp7746
bS'cord'
p7747
tp7748
Rp7749
ag2
(g3
(S'S5'
p7750
I0
I1
tp7751
Rp7752
(I3
S'|'
p7753
NNNI5
I1
I0
tp7754
bS'phone'
p7755
tp7756
Rp7757
ag2
(g3
(S'S5'
p7758
I0
I1
tp7759
Rp7760
(I3
S'|'
p7761
NNNI5
I1
I0
tp7762
bS'phone'
p7763
tp7764
Rp7765
ag2
(g3
(S'S5'
p7766
I0
I1
tp7767
Rp7768
(I3
S'|'
p7769
NNNI5
I1
I0
tp7770
bS'phone'
p7771
tp7772
Rp7773
ag2
(g3
(S'S5'
p7774
I0
I1
tp7775
Rp7776
(I3
S'|'
p7777
NNNI5
I1
I0
tp7778
bS'phone'
p7779
tp7780
Rp7781
ag2
(g3
(S'S5'
p7782
I0
I1
tp7783
Rp7784
(I3
S'|'
p7785
NNNI5
I1
I0
tp7786
bS'phone'
p7787
tp7788
Rp7789
ag2
(g3
(S'S4'
p7790
I0
I1
tp7791
Rp7792
(I3
S'|'
p7793
NNNI4
I1
I0
tp7794
bS'cord'
p7795
tp7796
Rp7797
ag2
(g3
(S'S5'
p7798
I0
I1
tp7799
Rp7800
(I3
S'|'
p7801
NNNI5
I1
I0
tp7802
bS'phone'
p7803
tp7804
Rp7805
ag2
(g3
(S'S5'
p7806
I0
I1
tp7807
Rp7808
(I3
S'|'
p7809
NNNI5
I1
I0
tp7810
bS'phone'
p7811
tp7812
Rp7813
ag2
(g3
(S'S5'
p7814
I0
I1
tp7815
Rp7816
(I3
S'|'
p7817
NNNI5
I1
I0
tp7818
bS'phone'
p7819
tp7820
Rp7821
ag2
(g3
(S'S4'
p7822
I0
I1
tp7823
Rp7824
(I3
S'|'
p7825
NNNI4
I1
I0
tp7826
bS'cord'
p7827
tp7828
Rp7829
ag2
(g3
(S'S5'
p7830
I0
I1
tp7831
Rp7832
(I3
S'|'
p7833
NNNI5
I1
I0
tp7834
bS'phone'
p7835
tp7836
Rp7837
ag2
(g3
(S'S4'
p7838
I0
I1
tp7839
Rp7840
(I3
S'|'
p7841
NNNI4
I1
I0
tp7842
bS'cord'
p7843
tp7844
Rp7845
ag2
(g3
(S'S5'
p7846
I0
I1
tp7847
Rp7848
(I3
S'|'
p7849
NNNI5
I1
I0
tp7850
bS'phone'
p7851
tp7852
Rp7853
ag2
(g3
(S'S7'
p7854
I0
I1
tp7855
Rp7856
(I3
S'|'
p7857
NNNI7
I1
I0
tp7858
bS'product'
p7859
tp7860
Rp7861
ag2
(g3
(S'S7'
p7862
I0
I1
tp7863
Rp7864
(I3
S'|'
p7865
NNNI7
I1
I0
tp7866
bS'product'
p7867
tp7868
Rp7869
ag2
(g3
(S'S7'
p7870
I0
I1
tp7871
Rp7872
(I3
S'|'
p7873
NNNI7
I1
I0
tp7874
bS'product'
p7875
tp7876
Rp7877
ag2
(g3
(S'S4'
p7878
I0
I1
tp7879
Rp7880
(I3
S'|'
p7881
NNNI4
I1
I0
tp7882
bS'cord'
p7883
tp7884
Rp7885
ag2
(g3
(S'S5'
p7886
I0
I1
tp7887
Rp7888
(I3
S'|'
p7889
NNNI5
I1
I0
tp7890
bS'phone'
p7891
tp7892
Rp7893
ag2
(g3
(S'S5'
p7894
I0
I1
tp7895
Rp7896
(I3
S'|'
p7897
NNNI5
I1
I0
tp7898
bS'phone'
p7899
tp7900
Rp7901
ag2
(g3
(S'S4'
p7902
I0
I1
tp7903
Rp7904
(I3
S'|'
p7905
NNNI4
I1
I0
tp7906
bS'cord'
p7907
tp7908
Rp7909
ag2
(g3
(S'S4'
p7910
I0
I1
tp7911
Rp7912
(I3
S'|'
p7913
NNNI4
I1
I0
tp7914
bS'cord'
p7915
tp7916
Rp7917
ag2
(g3
(S'S4'
p7918
I0
I1
tp7919
Rp7920
(I3
S'|'
p7921
NNNI4
I1
I0
tp7922
bS'cord'
p7923
tp7924
Rp7925
ag2
(g3
(S'S7'
p7926
I0
I1
tp7927
Rp7928
(I3
S'|'
p7929
NNNI7
I1
I0
tp7930
bS'product'
p7931
tp7932
Rp7933
ag2
(g3
(S'S8'
p7934
I0
I1
tp7935
Rp7936
(I3
S'|'
p7937
NNNI8
I1
I0
tp7938
bS'division'
p7939
tp7940
Rp7941
ag2
(g3
(S'S5'
p7942
I0
I1
tp7943
Rp7944
(I3
S'|'
p7945
NNNI5
I1
I0
tp7946
bS'phone'
p7947
tp7948
Rp7949
ag2
(g3
(S'S7'
p7950
I0
I1
tp7951
Rp7952
(I3
S'|'
p7953
NNNI7
I1
I0
tp7954
bS'product'
p7955
tp7956
Rp7957
ag2
(g3
(S'S4'
p7958
I0
I1
tp7959
Rp7960
(I3
S'|'
p7961
NNNI4
I1
I0
tp7962
bS'cord'
p7963
tp7964
Rp7965
ag2
(g3
(S'S7'
p7966
I0
I1
tp7967
Rp7968
(I3
S'|'
p7969
NNNI7
I1
I0
tp7970
bS'product'
p7971
tp7972
Rp7973
ag2
(g3
(S'S5'
p7974
I0
I1
tp7975
Rp7976
(I3
S'|'
p7977
NNNI5
I1
I0
tp7978
bS'phone'
p7979
tp7980
Rp7981
ag2
(g3
(S'S4'
p7982
I0
I1
tp7983
Rp7984
(I3
S'|'
p7985
NNNI4
I1
I0
tp7986
bS'cord'
p7987
tp7988
Rp7989
ag2
(g3
(S'S7'
p7990
I0
I1
tp7991
Rp7992
(I3
S'|'
p7993
NNNI7
I1
I0
tp7994
bS'product'
p7995
tp7996
Rp7997
ag2
(g3
(S'S4'
p7998
I0
I1
tp7999
Rp8000
(I3
S'|'
p8001
NNNI4
I1
I0
tp8002
bS'cord'
p8003
tp8004
Rp8005
ag2
(g3
(S'S8'
p8006
I0
I1
tp8007
Rp8008
(I3
S'|'
p8009
NNNI8
I1
I0
tp8010
bS'division'
p8011
tp8012
Rp8013
ag2
(g3
(S'S8'
p8014
I0
I1
tp8015
Rp8016
(I3
S'|'
p8017
NNNI8
I1
I0
tp8018
bS'division'
p8019
tp8020
Rp8021
ag2
(g3
(S'S7'
p8022
I0
I1
tp8023
Rp8024
(I3
S'|'
p8025
NNNI7
I1
I0
tp8026
bS'product'
p8027
tp8028
Rp8029
ag2
(g3
(S'S4'
p8030
I0
I1
tp8031
Rp8032
(I3
S'|'
p8033
NNNI4
I1
I0
tp8034
bS'cord'
p8035
tp8036
Rp8037
ag2
(g3
(S'S4'
p8038
I0
I1
tp8039
Rp8040
(I3
S'|'
p8041
NNNI4
I1
I0
tp8042
bS'cord'
p8043
tp8044
Rp8045
ag2
(g3
(S'S8'
p8046
I0
I1
tp8047
Rp8048
(I3
S'|'
p8049
NNNI8
I1
I0
tp8050
bS'division'
p8051
tp8052
Rp8053
ag2
(g3
(S'S4'
p8054
I0
I1
tp8055
Rp8056
(I3
S'|'
p8057
NNNI4
I1
I0
tp8058
bS'cord'
p8059
tp8060
Rp8061
ag2
(g3
(S'S8'
p8062
I0
I1
tp8063
Rp8064
(I3
S'|'
p8065
NNNI8
I1
I0
tp8066
bS'division'
p8067
tp8068
Rp8069
ag2
(g3
(S'S7'
p8070
I0
I1
tp8071
Rp8072
(I3
S'|'
p8073
NNNI7
I1
I0
tp8074
bS'product'
p8075
tp8076
Rp8077
ag2
(g3
(S'S4'
p8078
I0
I1
tp8079
Rp8080
(I3
S'|'
p8081
NNNI4
I1
I0
tp8082
bS'cord'
p8083
tp8084
Rp8085
ag2
(g3
(S'S7'
p8086
I0
I1
tp8087
Rp8088
(I3
S'|'
p8089
NNNI7
I1
I0
tp8090
bS'product'
p8091
tp8092
Rp8093
ag2
(g3
(S'S7'
p8094
I0
I1
tp8095
Rp8096
(I3
S'|'
p8097
NNNI7
I1
I0
tp8098
bS'product'
p8099
tp8100
Rp8101
ag2
(g3
(S'S8'
p8102
I0
I1
tp8103
Rp8104
(I3
S'|'
p8105
NNNI8
I1
I0
tp8106
bS'division'
p8107
tp8108
Rp8109
ag2
(g3
(S'S7'
p8110
I0
I1
tp8111
Rp8112
(I3
S'|'
p8113
NNNI7
I1
I0
tp8114
bS'product'
p8115
tp8116
Rp8117
ag2
(g3
(S'S7'
p8118
I0
I1
tp8119
Rp8120
(I3
S'|'
p8121
NNNI7
I1
I0
tp8122
bS'product'
p8123
tp8124
Rp8125
ag2
(g3
(S'S7'
p8126
I0
I1
tp8127
Rp8128
(I3
S'|'
p8129
NNNI7
I1
I0
tp8130
bS'product'
p8131
tp8132
Rp8133
ag2
(g3
(S'S4'
p8134
I0
I1
tp8135
Rp8136
(I3
S'|'
p8137
NNNI4
I1
I0
tp8138
bS'cord'
p8139
tp8140
Rp8141
ag2
(g3
(S'S8'
p8142
I0
I1
tp8143
Rp8144
(I3
S'|'
p8145
NNNI8
I1
I0
tp8146
bS'division'
p8147
tp8148
Rp8149
ag2
(g3
(S'S4'
p8150
I0
I1
tp8151
Rp8152
(I3
S'|'
p8153
NNNI4
I1
I0
tp8154
bS'cord'
p8155
tp8156
Rp8157
ag2
(g3
(S'S4'
p8158
I0
I1
tp8159
Rp8160
(I3
S'|'
p8161
NNNI4
I1
I0
tp8162
bS'cord'
p8163
tp8164
Rp8165
ag2
(g3
(S'S7'
p8166
I0
I1
tp8167
Rp8168
(I3
S'|'
p8169
NNNI7
I1
I0
tp8170
bS'product'
p8171
tp8172
Rp8173
ag2
(g3
(S'S7'
p8174
I0
I1
tp8175
Rp8176
(I3
S'|'
p8177
NNNI7
I1
I0
tp8178
bS'product'
p8179
tp8180
Rp8181
ag2
(g3
(S'S7'
p8182
I0
I1
tp8183
Rp8184
(I3
S'|'
p8185
NNNI7
I1
I0
tp8186
bS'product'
p8187
tp8188
Rp8189
ag2
(g3
(S'S7'
p8190
I0
I1
tp8191
Rp8192
(I3
S'|'
p8193
NNNI7
I1
I0
tp8194
bS'product'
p8195
tp8196
Rp8197
ag2
(g3
(S'S5'
p8198
I0
I1
tp8199
Rp8200
(I3
S'|'
p8201
NNNI5
I1
I0
tp8202
bS'phone'
p8203
tp8204
Rp8205
ag2
(g3
(S'S7'
p8206
I0
I1
tp8207
Rp8208
(I3
S'|'
p8209
NNNI7
I1
I0
tp8210
bS'product'
p8211
tp8212
Rp8213
ag2
(g3
(S'S7'
p8214
I0
I1
tp8215
Rp8216
(I3
S'|'
p8217
NNNI7
I1
I0
tp8218
bS'product'
p8219
tp8220
Rp8221
ag2
(g3
(S'S7'
p8222
I0
I1
tp8223
Rp8224
(I3
S'|'
p8225
NNNI7
I1
I0
tp8226
bS'product'
p8227
tp8228
Rp8229
ag2
(g3
(S'S4'
p8230
I0
I1
tp8231
Rp8232
(I3
S'|'
p8233
NNNI4
I1
I0
tp8234
bS'cord'
p8235
tp8236
Rp8237
ag2
(g3
(S'S5'
p8238
I0
I1
tp8239
Rp8240
(I3
S'|'
p8241
NNNI5
I1
I0
tp8242
bS'phone'
p8243
tp8244
Rp8245
ag2
(g3
(S'S5'
p8246
I0
I1
tp8247
Rp8248
(I3
S'|'
p8249
NNNI5
I1
I0
tp8250
bS'phone'
p8251
tp8252
Rp8253
ag2
(g3
(S'S7'
p8254
I0
I1
tp8255
Rp8256
(I3
S'|'
p8257
NNNI7
I1
I0
tp8258
bS'product'
p8259
tp8260
Rp8261
ag2
(g3
(S'S4'
p8262
I0
I1
tp8263
Rp8264
(I3
S'|'
p8265
NNNI4
I1
I0
tp8266
bS'cord'
p8267
tp8268
Rp8269
ag2
(g3
(S'S4'
p8270
I0
I1
tp8271
Rp8272
(I3
S'|'
p8273
NNNI4
I1
I0
tp8274
bS'cord'
p8275
tp8276
Rp8277
ag2
(g3
(S'S4'
p8278
I0
I1
tp8279
Rp8280
(I3
S'|'
p8281
NNNI4
I1
I0
tp8282
bS'cord'
p8283
tp8284
Rp8285
ag2
(g3
(S'S4'
p8286
I0
I1
tp8287
Rp8288
(I3
S'|'
p8289
NNNI4
I1
I0
tp8290
bS'cord'
p8291
tp8292
Rp8293
ag2
(g3
(S'S7'
p8294
I0
I1
tp8295
Rp8296
(I3
S'|'
p8297
NNNI7
I1
I0
tp8298
bS'product'
p8299
tp8300
Rp8301
ag2
(g3
(S'S5'
p8302
I0
I1
tp8303
Rp8304
(I3
S'|'
p8305
NNNI5
I1
I0
tp8306
bS'phone'
p8307
tp8308
Rp8309
ag2
(g3
(S'S7'
p8310
I0
I1
tp8311
Rp8312
(I3
S'|'
p8313
NNNI7
I1
I0
tp8314
bS'product'
p8315
tp8316
Rp8317
ag2
(g3
(S'S5'
p8318
I0
I1
tp8319
Rp8320
(I3
S'|'
p8321
NNNI5
I1
I0
tp8322
bS'phone'
p8323
tp8324
Rp8325
ag2
(g3
(S'S4'
p8326
I0
I1
tp8327
Rp8328
(I3
S'|'
p8329
NNNI4
I1
I0
tp8330
bS'cord'
p8331
tp8332
Rp8333
ag2
(g3
(S'S7'
p8334
I0
I1
tp8335
Rp8336
(I3
S'|'
p8337
NNNI7
I1
I0
tp8338
bS'product'
p8339
tp8340
Rp8341
ag2
(g3
(S'S5'
p8342
I0
I1
tp8343
Rp8344
(I3
S'|'
p8345
NNNI5
I1
I0
tp8346
bS'phone'
p8347
tp8348
Rp8349
ag2
(g3
(S'S7'
p8350
I0
I1
tp8351
Rp8352
(I3
S'|'
p8353
NNNI7
I1
I0
tp8354
bS'product'
p8355
tp8356
Rp8357
ag2
(g3
(S'S4'
p8358
I0
I1
tp8359
Rp8360
(I3
S'|'
p8361
NNNI4
I1
I0
tp8362
bS'cord'
p8363
tp8364
Rp8365
ag2
(g3
(S'S7'
p8366
I0
I1
tp8367
Rp8368
(I3
S'|'
p8369
NNNI7
I1
I0
tp8370
bS'product'
p8371
tp8372
Rp8373
ag2
(g3
(S'S7'
p8374
I0
I1
tp8375
Rp8376
(I3
S'|'
p8377
NNNI7
I1
I0
tp8378
bS'product'
p8379
tp8380
Rp8381
ag2
(g3
(S'S7'
p8382
I0
I1
tp8383
Rp8384
(I3
S'|'
p8385
NNNI7
I1
I0
tp8386
bS'product'
p8387
tp8388
Rp8389
ag2
(g3
(S'S4'
p8390
I0
I1
tp8391
Rp8392
(I3
S'|'
p8393
NNNI4
I1
I0
tp8394
bS'cord'
p8395
tp8396
Rp8397
ag2
(g3
(S'S5'
p8398
I0
I1
tp8399
Rp8400
(I3
S'|'
p8401
NNNI5
I1
I0
tp8402
bS'phone'
p8403
tp8404
Rp8405
ag2
(g3
(S'S4'
p8406
I0
I1
tp8407
Rp8408
(I3
S'|'
p8409
NNNI4
I1
I0
tp8410
bS'cord'
p8411
tp8412
Rp8413
ag2
(g3
(S'S7'
p8414
I0
I1
tp8415
Rp8416
(I3
S'|'
p8417
NNNI7
I1
I0
tp8418
bS'product'
p8419
tp8420
Rp8421
ag2
(g3
(S'S8'
p8422
I0
I1
tp8423
Rp8424
(I3
S'|'
p8425
NNNI8
I1
I0
tp8426
bS'division'
p8427
tp8428
Rp8429
ag2
(g3
(S'S8'
p8430
I0
I1
tp8431
Rp8432
(I3
S'|'
p8433
NNNI8
I1
I0
tp8434
bS'division'
p8435
tp8436
Rp8437
ag2
(g3
(S'S4'
p8438
I0
I1
tp8439
Rp8440
(I3
S'|'
p8441
NNNI4
I1
I0
tp8442
bS'cord'
p8443
tp8444
Rp8445
ag2
(g3
(S'S5'
p8446
I0
I1
tp8447
Rp8448
(I3
S'|'
p8449
NNNI5
I1
I0
tp8450
bS'phone'
p8451
tp8452
Rp8453
ag2
(g3
(S'S7'
p8454
I0
I1
tp8455
Rp8456
(I3
S'|'
p8457
NNNI7
I1
I0
tp8458
bS'product'
p8459
tp8460
Rp8461
ag2
(g3
(S'S7'
p8462
I0
I1
tp8463
Rp8464
(I3
S'|'
p8465
NNNI7
I1
I0
tp8466
bS'product'
p8467
tp8468
Rp8469
ag2
(g3
(S'S7'
p8470
I0
I1
tp8471
Rp8472
(I3
S'|'
p8473
NNNI7
I1
I0
tp8474
bS'product'
p8475
tp8476
Rp8477
ag2
(g3
(S'S5'
p8478
I0
I1
tp8479
Rp8480
(I3
S'|'
p8481
NNNI5
I1
I0
tp8482
bS'phone'
p8483
tp8484
Rp8485
ag2
(g3
(S'S4'
p8486
I0
I1
tp8487
Rp8488
(I3
S'|'
p8489
NNNI4
I1
I0
tp8490
bS'cord'
p8491
tp8492
Rp8493
ag2
(g3
(S'S7'
p8494
I0
I1
tp8495
Rp8496
(I3
S'|'
p8497
NNNI7
I1
I0
tp8498
bS'product'
p8499
tp8500
Rp8501
ag2
(g3
(S'S7'
p8502
I0
I1
tp8503
Rp8504
(I3
S'|'
p8505
NNNI7
I1
I0
tp8506
bS'product'
p8507
tp8508
Rp8509
ag2
(g3
(S'S8'
p8510
I0
I1
tp8511
Rp8512
(I3
S'|'
p8513
NNNI8
I1
I0
tp8514
bS'division'
p8515
tp8516
Rp8517
ag2
(g3
(S'S4'
p8518
I0
I1
tp8519
Rp8520
(I3
S'|'
p8521
NNNI4
I1
I0
tp8522
bS'cord'
p8523
tp8524
Rp8525
ag2
(g3
(S'S5'
p8526
I0
I1
tp8527
Rp8528
(I3
S'|'
p8529
NNNI5
I1
I0
tp8530
bS'phone'
p8531
tp8532
Rp8533
ag2
(g3
(S'S4'
p8534
I0
I1
tp8535
Rp8536
(I3
S'|'
p8537
NNNI4
I1
I0
tp8538
bS'cord'
p8539
tp8540
Rp8541
ag2
(g3
(S'S7'
p8542
I0
I1
tp8543
Rp8544
(I3
S'|'
p8545
NNNI7
I1
I0
tp8546
bS'product'
p8547
tp8548
Rp8549
ag2
(g3
(S'S5'
p8550
I0
I1
tp8551
Rp8552
(I3
S'|'
p8553
NNNI5
I1
I0
tp8554
bS'phone'
p8555
tp8556
Rp8557
ag2
(g3
(S'S7'
p8558
I0
I1
tp8559
Rp8560
(I3
S'|'
p8561
NNNI7
I1
I0
tp8562
bS'product'
p8563
tp8564
Rp8565
ag2
(g3
(S'S7'
p8566
I0
I1
tp8567
Rp8568
(I3
S'|'
p8569
NNNI7
I1
I0
tp8570
bS'product'
p8571
tp8572
Rp8573
ag2
(g3
(S'S7'
p8574
I0
I1
tp8575
Rp8576
(I3
S'|'
p8577
NNNI7
I1
I0
tp8578
bS'product'
p8579
tp8580
Rp8581
ag2
(g3
(S'S4'
p8582
I0
I1
tp8583
Rp8584
(I3
S'|'
p8585
NNNI4
I1
I0
tp8586
bS'cord'
p8587
tp8588
Rp8589
ag2
(g3
(S'S4'
p8590
I0
I1
tp8591
Rp8592
(I3
S'|'
p8593
NNNI4
I1
I0
tp8594
bS'cord'
p8595
tp8596
Rp8597
ag2
(g3
(S'S7'
p8598
I0
I1
tp8599
Rp8600
(I3
S'|'
p8601
NNNI7
I1
I0
tp8602
bS'product'
p8603
tp8604
Rp8605
ag2
(g3
(S'S7'
p8606
I0
I1
tp8607
Rp8608
(I3
S'|'
p8609
NNNI7
I1
I0
tp8610
bS'product'
p8611
tp8612
Rp8613
ag2
(g3
(S'S4'
p8614
I0
I1
tp8615
Rp8616
(I3
S'|'
p8617
NNNI4
I1
I0
tp8618
bS'cord'
p8619
tp8620
Rp8621
ag2
(g3
(S'S7'
p8622
I0
I1
tp8623
Rp8624
(I3
S'|'
p8625
NNNI7
I1
I0
tp8626
bS'product'
p8627
tp8628
Rp8629
ag2
(g3
(S'S7'
p8630
I0
I1
tp8631
Rp8632
(I3
S'|'
p8633
NNNI7
I1
I0
tp8634
bS'product'
p8635
tp8636
Rp8637
ag2
(g3
(S'S4'
p8638
I0
I1
tp8639
Rp8640
(I3
S'|'
p8641
NNNI4
I1
I0
tp8642
bS'cord'
p8643
tp8644
Rp8645
ag2
(g3
(S'S7'
p8646
I0
I1
tp8647
Rp8648
(I3
S'|'
p8649
NNNI7
I1
I0
tp8650
bS'product'
p8651
tp8652
Rp8653
ag2
(g3
(S'S7'
p8654
I0
I1
tp8655
Rp8656
(I3
S'|'
p8657
NNNI7
I1
I0
tp8658
bS'product'
p8659
tp8660
Rp8661
ag2
(g3
(S'S8'
p8662
I0
I1
tp8663
Rp8664
(I3
S'|'
p8665
NNNI8
I1
I0
tp8666
bS'division'
p8667
tp8668
Rp8669
ag2
(g3
(S'S7'
p8670
I0
I1
tp8671
Rp8672
(I3
S'|'
p8673
NNNI7
I1
I0
tp8674
bS'product'
p8675
tp8676
Rp8677
ag2
(g3
(S'S7'
p8678
I0
I1
tp8679
Rp8680
(I3
S'|'
p8681
NNNI7
I1
I0
tp8682
bS'product'
p8683
tp8684
Rp8685
ag2
(g3
(S'S5'
p8686
I0
I1
tp8687
Rp8688
(I3
S'|'
p8689
NNNI5
I1
I0
tp8690
bS'phone'
p8691
tp8692
Rp8693
ag2
(g3
(S'S5'
p8694
I0
I1
tp8695
Rp8696
(I3
S'|'
p8697
NNNI5
I1
I0
tp8698
bS'phone'
p8699
tp8700
Rp8701
ag2
(g3
(S'S4'
p8702
I0
I1
tp8703
Rp8704
(I3
S'|'
p8705
NNNI4
I1
I0
tp8706
bS'cord'
p8707
tp8708
Rp8709
ag2
(g3
(S'S4'
p8710
I0
I1
tp8711
Rp8712
(I3
S'|'
p8713
NNNI4
I1
I0
tp8714
bS'cord'
p8715
tp8716
Rp8717
ag2
(g3
(S'S5'
p8718
I0
I1
tp8719
Rp8720
(I3
S'|'
p8721
NNNI5
I1
I0
tp8722
bS'phone'
p8723
tp8724
Rp8725
ag2
(g3
(S'S9'
p8726
I0
I1
tp8727
Rp8728
(I3
S'|'
p8729
NNNI9
I1
I0
tp8730
bS'formation'
p8731
tp8732
Rp8733
ag2
(g3
(S'S4'
p8734
I0
I1
tp8735
Rp8736
(I3
S'|'
p8737
NNNI4
I1
I0
tp8738
bS'cord'
p8739
tp8740
Rp8741
ag2
(g3
(S'S4'
p8742
I0
I1
tp8743
Rp8744
(I3
S'|'
p8745
NNNI4
I1
I0
tp8746
bS'cord'
p8747
tp8748
Rp8749
ag2
(g3
(S'S4'
p8750
I0
I1
tp8751
Rp8752
(I3
S'|'
p8753
NNNI4
I1
I0
tp8754
bS'cord'
p8755
tp8756
Rp8757
ag2
(g3
(S'S7'
p8758
I0
I1
tp8759
Rp8760
(I3
S'|'
p8761
NNNI7
I1
I0
tp8762
bS'product'
p8763
tp8764
Rp8765
ag2
(g3
(S'S7'
p8766
I0
I1
tp8767
Rp8768
(I3
S'|'
p8769
NNNI7
I1
I0
tp8770
bS'product'
p8771
tp8772
Rp8773
ag2
(g3
(S'S7'
p8774
I0
I1
tp8775
Rp8776
(I3
S'|'
p8777
NNNI7
I1
I0
tp8778
bS'product'
p8779
tp8780
Rp8781
ag2
(g3
(S'S8'
p8782
I0
I1
tp8783
Rp8784
(I3
S'|'
p8785
NNNI8
I1
I0
tp8786
bS'division'
p8787
tp8788
Rp8789
ag2
(g3
(S'S5'
p8790
I0
I1
tp8791
Rp8792
(I3
S'|'
p8793
NNNI5
I1
I0
tp8794
bS'phone'
p8795
tp8796
Rp8797
ag2
(g3
(S'S7'
p8798
I0
I1
tp8799
Rp8800
(I3
S'|'
p8801
NNNI7
I1
I0
tp8802
bS'product'
p8803
tp8804
Rp8805
ag2
(g3
(S'S7'
p8806
I0
I1
tp8807
Rp8808
(I3
S'|'
p8809
NNNI7
I1
I0
tp8810
bS'product'
p8811
tp8812
Rp8813
ag2
(g3
(S'S7'
p8814
I0
I1
tp8815
Rp8816
(I3
S'|'
p8817
NNNI7
I1
I0
tp8818
bS'product'
p8819
tp8820
Rp8821
ag2
(g3
(S'S4'
p8822
I0
I1
tp8823
Rp8824
(I3
S'|'
p8825
NNNI4
I1
I0
tp8826
bS'text'
p8827
tp8828
Rp8829
ag2
(g3
(S'S7'
p8830
I0
I1
tp8831
Rp8832
(I3
S'|'
p8833
NNNI7
I1
I0
tp8834
bS'product'
p8835
tp8836
Rp8837
ag2
(g3
(S'S7'
p8838
I0
I1
tp8839
Rp8840
(I3
S'|'
p8841
NNNI7
I1
I0
tp8842
bS'product'
p8843
tp8844
Rp8845
ag2
(g3
(S'S5'
p8846
I0
I1
tp8847
Rp8848
(I3
S'|'
p8849
NNNI5
I1
I0
tp8850
bS'phone'
p8851
tp8852
Rp8853
ag2
(g3
(S'S7'
p8854
I0
I1
tp8855
Rp8856
(I3
S'|'
p8857
NNNI7
I1
I0
tp8858
bS'product'
p8859
tp8860
Rp8861
ag2
(g3
(S'S7'
p8862
I0
I1
tp8863
Rp8864
(I3
S'|'
p8865
NNNI7
I1
I0
tp8866
bS'product'
p8867
tp8868
Rp8869
ag2
(g3
(S'S7'
p8870
I0
I1
tp8871
Rp8872
(I3
S'|'
p8873
NNNI7
I1
I0
tp8874
bS'product'
p8875
tp8876
Rp8877
ag2
(g3
(S'S7'
p8878
I0
I1
tp8879
Rp8880
(I3
S'|'
p8881
NNNI7
I1
I0
tp8882
bS'product'
p8883
tp8884
Rp8885
ag2
(g3
(S'S7'
p8886
I0
I1
tp8887
Rp8888
(I3
S'|'
p8889
NNNI7
I1
I0
tp8890
bS'product'
p8891
tp8892
Rp8893
ag2
(g3
(S'S7'
p8894
I0
I1
tp8895
Rp8896
(I3
S'|'
p8897
NNNI7
I1
I0
tp8898
bS'product'
p8899
tp8900
Rp8901
ag2
(g3
(S'S7'
p8902
I0
I1
tp8903
Rp8904
(I3
S'|'
p8905
NNNI7
I1
I0
tp8906
bS'product'
p8907
tp8908
Rp8909
ag2
(g3
(S'S7'
p8910
I0
I1
tp8911
Rp8912
(I3
S'|'
p8913
NNNI7
I1
I0
tp8914
bS'product'
p8915
tp8916
Rp8917
ag2
(g3
(S'S7'
p8918
I0
I1
tp8919
Rp8920
(I3
S'|'
p8921
NNNI7
I1
I0
tp8922
bS'product'
p8923
tp8924
Rp8925
ag2
(g3
(S'S4'
p8926
I0
I1
tp8927
Rp8928
(I3
S'|'
p8929
NNNI4
I1
I0
tp8930
bS'cord'
p8931
tp8932
Rp8933
ag2
(g3
(S'S7'
p8934
I0
I1
tp8935
Rp8936
(I3
S'|'
p8937
NNNI7
I1
I0
tp8938
bS'product'
p8939
tp8940
Rp8941
ag2
(g3
(S'S7'
p8942
I0
I1
tp8943
Rp8944
(I3
S'|'
p8945
NNNI7
I1
I0
tp8946
bS'product'
p8947
tp8948
Rp8949
ag2
(g3
(S'S7'
p8950
I0
I1
tp8951
Rp8952
(I3
S'|'
p8953
NNNI7
I1
I0
tp8954
bS'product'
p8955
tp8956
Rp8957
ag2
(g3
(S'S5'
p8958
I0
I1
tp8959
Rp8960
(I3
S'|'
p8961
NNNI5
I1
I0
tp8962
bS'phone'
p8963
tp8964
Rp8965
ag2
(g3
(S'S7'
p8966
I0
I1
tp8967
Rp8968
(I3
S'|'
p8969
NNNI7
I1
I0
tp8970
bS'product'
p8971
tp8972
Rp8973
ag2
(g3
(S'S7'
p8974
I0
I1
tp8975
Rp8976
(I3
S'|'
p8977
NNNI7
I1
I0
tp8978
bS'product'
p8979
tp8980
Rp8981
ag2
(g3
(S'S4'
p8982
I0
I1
tp8983
Rp8984
(I3
S'|'
p8985
NNNI4
I1
I0
tp8986
bS'cord'
p8987
tp8988
Rp8989
ag2
(g3
(S'S8'
p8990
I0
I1
tp8991
Rp8992
(I3
S'|'
p8993
NNNI8
I1
I0
tp8994
bS'division'
p8995
tp8996
Rp8997
ag2
(g3
(S'S5'
p8998
I0
I1
tp8999
Rp9000
(I3
S'|'
p9001
NNNI5
I1
I0
tp9002
bS'phone'
p9003
tp9004
Rp9005
ag2
(g3
(S'S4'
p9006
I0
I1
tp9007
Rp9008
(I3
S'|'
p9009
NNNI4
I1
I0
tp9010
bS'cord'
p9011
tp9012
Rp9013
ag2
(g3
(S'S7'
p9014
I0
I1
tp9015
Rp9016
(I3
S'|'
p9017
NNNI7
I1
I0
tp9018
bS'product'
p9019
tp9020
Rp9021
ag2
(g3
(S'S7'
p9022
I0
I1
tp9023
Rp9024
(I3
S'|'
p9025
NNNI7
I1
I0
tp9026
bS'product'
p9027
tp9028
Rp9029
ag2
(g3
(S'S4'
p9030
I0
I1
tp9031
Rp9032
(I3
S'|'
p9033
NNNI4
I1
I0
tp9034
bS'cord'
p9035
tp9036
Rp9037
ag2
(g3
(S'S8'
p9038
I0
I1
tp9039
Rp9040
(I3
S'|'
p9041
NNNI8
I1
I0
tp9042
bS'division'
p9043
tp9044
Rp9045
ag2
(g3
(S'S7'
p9046
I0
I1
tp9047
Rp9048
(I3
S'|'
p9049
NNNI7
I1
I0
tp9050
bS'product'
p9051
tp9052
Rp9053
ag2
(g3
(S'S7'
p9054
I0
I1
tp9055
Rp9056
(I3
S'|'
p9057
NNNI7
I1
I0
tp9058
bS'product'
p9059
tp9060
Rp9061
ag2
(g3
(S'S7'
p9062
I0
I1
tp9063
Rp9064
(I3
S'|'
p9065
NNNI7
I1
I0
tp9066
bS'product'
p9067
tp9068
Rp9069
ag2
(g3
(S'S4'
p9070
I0
I1
tp9071
Rp9072
(I3
S'|'
p9073
NNNI4
I1
I0
tp9074
bS'cord'
p9075
tp9076
Rp9077
ag2
(g3
(S'S7'
p9078
I0
I1
tp9079
Rp9080
(I3
S'|'
p9081
NNNI7
I1
I0
tp9082
bS'product'
p9083
tp9084
Rp9085
ag2
(g3
(S'S7'
p9086
I0
I1
tp9087
Rp9088
(I3
S'|'
p9089
NNNI7
I1
I0
tp9090
bS'product'
p9091
tp9092
Rp9093
ag2
(g3
(S'S7'
p9094
I0
I1
tp9095
Rp9096
(I3
S'|'
p9097
NNNI7
I1
I0
tp9098
bS'product'
p9099
tp9100
Rp9101
ag2
(g3
(S'S7'
p9102
I0
I1
tp9103
Rp9104
(I3
S'|'
p9105
NNNI7
I1
I0
tp9106
bS'product'
p9107
tp9108
Rp9109
ag2
(g3
(S'S7'
p9110
I0
I1
tp9111
Rp9112
(I3
S'|'
p9113
NNNI7
I1
I0
tp9114
bS'product'
p9115
tp9116
Rp9117
ag2
(g3
(S'S5'
p9118
I0
I1
tp9119
Rp9120
(I3
S'|'
p9121
NNNI5
I1
I0
tp9122
bS'phone'
p9123
tp9124
Rp9125
ag2
(g3
(S'S5'
p9126
I0
I1
tp9127
Rp9128
(I3
S'|'
p9129
NNNI5
I1
I0
tp9130
bS'phone'
p9131
tp9132
Rp9133
ag2
(g3
(S'S7'
p9134
I0
I1
tp9135
Rp9136
(I3
S'|'
p9137
NNNI7
I1
I0
tp9138
bS'product'
p9139
tp9140
Rp9141
ag2
(g3
(S'S4'
p9142
I0
I1
tp9143
Rp9144
(I3
S'|'
p9145
NNNI4
I1
I0
tp9146
bS'cord'
p9147
tp9148
Rp9149
ag2
(g3
(S'S4'
p9150
I0
I1
tp9151
Rp9152
(I3
S'|'
p9153
NNNI4
I1
I0
tp9154
bS'cord'
p9155
tp9156
Rp9157
ag2
(g3
(S'S5'
p9158
I0
I1
tp9159
Rp9160
(I3
S'|'
p9161
NNNI5
I1
I0
tp9162
bS'phone'
p9163
tp9164
Rp9165
ag2
(g3
(S'S5'
p9166
I0
I1
tp9167
Rp9168
(I3
S'|'
p9169
NNNI5
I1
I0
tp9170
bS'phone'
p9171
tp9172
Rp9173
ag2
(g3
(S'S5'
p9174
I0
I1
tp9175
Rp9176
(I3
S'|'
p9177
NNNI5
I1
I0
tp9178
bS'phone'
p9179
tp9180
Rp9181
ag2
(g3
(S'S4'
p9182
I0
I1
tp9183
Rp9184
(I3
S'|'
p9185
NNNI4
I1
I0
tp9186
bS'cord'
p9187
tp9188
Rp9189
ag2
(g3
(S'S8'
p9190
I0
I1
tp9191
Rp9192
(I3
S'|'
p9193
NNNI8
I1
I0
tp9194
bS'division'
p9195
tp9196
Rp9197
ag2
(g3
(S'S5'
p9198
I0
I1
tp9199
Rp9200
(I3
S'|'
p9201
NNNI5
I1
I0
tp9202
bS'phone'
p9203
tp9204
Rp9205
ag2
(g3
(S'S4'
p9206
I0
I1
tp9207
Rp9208
(I3
S'|'
p9209
NNNI4
I1
I0
tp9210
bS'cord'
p9211
tp9212
Rp9213
ag2
(g3
(S'S5'
p9214
I0
I1
tp9215
Rp9216
(I3
S'|'
p9217
NNNI5
I1
I0
tp9218
bS'phone'
p9219
tp9220
Rp9221
ag2
(g3
(S'S8'
p9222
I0
I1
tp9223
Rp9224
(I3
S'|'
p9225
NNNI8
I1
I0
tp9226
bS'division'
p9227
tp9228
Rp9229
ag2
(g3
(S'S4'
p9230
I0
I1
tp9231
Rp9232
(I3
S'|'
p9233
NNNI4
I1
I0
tp9234
bS'cord'
p9235
tp9236
Rp9237
ag2
(g3
(S'S5'
p9238
I0
I1
tp9239
Rp9240
(I3
S'|'
p9241
NNNI5
I1
I0
tp9242
bS'phone'
p9243
tp9244
Rp9245
ag2
(g3
(S'S4'
p9246
I0
I1
tp9247
Rp9248
(I3
S'|'
p9249
NNNI4
I1
I0
tp9250
bS'cord'
p9251
tp9252
Rp9253
ag2
(g3
(S'S7'
p9254
I0
I1
tp9255
Rp9256
(I3
S'|'
p9257
NNNI7
I1
I0
tp9258
bS'product'
p9259
tp9260
Rp9261
ag2
(g3
(S'S4'
p9262
I0
I1
tp9263
Rp9264
(I3
S'|'
p9265
NNNI4
I1
I0
tp9266
bS'cord'
p9267
tp9268
Rp9269
ag2
(g3
(S'S7'
p9270
I0
I1
tp9271
Rp9272
(I3
S'|'
p9273
NNNI7
I1
I0
tp9274
bS'product'
p9275
tp9276
Rp9277
ag2
(g3
(S'S7'
p9278
I0
I1
tp9279
Rp9280
(I3
S'|'
p9281
NNNI7
I1
I0
tp9282
bS'product'
p9283
tp9284
Rp9285
ag2
(g3
(S'S7'
p9286
I0
I1
tp9287
Rp9288
(I3
S'|'
p9289
NNNI7
I1
I0
tp9290
bS'product'
p9291
tp9292
Rp9293
ag2
(g3
(S'S7'
p9294
I0
I1
tp9295
Rp9296
(I3
S'|'
p9297
NNNI7
I1
I0
tp9298
bS'product'
p9299
tp9300
Rp9301
ag2
(g3
(S'S4'
p9302
I0
I1
tp9303
Rp9304
(I3
S'|'
p9305
NNNI4
I1
I0
tp9306
bS'cord'
p9307
tp9308
Rp9309
ag2
(g3
(S'S8'
p9310
I0
I1
tp9311
Rp9312
(I3
S'|'
p9313
NNNI8
I1
I0
tp9314
bS'division'
p9315
tp9316
Rp9317
ag2
(g3
(S'S7'
p9318
I0
I1
tp9319
Rp9320
(I3
S'|'
p9321
NNNI7
I1
I0
tp9322
bS'product'
p9323
tp9324
Rp9325
ag2
(g3
(S'S4'
p9326
I0
I1
tp9327
Rp9328
(I3
S'|'
p9329
NNNI4
I1
I0
tp9330
bS'cord'
p9331
tp9332
Rp9333
ag2
(g3
(S'S4'
p9334
I0
I1
tp9335
Rp9336
(I3
S'|'
p9337
NNNI4
I1
I0
tp9338
bS'cord'
p9339
tp9340
Rp9341
ag2
(g3
(S'S4'
p9342
I0
I1
tp9343
Rp9344
(I3
S'|'
p9345
NNNI4
I1
I0
tp9346
bS'cord'
p9347
tp9348
Rp9349
ag2
(g3
(S'S7'
p9350
I0
I1
tp9351
Rp9352
(I3
S'|'
p9353
NNNI7
I1
I0
tp9354
bS'product'
p9355
tp9356
Rp9357
ag2
(g3
(S'S7'
p9358
I0
I1
tp9359
Rp9360
(I3
S'|'
p9361
NNNI7
I1
I0
tp9362
bS'product'
p9363
tp9364
Rp9365
ag2
(g3
(S'S4'
p9366
I0
I1
tp9367
Rp9368
(I3
S'|'
p9369
NNNI4
I1
I0
tp9370
bS'cord'
p9371
tp9372
Rp9373
ag2
(g3
(S'S5'
p9374
I0
I1
tp9375
Rp9376
(I3
S'|'
p9377
NNNI5
I1
I0
tp9378
bS'phone'
p9379
tp9380
Rp9381
ag2
(g3
(S'S7'
p9382
I0
I1
tp9383
Rp9384
(I3
S'|'
p9385
NNNI7
I1
I0
tp9386
bS'product'
p9387
tp9388
Rp9389
ag2
(g3
(S'S7'
p9390
I0
I1
tp9391
Rp9392
(I3
S'|'
p9393
NNNI7
I1
I0
tp9394
bS'product'
p9395
tp9396
Rp9397
ag2
(g3
(S'S5'
p9398
I0
I1
tp9399
Rp9400
(I3
S'|'
p9401
NNNI5
I1
I0
tp9402
bS'phone'
p9403
tp9404
Rp9405
ag2
(g3
(S'S5'
p9406
I0
I1
tp9407
Rp9408
(I3
S'|'
p9409
NNNI5
I1
I0
tp9410
bS'phone'
p9411
tp9412
Rp9413
ag2
(g3
(S'S7'
p9414
I0
I1
tp9415
Rp9416
(I3
S'|'
p9417
NNNI7
I1
I0
tp9418
bS'product'
p9419
tp9420
Rp9421
ag2
(g3
(S'S4'
p9422
I0
I1
tp9423
Rp9424
(I3
S'|'
p9425
NNNI4
I1
I0
tp9426
bS'cord'
p9427
tp9428
Rp9429
ag2
(g3
(S'S7'
p9430
I0
I1
tp9431
Rp9432
(I3
S'|'
p9433
NNNI7
I1
I0
tp9434
bS'product'
p9435
tp9436
Rp9437
ag2
(g3
(S'S5'
p9438
I0
I1
tp9439
Rp9440
(I3
S'|'
p9441
NNNI5
I1
I0
tp9442
bS'phone'
p9443
tp9444
Rp9445
ag2
(g3
(S'S4'
p9446
I0
I1
tp9447
Rp9448
(I3
S'|'
p9449
NNNI4
I1
I0
tp9450
bS'cord'
p9451
tp9452
Rp9453
ag2
(g3
(S'S4'
p9454
I0
I1
tp9455
Rp9456
(I3
S'|'
p9457
NNNI4
I1
I0
tp9458
bS'cord'
p9459
tp9460
Rp9461
ag2
(g3
(S'S7'
p9462
I0
I1
tp9463
Rp9464
(I3
S'|'
p9465
NNNI7
I1
I0
tp9466
bS'product'
p9467
tp9468
Rp9469
ag2
(g3
(S'S7'
p9470
I0
I1
tp9471
Rp9472
(I3
S'|'
p9473
NNNI7
I1
I0
tp9474
bS'product'
p9475
tp9476
Rp9477
ag2
(g3
(S'S4'
p9478
I0
I1
tp9479
Rp9480
(I3
S'|'
p9481
NNNI4
I1
I0
tp9482
bS'cord'
p9483
tp9484
Rp9485
ag2
(g3
(S'S5'
p9486
I0
I1
tp9487
Rp9488
(I3
S'|'
p9489
NNNI5
I1
I0
tp9490
bS'phone'
p9491
tp9492
Rp9493
ag2
(g3
(S'S7'
p9494
I0
I1
tp9495
Rp9496
(I3
S'|'
p9497
NNNI7
I1
I0
tp9498
bS'product'
p9499
tp9500
Rp9501
ag2
(g3
(S'S5'
p9502
I0
I1
tp9503
Rp9504
(I3
S'|'
p9505
NNNI5
I1
I0
tp9506
bS'phone'
p9507
tp9508
Rp9509
ag2
(g3
(S'S5'
p9510
I0
I1
tp9511
Rp9512
(I3
S'|'
p9513
NNNI5
I1
I0
tp9514
bS'phone'
p9515
tp9516
Rp9517
ag2
(g3
(S'S7'
p9518
I0
I1
tp9519
Rp9520
(I3
S'|'
p9521
NNNI7
I1
I0
tp9522
bS'product'
p9523
tp9524
Rp9525
ag2
(g3
(S'S7'
p9526
I0
I1
tp9527
Rp9528
(I3
S'|'
p9529
NNNI7
I1
I0
tp9530
bS'product'
p9531
tp9532
Rp9533
ag2
(g3
(S'S7'
p9534
I0
I1
tp9535
Rp9536
(I3
S'|'
p9537
NNNI7
I1
I0
tp9538
bS'product'
p9539
tp9540
Rp9541
ag2
(g3
(S'S5'
p9542
I0
I1
tp9543
Rp9544
(I3
S'|'
p9545
NNNI5
I1
I0
tp9546
bS'phone'
p9547
tp9548
Rp9549
ag2
(g3
(S'S7'
p9550
I0
I1
tp9551
Rp9552
(I3
S'|'
p9553
NNNI7
I1
I0
tp9554
bS'product'
p9555
tp9556
Rp9557
ag2
(g3
(S'S8'
p9558
I0
I1
tp9559
Rp9560
(I3
S'|'
p9561
NNNI8
I1
I0
tp9562
bS'division'
p9563
tp9564
Rp9565
ag2
(g3
(S'S7'
p9566
I0
I1
tp9567
Rp9568
(I3
S'|'
p9569
NNNI7
I1
I0
tp9570
bS'product'
p9571
tp9572
Rp9573
ag2
(g3
(S'S4'
p9574
I0
I1
tp9575
Rp9576
(I3
S'|'
p9577
NNNI4
I1
I0
tp9578
bS'cord'
p9579
tp9580
Rp9581
ag2
(g3
(S'S4'
p9582
I0
I1
tp9583
Rp9584
(I3
S'|'
p9585
NNNI4
I1
I0
tp9586
bS'cord'
p9587
tp9588
Rp9589
ag2
(g3
(S'S4'
p9590
I0
I1
tp9591
Rp9592
(I3
S'|'
p9593
NNNI4
I1
I0
tp9594
bS'cord'
p9595
tp9596
Rp9597
ag2
(g3
(S'S4'
p9598
I0
I1
tp9599
Rp9600
(I3
S'|'
p9601
NNNI4
I1
I0
tp9602
bS'cord'
p9603
tp9604
Rp9605
ag2
(g3
(S'S4'
p9606
I0
I1
tp9607
Rp9608
(I3
S'|'
p9609
NNNI4
I1
I0
tp9610
bS'cord'
p9611
tp9612
Rp9613
ag2
(g3
(S'S8'
p9614
I0
I1
tp9615
Rp9616
(I3
S'|'
p9617
NNNI8
I1
I0
tp9618
bS'division'
p9619
tp9620
Rp9621
ag2
(g3
(S'S4'
p9622
I0
I1
tp9623
Rp9624
(I3
S'|'
p9625
NNNI4
I1
I0
tp9626
bS'cord'
p9627
tp9628
Rp9629
ag2
(g3
(S'S4'
p9630
I0
I1
tp9631
Rp9632
(I3
S'|'
p9633
NNNI4
I1
I0
tp9634
bS'cord'
p9635
tp9636
Rp9637
ag2
(g3
(S'S4'
p9638
I0
I1
tp9639
Rp9640
(I3
S'|'
p9641
NNNI4
I1
I0
tp9642
bS'cord'
p9643
tp9644
Rp9645
ag2
(g3
(S'S5'
p9646
I0
I1
tp9647
Rp9648
(I3
S'|'
p9649
NNNI5
I1
I0
tp9650
bS'phone'
p9651
tp9652
Rp9653
ag2
(g3
(S'S5'
p9654
I0
I1
tp9655
Rp9656
(I3
S'|'
p9657
NNNI5
I1
I0
tp9658
bS'phone'
p9659
tp9660
Rp9661
ag2
(g3
(S'S4'
p9662
I0
I1
tp9663
Rp9664
(I3
S'|'
p9665
NNNI4
I1
I0
tp9666
bS'cord'
p9667
tp9668
Rp9669
ag2
(g3
(S'S4'
p9670
I0
I1
tp9671
Rp9672
(I3
S'|'
p9673
NNNI4
I1
I0
tp9674
bS'cord'
p9675
tp9676
Rp9677
ag2
(g3
(S'S8'
p9678
I0
I1
tp9679
Rp9680
(I3
S'|'
p9681
NNNI8
I1
I0
tp9682
bS'division'
p9683
tp9684
Rp9685
ag2
(g3
(S'S5'
p9686
I0
I1
tp9687
Rp9688
(I3
S'|'
p9689
NNNI5
I1
I0
tp9690
bS'phone'
p9691
tp9692
Rp9693
ag2
(g3
(S'S7'
p9694
I0
I1
tp9695
Rp9696
(I3
S'|'
p9697
NNNI7
I1
I0
tp9698
bS'product'
p9699
tp9700
Rp9701
ag2
(g3
(S'S8'
p9702
I0
I1
tp9703
Rp9704
(I3
S'|'
p9705
NNNI8
I1
I0
tp9706
bS'division'
p9707
tp9708
Rp9709
ag2
(g3
(S'S4'
p9710
I0
I1
tp9711
Rp9712
(I3
S'|'
p9713
NNNI4
I1
I0
tp9714
bS'cord'
p9715
tp9716
Rp9717
ag2
(g3
(S'S5'
p9718
I0
I1
tp9719
Rp9720
(I3
S'|'
p9721
NNNI5
I1
I0
tp9722
bS'phone'
p9723
tp9724
Rp9725
ag2
(g3
(S'S5'
p9726
I0
I1
tp9727
Rp9728
(I3
S'|'
p9729
NNNI5
I1
I0
tp9730
bS'phone'
p9731
tp9732
Rp9733
ag2
(g3
(S'S4'
p9734
I0
I1
tp9735
Rp9736
(I3
S'|'
p9737
NNNI4
I1
I0
tp9738
bS'cord'
p9739
tp9740
Rp9741
ag2
(g3
(S'S4'
p9742
I0
I1
tp9743
Rp9744
(I3
S'|'
p9745
NNNI4
I1
I0
tp9746
bS'text'
p9747
tp9748
Rp9749
ag2
(g3
(S'S4'
p9750
I0
I1
tp9751
Rp9752
(I3
S'|'
p9753
NNNI4
I1
I0
tp9754
bS'cord'
p9755
tp9756
Rp9757
ag2
(g3
(S'S4'
p9758
I0
I1
tp9759
Rp9760
(I3
S'|'
p9761
NNNI4
I1
I0
tp9762
bS'cord'
p9763
tp9764
Rp9765
ag2
(g3
(S'S4'
p9766
I0
I1
tp9767
Rp9768
(I3
S'|'
p9769
NNNI4
I1
I0
tp9770
bS'cord'
p9771
tp9772
Rp9773
ag2
(g3
(S'S5'
p9774
I0
I1
tp9775
Rp9776
(I3
S'|'
p9777
NNNI5
I1
I0
tp9778
bS'phone'
p9779
tp9780
Rp9781
ag2
(g3
(S'S8'
p9782
I0
I1
tp9783
Rp9784
(I3
S'|'
p9785
NNNI8
I1
I0
tp9786
bS'division'
p9787
tp9788
Rp9789
ag2
(g3
(S'S5'
p9790
I0
I1
tp9791
Rp9792
(I3
S'|'
p9793
NNNI5
I1
I0
tp9794
bS'phone'
p9795
tp9796
Rp9797
ag2
(g3
(S'S4'
p9798
I0
I1
tp9799
Rp9800
(I3
S'|'
p9801
NNNI4
I1
I0
tp9802
bS'cord'
p9803
tp9804
Rp9805
ag2
(g3
(S'S4'
p9806
I0
I1
tp9807
Rp9808
(I3
S'|'
p9809
NNNI4
I1
I0
tp9810
bS'cord'
p9811
tp9812
Rp9813
ag2
(g3
(S'S8'
p9814
I0
I1
tp9815
Rp9816
(I3
S'|'
p9817
NNNI8
I1
I0
tp9818
bS'division'
p9819
tp9820
Rp9821
ag2
(g3
(S'S4'
p9822
I0
I1
tp9823
Rp9824
(I3
S'|'
p9825
NNNI4
I1
I0
tp9826
bS'cord'
p9827
tp9828
Rp9829
ag2
(g3
(S'S4'
p9830
I0
I1
tp9831
Rp9832
(I3
S'|'
p9833
NNNI4
I1
I0
tp9834
bS'cord'
p9835
tp9836
Rp9837
ag2
(g3
(S'S4'
p9838
I0
I1
tp9839
Rp9840
(I3
S'|'
p9841
NNNI4
I1
I0
tp9842
bS'cord'
p9843
tp9844
Rp9845
ag2
(g3
(S'S4'
p9846
I0
I1
tp9847
Rp9848
(I3
S'|'
p9849
NNNI4
I1
I0
tp9850
bS'cord'
p9851
tp9852
Rp9853
ag2
(g3
(S'S8'
p9854
I0
I1
tp9855
Rp9856
(I3
S'|'
p9857
NNNI8
I1
I0
tp9858
bS'division'
p9859
tp9860
Rp9861
ag2
(g3
(S'S5'
p9862
I0
I1
tp9863
Rp9864
(I3
S'|'
p9865
NNNI5
I1
I0
tp9866
bS'phone'
p9867
tp9868
Rp9869
ag2
(g3
(S'S5'
p9870
I0
I1
tp9871
Rp9872
(I3
S'|'
p9873
NNNI5
I1
I0
tp9874
bS'phone'
p9875
tp9876
Rp9877
ag2
(g3
(S'S8'
p9878
I0
I1
tp9879
Rp9880
(I3
S'|'
p9881
NNNI8
I1
I0
tp9882
bS'division'
p9883
tp9884
Rp9885
ag2
(g3
(S'S5'
p9886
I0
I1
tp9887
Rp9888
(I3
S'|'
p9889
NNNI5
I1
I0
tp9890
bS'phone'
p9891
tp9892
Rp9893
ag2
(g3
(S'S5'
p9894
I0
I1
tp9895
Rp9896
(I3
S'|'
p9897
NNNI5
I1
I0
tp9898
bS'phone'
p9899
tp9900
Rp9901
ag2
(g3
(S'S8'
p9902
I0
I1
tp9903
Rp9904
(I3
S'|'
p9905
NNNI8
I1
I0
tp9906
bS'division'
p9907
tp9908
Rp9909
ag2
(g3
(S'S5'
p9910
I0
I1
tp9911
Rp9912
(I3
S'|'
p9913
NNNI5
I1
I0
tp9914
bS'phone'
p9915
tp9916
Rp9917
ag2
(g3
(S'S4'
p9918
I0
I1
tp9919
Rp9920
(I3
S'|'
p9921
NNNI4
I1
I0
tp9922
bS'cord'
p9923
tp9924
Rp9925
ag2
(g3
(S'S4'
p9926
I0
I1
tp9927
Rp9928
(I3
S'|'
p9929
NNNI4
I1
I0
tp9930
bS'cord'
p9931
tp9932
Rp9933
ag2
(g3
(S'S8'
p9934
I0
I1
tp9935
Rp9936
(I3
S'|'
p9937
NNNI8
I1
I0
tp9938
bS'division'
p9939
tp9940
Rp9941
ag2
(g3
(S'S4'
p9942
I0
I1
tp9943
Rp9944
(I3
S'|'
p9945
NNNI4
I1
I0
tp9946
bS'cord'
p9947
tp9948
Rp9949
aa.