(lp0
(lp1
cnumpy.core.multiarray
scalar
p2
(cnumpy
dtype
p3
(S'S7'
p4
I0
I1
tp5
Rp6
(I3
S'|'
p7
NNNI7
I1
I0
tp8
bS'SERVE10'
p9
tp10
Rp11
ag2
(g3
(S'S7'
p12
I0
I1
tp13
Rp14
(I3
S'|'
p15
NNNI7
I1
I0
tp16
bS'SERVE10'
p17
tp18
Rp19
ag2
(g3
(S'S7'
p20
I0
I1
tp21
Rp22
(I3
S'|'
p23
NNNI7
I1
I0
tp24
bS'SERVE10'
p25
tp26
Rp27
ag2
(g3
(S'S7'
p28
I0
I1
tp29
Rp30
(I3
S'|'
p31
NNNI7
I1
I0
tp32
bS'SERVE10'
p33
tp34
Rp35
ag2
(g3
(S'S7'
p36
I0
I1
tp37
Rp38
(I3
S'|'
p39
NNNI7
I1
I0
tp40
bS'SERVE10'
p41
tp42
Rp43
ag2
(g3
(S'S7'
p44
I0
I1
tp45
Rp46
(I3
S'|'
p47
NNNI7
I1
I0
tp48
bS'SERVE10'
p49
tp50
Rp51
ag2
(g3
(S'S7'
p52
I0
I1
tp53
Rp54
(I3
S'|'
p55
NNNI7
I1
I0
tp56
bS'SERVE10'
p57
tp58
Rp59
ag2
(g3
(S'S7'
p60
I0
I1
tp61
Rp62
(I3
S'|'
p63
NNNI7
I1
I0
tp64
bS'SERVE10'
p65
tp66
Rp67
ag2
(g3
(S'S7'
p68
I0
I1
tp69
Rp70
(I3
S'|'
p71
NNNI7
I1
I0
tp72
bS'SERVE10'
p73
tp74
Rp75
ag2
(g3
(S'S7'
p76
I0
I1
tp77
Rp78
(I3
S'|'
p79
NNNI7
I1
I0
tp80
bS'SERVE10'
p81
tp82
Rp83
ag2
(g3
(S'S7'
p84
I0
I1
tp85
Rp86
(I3
S'|'
p87
NNNI7
I1
I0
tp88
bS'SERVE10'
p89
tp90
Rp91
ag2
(g3
(S'S7'
p92
I0
I1
tp93
Rp94
(I3
S'|'
p95
NNNI7
I1
I0
tp96
bS'SERVE10'
p97
tp98
Rp99
ag2
(g3
(S'S6'
p100
I0
I1
tp101
Rp102
(I3
S'|'
p103
NNNI6
I1
I0
tp104
bS'SERVE2'
p105
tp106
Rp107
ag2
(g3
(S'S7'
p108
I0
I1
tp109
Rp110
(I3
S'|'
p111
NNNI7
I1
I0
tp112
bS'SERVE10'
p113
tp114
Rp115
ag2
(g3
(S'S7'
p116
I0
I1
tp117
Rp118
(I3
S'|'
p119
NNNI7
I1
I0
tp120
bS'SERVE10'
p121
tp122
Rp123
ag2
(g3
(S'S7'
p124
I0
I1
tp125
Rp126
(I3
S'|'
p127
NNNI7
I1
I0
tp128
bS'SERVE10'
p129
tp130
Rp131
ag2
(g3
(S'S7'
p132
I0
I1
tp133
Rp134
(I3
S'|'
p135
NNNI7
I1
I0
tp136
bS'SERVE10'
p137
tp138
Rp139
ag2
(g3
(S'S7'
p140
I0
I1
tp141
Rp142
(I3
S'|'
p143
NNNI7
I1
I0
tp144
bS'SERVE10'
p145
tp146
Rp147
ag2
(g3
(S'S7'
p148
I0
I1
tp149
Rp150
(I3
S'|'
p151
NNNI7
I1
I0
tp152
bS'SERVE10'
p153
tp154
Rp155
ag2
(g3
(S'S7'
p156
I0
I1
tp157
Rp158
(I3
S'|'
p159
NNNI7
I1
I0
tp160
bS'SERVE10'
p161
tp162
Rp163
ag2
(g3
(S'S7'
p164
I0
I1
tp165
Rp166
(I3
S'|'
p167
NNNI7
I1
I0
tp168
bS'SERVE10'
p169
tp170
Rp171
ag2
(g3
(S'S7'
p172
I0
I1
tp173
Rp174
(I3
S'|'
p175
NNNI7
I1
I0
tp176
bS'SERVE10'
p177
tp178
Rp179
ag2
(g3
(S'S7'
p180
I0
I1
tp181
Rp182
(I3
S'|'
p183
NNNI7
I1
I0
tp184
bS'SERVE12'
p185
tp186
Rp187
ag2
(g3
(S'S7'
p188
I0
I1
tp189
Rp190
(I3
S'|'
p191
NNNI7
I1
I0
tp192
bS'SERVE10'
p193
tp194
Rp195
ag2
(g3
(S'S7'
p196
I0
I1
tp197
Rp198
(I3
S'|'
p199
NNNI7
I1
I0
tp200
bS'SERVE10'
p201
tp202
Rp203
ag2
(g3
(S'S7'
p204
I0
I1
tp205
Rp206
(I3
S'|'
p207
NNNI7
I1
I0
tp208
bS'SERVE10'
p209
tp210
Rp211
ag2
(g3
(S'S7'
p212
I0
I1
tp213
Rp214
(I3
S'|'
p215
NNNI7
I1
I0
tp216
bS'SERVE10'
p217
tp218
Rp219
ag2
(g3
(S'S7'
p220
I0
I1
tp221
Rp222
(I3
S'|'
p223
NNNI7
I1
I0
tp224
bS'SERVE10'
p225
tp226
Rp227
ag2
(g3
(S'S7'
p228
I0
I1
tp229
Rp230
(I3
S'|'
p231
NNNI7
I1
I0
tp232
bS'SERVE10'
p233
tp234
Rp235
ag2
(g3
(S'S7'
p236
I0
I1
tp237
Rp238
(I3
S'|'
p239
NNNI7
I1
I0
tp240
bS'SERVE10'
p241
tp242
Rp243
ag2
(g3
(S'S7'
p244
I0
I1
tp245
Rp246
(I3
S'|'
p247
NNNI7
I1
I0
tp248
bS'SERVE10'
p249
tp250
Rp251
ag2
(g3
(S'S7'
p252
I0
I1
tp253
Rp254
(I3
S'|'
p255
NNNI7
I1
I0
tp256
bS'SERVE10'
p257
tp258
Rp259
ag2
(g3
(S'S7'
p260
I0
I1
tp261
Rp262
(I3
S'|'
p263
NNNI7
I1
I0
tp264
bS'SERVE10'
p265
tp266
Rp267
ag2
(g3
(S'S7'
p268
I0
I1
tp269
Rp270
(I3
S'|'
p271
NNNI7
I1
I0
tp272
bS'SERVE10'
p273
tp274
Rp275
ag2
(g3
(S'S7'
p276
I0
I1
tp277
Rp278
(I3
S'|'
p279
NNNI7
I1
I0
tp280
bS'SERVE10'
p281
tp282
Rp283
ag2
(g3
(S'S6'
p284
I0
I1
tp285
Rp286
(I3
S'|'
p287
NNNI6
I1
I0
tp288
bS'SERVE6'
p289
tp290
Rp291
ag2
(g3
(S'S7'
p292
I0
I1
tp293
Rp294
(I3
S'|'
p295
NNNI7
I1
I0
tp296
bS'SERVE10'
p297
tp298
Rp299
ag2
(g3
(S'S7'
p300
I0
I1
tp301
Rp302
(I3
S'|'
p303
NNNI7
I1
I0
tp304
bS'SERVE10'
p305
tp306
Rp307
ag2
(g3
(S'S7'
p308
I0
I1
tp309
Rp310
(I3
S'|'
p311
NNNI7
I1
I0
tp312
bS'SERVE10'
p313
tp314
Rp315
ag2
(g3
(S'S7'
p316
I0
I1
tp317
Rp318
(I3
S'|'
p319
NNNI7
I1
I0
tp320
bS'SERVE10'
p321
tp322
Rp323
ag2
(g3
(S'S7'
p324
I0
I1
tp325
Rp326
(I3
S'|'
p327
NNNI7
I1
I0
tp328
bS'SERVE10'
p329
tp330
Rp331
ag2
(g3
(S'S7'
p332
I0
I1
tp333
Rp334
(I3
S'|'
p335
NNNI7
I1
I0
tp336
bS'SERVE10'
p337
tp338
Rp339
ag2
(g3
(S'S7'
p340
I0
I1
tp341
Rp342
(I3
S'|'
p343
NNNI7
I1
I0
tp344
bS'SERVE10'
p345
tp346
Rp347
ag2
(g3
(S'S7'
p348
I0
I1
tp349
Rp350
(I3
S'|'
p351
NNNI7
I1
I0
tp352
bS'SERVE10'
p353
tp354
Rp355
ag2
(g3
(S'S7'
p356
I0
I1
tp357
Rp358
(I3
S'|'
p359
NNNI7
I1
I0
tp360
bS'SERVE10'
p361
tp362
Rp363
ag2
(g3
(S'S7'
p364
I0
I1
tp365
Rp366
(I3
S'|'
p367
NNNI7
I1
I0
tp368
bS'SERVE10'
p369
tp370
Rp371
ag2
(g3
(S'S7'
p372
I0
I1
tp373
Rp374
(I3
S'|'
p375
NNNI7
I1
I0
tp376
bS'SERVE10'
p377
tp378
Rp379
ag2
(g3
(S'S7'
p380
I0
I1
tp381
Rp382
(I3
S'|'
p383
NNNI7
I1
I0
tp384
bS'SERVE10'
p385
tp386
Rp387
ag2
(g3
(S'S7'
p388
I0
I1
tp389
Rp390
(I3
S'|'
p391
NNNI7
I1
I0
tp392
bS'SERVE10'
p393
tp394
Rp395
ag2
(g3
(S'S7'
p396
I0
I1
tp397
Rp398
(I3
S'|'
p399
NNNI7
I1
I0
tp400
bS'SERVE10'
p401
tp402
Rp403
ag2
(g3
(S'S7'
p404
I0
I1
tp405
Rp406
(I3
S'|'
p407
NNNI7
I1
I0
tp408
bS'SERVE10'
p409
tp410
Rp411
ag2
(g3
(S'S7'
p412
I0
I1
tp413
Rp414
(I3
S'|'
p415
NNNI7
I1
I0
tp416
bS'SERVE10'
p417
tp418
Rp419
ag2
(g3
(S'S7'
p420
I0
I1
tp421
Rp422
(I3
S'|'
p423
NNNI7
I1
I0
tp424
bS'SERVE10'
p425
tp426
Rp427
ag2
(g3
(S'S7'
p428
I0
I1
tp429
Rp430
(I3
S'|'
p431
NNNI7
I1
I0
tp432
bS'SERVE10'
p433
tp434
Rp435
ag2
(g3
(S'S7'
p436
I0
I1
tp437
Rp438
(I3
S'|'
p439
NNNI7
I1
I0
tp440
bS'SERVE10'
p441
tp442
Rp443
ag2
(g3
(S'S7'
p444
I0
I1
tp445
Rp446
(I3
S'|'
p447
NNNI7
I1
I0
tp448
bS'SERVE10'
p449
tp450
Rp451
ag2
(g3
(S'S7'
p452
I0
I1
tp453
Rp454
(I3
S'|'
p455
NNNI7
I1
I0
tp456
bS'SERVE10'
p457
tp458
Rp459
ag2
(g3
(S'S7'
p460
I0
I1
tp461
Rp462
(I3
S'|'
p463
NNNI7
I1
I0
tp464
bS'SERVE10'
p465
tp466
Rp467
ag2
(g3
(S'S7'
p468
I0
I1
tp469
Rp470
(I3
S'|'
p471
NNNI7
I1
I0
tp472
bS'SERVE12'
p473
tp474
Rp475
ag2
(g3
(S'S7'
p476
I0
I1
tp477
Rp478
(I3
S'|'
p479
NNNI7
I1
I0
tp480
bS'SERVE10'
p481
tp482
Rp483
ag2
(g3
(S'S7'
p484
I0
I1
tp485
Rp486
(I3
S'|'
p487
NNNI7
I1
I0
tp488
bS'SERVE10'
p489
tp490
Rp491
ag2
(g3
(S'S7'
p492
I0
I1
tp493
Rp494
(I3
S'|'
p495
NNNI7
I1
I0
tp496
bS'SERVE10'
p497
tp498
Rp499
ag2
(g3
(S'S7'
p500
I0
I1
tp501
Rp502
(I3
S'|'
p503
NNNI7
I1
I0
tp504
bS'SERVE10'
p505
tp506
Rp507
ag2
(g3
(S'S7'
p508
I0
I1
tp509
Rp510
(I3
S'|'
p511
NNNI7
I1
I0
tp512
bS'SERVE10'
p513
tp514
Rp515
ag2
(g3
(S'S7'
p516
I0
I1
tp517
Rp518
(I3
S'|'
p519
NNNI7
I1
I0
tp520
bS'SERVE10'
p521
tp522
Rp523
ag2
(g3
(S'S7'
p524
I0
I1
tp525
Rp526
(I3
S'|'
p527
NNNI7
I1
I0
tp528
bS'SERVE10'
p529
tp530
Rp531
ag2
(g3
(S'S7'
p532
I0
I1
tp533
Rp534
(I3
S'|'
p535
NNNI7
I1
I0
tp536
bS'SERVE10'
p537
tp538
Rp539
ag2
(g3
(S'S7'
p540
I0
I1
tp541
Rp542
(I3
S'|'
p543
NNNI7
I1
I0
tp544
bS'SERVE10'
p545
tp546
Rp547
ag2
(g3
(S'S7'
p548
I0
I1
tp549
Rp550
(I3
S'|'
p551
NNNI7
I1
I0
tp552
bS'SERVE10'
p553
tp554
Rp555
ag2
(g3
(S'S7'
p556
I0
I1
tp557
Rp558
(I3
S'|'
p559
NNNI7
I1
I0
tp560
bS'SERVE10'
p561
tp562
Rp563
ag2
(g3
(S'S7'
p564
I0
I1
tp565
Rp566
(I3
S'|'
p567
NNNI7
I1
I0
tp568
bS'SERVE10'
p569
tp570
Rp571
ag2
(g3
(S'S7'
p572
I0
I1
tp573
Rp574
(I3
S'|'
p575
NNNI7
I1
I0
tp576
bS'SERVE10'
p577
tp578
Rp579
ag2
(g3
(S'S7'
p580
I0
I1
tp581
Rp582
(I3
S'|'
p583
NNNI7
I1
I0
tp584
bS'SERVE10'
p585
tp586
Rp587
ag2
(g3
(S'S7'
p588
I0
I1
tp589
Rp590
(I3
S'|'
p591
NNNI7
I1
I0
tp592
bS'SERVE10'
p593
tp594
Rp595
ag2
(g3
(S'S7'
p596
I0
I1
tp597
Rp598
(I3
S'|'
p599
NNNI7
I1
I0
tp600
bS'SERVE10'
p601
tp602
Rp603
ag2
(g3
(S'S7'
p604
I0
I1
tp605
Rp606
(I3
S'|'
p607
NNNI7
I1
I0
tp608
bS'SERVE10'
p609
tp610
Rp611
ag2
(g3
(S'S7'
p612
I0
I1
tp613
Rp614
(I3
S'|'
p615
NNNI7
I1
I0
tp616
bS'SERVE10'
p617
tp618
Rp619
ag2
(g3
(S'S7'
p620
I0
I1
tp621
Rp622
(I3
S'|'
p623
NNNI7
I1
I0
tp624
bS'SERVE10'
p625
tp626
Rp627
ag2
(g3
(S'S7'
p628
I0
I1
tp629
Rp630
(I3
S'|'
p631
NNNI7
I1
I0
tp632
bS'SERVE10'
p633
tp634
Rp635
ag2
(g3
(S'S7'
p636
I0
I1
tp637
Rp638
(I3
S'|'
p639
NNNI7
I1
I0
tp640
bS'SERVE10'
p641
tp642
Rp643
ag2
(g3
(S'S7'
p644
I0
I1
tp645
Rp646
(I3
S'|'
p647
NNNI7
I1
I0
tp648
bS'SERVE10'
p649
tp650
Rp651
ag2
(g3
(S'S7'
p652
I0
I1
tp653
Rp654
(I3
S'|'
p655
NNNI7
I1
I0
tp656
bS'SERVE10'
p657
tp658
Rp659
ag2
(g3
(S'S7'
p660
I0
I1
tp661
Rp662
(I3
S'|'
p663
NNNI7
I1
I0
tp664
bS'SERVE10'
p665
tp666
Rp667
ag2
(g3
(S'S7'
p668
I0
I1
tp669
Rp670
(I3
S'|'
p671
NNNI7
I1
I0
tp672
bS'SERVE10'
p673
tp674
Rp675
ag2
(g3
(S'S7'
p676
I0
I1
tp677
Rp678
(I3
S'|'
p679
NNNI7
I1
I0
tp680
bS'SERVE10'
p681
tp682
Rp683
ag2
(g3
(S'S7'
p684
I0
I1
tp685
Rp686
(I3
S'|'
p687
NNNI7
I1
I0
tp688
bS'SERVE10'
p689
tp690
Rp691
ag2
(g3
(S'S7'
p692
I0
I1
tp693
Rp694
(I3
S'|'
p695
NNNI7
I1
I0
tp696
bS'SERVE10'
p697
tp698
Rp699
ag2
(g3
(S'S7'
p700
I0
I1
tp701
Rp702
(I3
S'|'
p703
NNNI7
I1
I0
tp704
bS'SERVE10'
p705
tp706
Rp707
ag2
(g3
(S'S7'
p708
I0
I1
tp709
Rp710
(I3
S'|'
p711
NNNI7
I1
I0
tp712
bS'SERVE10'
p713
tp714
Rp715
ag2
(g3
(S'S7'
p716
I0
I1
tp717
Rp718
(I3
S'|'
p719
NNNI7
I1
I0
tp720
bS'SERVE10'
p721
tp722
Rp723
ag2
(g3
(S'S7'
p724
I0
I1
tp725
Rp726
(I3
S'|'
p727
NNNI7
I1
I0
tp728
bS'SERVE10'
p729
tp730
Rp731
ag2
(g3
(S'S7'
p732
I0
I1
tp733
Rp734
(I3
S'|'
p735
NNNI7
I1
I0
tp736
bS'SERVE10'
p737
tp738
Rp739
ag2
(g3
(S'S7'
p740
I0
I1
tp741
Rp742
(I3
S'|'
p743
NNNI7
I1
I0
tp744
bS'SERVE10'
p745
tp746
Rp747
ag2
(g3
(S'S7'
p748
I0
I1
tp749
Rp750
(I3
S'|'
p751
NNNI7
I1
I0
tp752
bS'SERVE10'
p753
tp754
Rp755
ag2
(g3
(S'S7'
p756
I0
I1
tp757
Rp758
(I3
S'|'
p759
NNNI7
I1
I0
tp760
bS'SERVE10'
p761
tp762
Rp763
ag2
(g3
(S'S7'
p764
I0
I1
tp765
Rp766
(I3
S'|'
p767
NNNI7
I1
I0
tp768
bS'SERVE10'
p769
tp770
Rp771
ag2
(g3
(S'S7'
p772
I0
I1
tp773
Rp774
(I3
S'|'
p775
NNNI7
I1
I0
tp776
bS'SERVE10'
p777
tp778
Rp779
ag2
(g3
(S'S7'
p780
I0
I1
tp781
Rp782
(I3
S'|'
p783
NNNI7
I1
I0
tp784
bS'SERVE10'
p785
tp786
Rp787
ag2
(g3
(S'S7'
p788
I0
I1
tp789
Rp790
(I3
S'|'
p791
NNNI7
I1
I0
tp792
bS'SERVE10'
p793
tp794
Rp795
ag2
(g3
(S'S7'
p796
I0
I1
tp797
Rp798
(I3
S'|'
p799
NNNI7
I1
I0
tp800
bS'SERVE10'
p801
tp802
Rp803
ag2
(g3
(S'S7'
p804
I0
I1
tp805
Rp806
(I3
S'|'
p807
NNNI7
I1
I0
tp808
bS'SERVE10'
p809
tp810
Rp811
ag2
(g3
(S'S7'
p812
I0
I1
tp813
Rp814
(I3
S'|'
p815
NNNI7
I1
I0
tp816
bS'SERVE10'
p817
tp818
Rp819
ag2
(g3
(S'S7'
p820
I0
I1
tp821
Rp822
(I3
S'|'
p823
NNNI7
I1
I0
tp824
bS'SERVE10'
p825
tp826
Rp827
ag2
(g3
(S'S7'
p828
I0
I1
tp829
Rp830
(I3
S'|'
p831
NNNI7
I1
I0
tp832
bS'SERVE10'
p833
tp834
Rp835
ag2
(g3
(S'S7'
p836
I0
I1
tp837
Rp838
(I3
S'|'
p839
NNNI7
I1
I0
tp840
bS'SERVE10'
p841
tp842
Rp843
ag2
(g3
(S'S7'
p844
I0
I1
tp845
Rp846
(I3
S'|'
p847
NNNI7
I1
I0
tp848
bS'SERVE10'
p849
tp850
Rp851
ag2
(g3
(S'S7'
p852
I0
I1
tp853
Rp854
(I3
S'|'
p855
NNNI7
I1
I0
tp856
bS'SERVE10'
p857
tp858
Rp859
ag2
(g3
(S'S7'
p860
I0
I1
tp861
Rp862
(I3
S'|'
p863
NNNI7
I1
I0
tp864
bS'SERVE10'
p865
tp866
Rp867
ag2
(g3
(S'S7'
p868
I0
I1
tp869
Rp870
(I3
S'|'
p871
NNNI7
I1
I0
tp872
bS'SERVE10'
p873
tp874
Rp875
ag2
(g3
(S'S7'
p876
I0
I1
tp877
Rp878
(I3
S'|'
p879
NNNI7
I1
I0
tp880
bS'SERVE10'
p881
tp882
Rp883
ag2
(g3
(S'S7'
p884
I0
I1
tp885
Rp886
(I3
S'|'
p887
NNNI7
I1
I0
tp888
bS'SERVE10'
p889
tp890
Rp891
ag2
(g3
(S'S7'
p892
I0
I1
tp893
Rp894
(I3
S'|'
p895
NNNI7
I1
I0
tp896
bS'SERVE10'
p897
tp898
Rp899
ag2
(g3
(S'S7'
p900
I0
I1
tp901
Rp902
(I3
S'|'
p903
NNNI7
I1
I0
tp904
bS'SERVE10'
p905
tp906
Rp907
ag2
(g3
(S'S7'
p908
I0
I1
tp909
Rp910
(I3
S'|'
p911
NNNI7
I1
I0
tp912
bS'SERVE10'
p913
tp914
Rp915
ag2
(g3
(S'S7'
p916
I0
I1
tp917
Rp918
(I3
S'|'
p919
NNNI7
I1
I0
tp920
bS'SERVE10'
p921
tp922
Rp923
ag2
(g3
(S'S7'
p924
I0
I1
tp925
Rp926
(I3
S'|'
p927
NNNI7
I1
I0
tp928
bS'SERVE10'
p929
tp930
Rp931
ag2
(g3
(S'S7'
p932
I0
I1
tp933
Rp934
(I3
S'|'
p935
NNNI7
I1
I0
tp936
bS'SERVE10'
p937
tp938
Rp939
ag2
(g3
(S'S7'
p940
I0
I1
tp941
Rp942
(I3
S'|'
p943
NNNI7
I1
I0
tp944
bS'SERVE10'
p945
tp946
Rp947
ag2
(g3
(S'S7'
p948
I0
I1
tp949
Rp950
(I3
S'|'
p951
NNNI7
I1
I0
tp952
bS'SERVE10'
p953
tp954
Rp955
ag2
(g3
(S'S7'
p956
I0
I1
tp957
Rp958
(I3
S'|'
p959
NNNI7
I1
I0
tp960
bS'SERVE10'
p961
tp962
Rp963
ag2
(g3
(S'S7'
p964
I0
I1
tp965
Rp966
(I3
S'|'
p967
NNNI7
I1
I0
tp968
bS'SERVE10'
p969
tp970
Rp971
ag2
(g3
(S'S7'
p972
I0
I1
tp973
Rp974
(I3
S'|'
p975
NNNI7
I1
I0
tp976
bS'SERVE10'
p977
tp978
Rp979
ag2
(g3
(S'S7'
p980
I0
I1
tp981
Rp982
(I3
S'|'
p983
NNNI7
I1
I0
tp984
bS'SERVE10'
p985
tp986
Rp987
ag2
(g3
(S'S7'
p988
I0
I1
tp989
Rp990
(I3
S'|'
p991
NNNI7
I1
I0
tp992
bS'SERVE10'
p993
tp994
Rp995
ag2
(g3
(S'S7'
p996
I0
I1
tp997
Rp998
(I3
S'|'
p999
NNNI7
I1
I0
tp1000
bS'SERVE10'
p1001
tp1002
Rp1003
ag2
(g3
(S'S7'
p1004
I0
I1
tp1005
Rp1006
(I3
S'|'
p1007
NNNI7
I1
I0
tp1008
bS'SERVE10'
p1009
tp1010
Rp1011
ag2
(g3
(S'S7'
p1012
I0
I1
tp1013
Rp1014
(I3
S'|'
p1015
NNNI7
I1
I0
tp1016
bS'SERVE10'
p1017
tp1018
Rp1019
ag2
(g3
(S'S7'
p1020
I0
I1
tp1021
Rp1022
(I3
S'|'
p1023
NNNI7
I1
I0
tp1024
bS'SERVE10'
p1025
tp1026
Rp1027
ag2
(g3
(S'S7'
p1028
I0
I1
tp1029
Rp1030
(I3
S'|'
p1031
NNNI7
I1
I0
tp1032
bS'SERVE10'
p1033
tp1034
Rp1035
ag2
(g3
(S'S7'
p1036
I0
I1
tp1037
Rp1038
(I3
S'|'
p1039
NNNI7
I1
I0
tp1040
bS'SERVE10'
p1041
tp1042
Rp1043
ag2
(g3
(S'S6'
p1044
I0
I1
tp1045
Rp1046
(I3
S'|'
p1047
NNNI6
I1
I0
tp1048
bS'SERVE2'
p1049
tp1050
Rp1051
ag2
(g3
(S'S7'
p1052
I0
I1
tp1053
Rp1054
(I3
S'|'
p1055
NNNI7
I1
I0
tp1056
bS'SERVE10'
p1057
tp1058
Rp1059
ag2
(g3
(S'S7'
p1060
I0
I1
tp1061
Rp1062
(I3
S'|'
p1063
NNNI7
I1
I0
tp1064
bS'SERVE10'
p1065
tp1066
Rp1067
ag2
(g3
(S'S7'
p1068
I0
I1
tp1069
Rp1070
(I3
S'|'
p1071
NNNI7
I1
I0
tp1072
bS'SERVE10'
p1073
tp1074
Rp1075
ag2
(g3
(S'S7'
p1076
I0
I1
tp1077
Rp1078
(I3
S'|'
p1079
NNNI7
I1
I0
tp1080
bS'SERVE10'
p1081
tp1082
Rp1083
ag2
(g3
(S'S7'
p1084
I0
I1
tp1085
Rp1086
(I3
S'|'
p1087
NNNI7
I1
I0
tp1088
bS'SERVE10'
p1089
tp1090
Rp1091
ag2
(g3
(S'S7'
p1092
I0
I1
tp1093
Rp1094
(I3
S'|'
p1095
NNNI7
I1
I0
tp1096
bS'SERVE10'
p1097
tp1098
Rp1099
ag2
(g3
(S'S7'
p1100
I0
I1
tp1101
Rp1102
(I3
S'|'
p1103
NNNI7
I1
I0
tp1104
bS'SERVE10'
p1105
tp1106
Rp1107
ag2
(g3
(S'S7'
p1108
I0
I1
tp1109
Rp1110
(I3
S'|'
p1111
NNNI7
I1
I0
tp1112
bS'SERVE10'
p1113
tp1114
Rp1115
ag2
(g3
(S'S7'
p1116
I0
I1
tp1117
Rp1118
(I3
S'|'
p1119
NNNI7
I1
I0
tp1120
bS'SERVE10'
p1121
tp1122
Rp1123
ag2
(g3
(S'S7'
p1124
I0
I1
tp1125
Rp1126
(I3
S'|'
p1127
NNNI7
I1
I0
tp1128
bS'SERVE10'
p1129
tp1130
Rp1131
ag2
(g3
(S'S7'
p1132
I0
I1
tp1133
Rp1134
(I3
S'|'
p1135
NNNI7
I1
I0
tp1136
bS'SERVE10'
p1137
tp1138
Rp1139
ag2
(g3
(S'S7'
p1140
I0
I1
tp1141
Rp1142
(I3
S'|'
p1143
NNNI7
I1
I0
tp1144
bS'SERVE10'
p1145
tp1146
Rp1147
ag2
(g3
(S'S7'
p1148
I0
I1
tp1149
Rp1150
(I3
S'|'
p1151
NNNI7
I1
I0
tp1152
bS'SERVE10'
p1153
tp1154
Rp1155
ag2
(g3
(S'S7'
p1156
I0
I1
tp1157
Rp1158
(I3
S'|'
p1159
NNNI7
I1
I0
tp1160
bS'SERVE10'
p1161
tp1162
Rp1163
ag2
(g3
(S'S7'
p1164
I0
I1
tp1165
Rp1166
(I3
S'|'
p1167
NNNI7
I1
I0
tp1168
bS'SERVE10'
p1169
tp1170
Rp1171
ag2
(g3
(S'S7'
p1172
I0
I1
tp1173
Rp1174
(I3
S'|'
p1175
NNNI7
I1
I0
tp1176
bS'SERVE10'
p1177
tp1178
Rp1179
ag2
(g3
(S'S7'
p1180
I0
I1
tp1181
Rp1182
(I3
S'|'
p1183
NNNI7
I1
I0
tp1184
bS'SERVE10'
p1185
tp1186
Rp1187
ag2
(g3
(S'S7'
p1188
I0
I1
tp1189
Rp1190
(I3
S'|'
p1191
NNNI7
I1
I0
tp1192
bS'SERVE10'
p1193
tp1194
Rp1195
ag2
(g3
(S'S7'
p1196
I0
I1
tp1197
Rp1198
(I3
S'|'
p1199
NNNI7
I1
I0
tp1200
bS'SERVE10'
p1201
tp1202
Rp1203
ag2
(g3
(S'S7'
p1204
I0
I1
tp1205
Rp1206
(I3
S'|'
p1207
NNNI7
I1
I0
tp1208
bS'SERVE10'
p1209
tp1210
Rp1211
ag2
(g3
(S'S7'
p1212
I0
I1
tp1213
Rp1214
(I3
S'|'
p1215
NNNI7
I1
I0
tp1216
bS'SERVE10'
p1217
tp1218
Rp1219
ag2
(g3
(S'S7'
p1220
I0
I1
tp1221
Rp1222
(I3
S'|'
p1223
NNNI7
I1
I0
tp1224
bS'SERVE10'
p1225
tp1226
Rp1227
ag2
(g3
(S'S7'
p1228
I0
I1
tp1229
Rp1230
(I3
S'|'
p1231
NNNI7
I1
I0
tp1232
bS'SERVE10'
p1233
tp1234
Rp1235
ag2
(g3
(S'S7'
p1236
I0
I1
tp1237
Rp1238
(I3
S'|'
p1239
NNNI7
I1
I0
tp1240
bS'SERVE10'
p1241
tp1242
Rp1243
ag2
(g3
(S'S7'
p1244
I0
I1
tp1245
Rp1246
(I3
S'|'
p1247
NNNI7
I1
I0
tp1248
bS'SERVE10'
p1249
tp1250
Rp1251
ag2
(g3
(S'S7'
p1252
I0
I1
tp1253
Rp1254
(I3
S'|'
p1255
NNNI7
I1
I0
tp1256
bS'SERVE10'
p1257
tp1258
Rp1259
ag2
(g3
(S'S7'
p1260
I0
I1
tp1261
Rp1262
(I3
S'|'
p1263
NNNI7
I1
I0
tp1264
bS'SERVE10'
p1265
tp1266
Rp1267
ag2
(g3
(S'S7'
p1268
I0
I1
tp1269
Rp1270
(I3
S'|'
p1271
NNNI7
I1
I0
tp1272
bS'SERVE10'
p1273
tp1274
Rp1275
ag2
(g3
(S'S7'
p1276
I0
I1
tp1277
Rp1278
(I3
S'|'
p1279
NNNI7
I1
I0
tp1280
bS'SERVE10'
p1281
tp1282
Rp1283
ag2
(g3
(S'S7'
p1284
I0
I1
tp1285
Rp1286
(I3
S'|'
p1287
NNNI7
I1
I0
tp1288
bS'SERVE10'
p1289
tp1290
Rp1291
ag2
(g3
(S'S7'
p1292
I0
I1
tp1293
Rp1294
(I3
S'|'
p1295
NNNI7
I1
I0
tp1296
bS'SERVE10'
p1297
tp1298
Rp1299
ag2
(g3
(S'S7'
p1300
I0
I1
tp1301
Rp1302
(I3
S'|'
p1303
NNNI7
I1
I0
tp1304
bS'SERVE10'
p1305
tp1306
Rp1307
ag2
(g3
(S'S7'
p1308
I0
I1
tp1309
Rp1310
(I3
S'|'
p1311
NNNI7
I1
I0
tp1312
bS'SERVE10'
p1313
tp1314
Rp1315
ag2
(g3
(S'S7'
p1316
I0
I1
tp1317
Rp1318
(I3
S'|'
p1319
NNNI7
I1
I0
tp1320
bS'SERVE10'
p1321
tp1322
Rp1323
ag2
(g3
(S'S7'
p1324
I0
I1
tp1325
Rp1326
(I3
S'|'
p1327
NNNI7
I1
I0
tp1328
bS'SERVE10'
p1329
tp1330
Rp1331
ag2
(g3
(S'S7'
p1332
I0
I1
tp1333
Rp1334
(I3
S'|'
p1335
NNNI7
I1
I0
tp1336
bS'SERVE10'
p1337
tp1338
Rp1339
ag2
(g3
(S'S7'
p1340
I0
I1
tp1341
Rp1342
(I3
S'|'
p1343
NNNI7
I1
I0
tp1344
bS'SERVE10'
p1345
tp1346
Rp1347
ag2
(g3
(S'S7'
p1348
I0
I1
tp1349
Rp1350
(I3
S'|'
p1351
NNNI7
I1
I0
tp1352
bS'SERVE10'
p1353
tp1354
Rp1355
ag2
(g3
(S'S7'
p1356
I0
I1
tp1357
Rp1358
(I3
S'|'
p1359
NNNI7
I1
I0
tp1360
bS'SERVE10'
p1361
tp1362
Rp1363
ag2
(g3
(S'S7'
p1364
I0
I1
tp1365
Rp1366
(I3
S'|'
p1367
NNNI7
I1
I0
tp1368
bS'SERVE10'
p1369
tp1370
Rp1371
ag2
(g3
(S'S7'
p1372
I0
I1
tp1373
Rp1374
(I3
S'|'
p1375
NNNI7
I1
I0
tp1376
bS'SERVE10'
p1377
tp1378
Rp1379
ag2
(g3
(S'S7'
p1380
I0
I1
tp1381
Rp1382
(I3
S'|'
p1383
NNNI7
I1
I0
tp1384
bS'SERVE10'
p1385
tp1386
Rp1387
ag2
(g3
(S'S7'
p1388
I0
I1
tp1389
Rp1390
(I3
S'|'
p1391
NNNI7
I1
I0
tp1392
bS'SERVE10'
p1393
tp1394
Rp1395
ag2
(g3
(S'S7'
p1396
I0
I1
tp1397
Rp1398
(I3
S'|'
p1399
NNNI7
I1
I0
tp1400
bS'SERVE10'
p1401
tp1402
Rp1403
ag2
(g3
(S'S7'
p1404
I0
I1
tp1405
Rp1406
(I3
S'|'
p1407
NNNI7
I1
I0
tp1408
bS'SERVE10'
p1409
tp1410
Rp1411
ag2
(g3
(S'S6'
p1412
I0
I1
tp1413
Rp1414
(I3
S'|'
p1415
NNNI6
I1
I0
tp1416
bS'SERVE2'
p1417
tp1418
Rp1419
ag2
(g3
(S'S7'
p1420
I0
I1
tp1421
Rp1422
(I3
S'|'
p1423
NNNI7
I1
I0
tp1424
bS'SERVE10'
p1425
tp1426
Rp1427
ag2
(g3
(S'S7'
p1428
I0
I1
tp1429
Rp1430
(I3
S'|'
p1431
NNNI7
I1
I0
tp1432
bS'SERVE10'
p1433
tp1434
Rp1435
ag2
(g3
(S'S7'
p1436
I0
I1
tp1437
Rp1438
(I3
S'|'
p1439
NNNI7
I1
I0
tp1440
bS'SERVE10'
p1441
tp1442
Rp1443
ag2
(g3
(S'S7'
p1444
I0
I1
tp1445
Rp1446
(I3
S'|'
p1447
NNNI7
I1
I0
tp1448
bS'SERVE10'
p1449
tp1450
Rp1451
ag2
(g3
(S'S7'
p1452
I0
I1
tp1453
Rp1454
(I3
S'|'
p1455
NNNI7
I1
I0
tp1456
bS'SERVE12'
p1457
tp1458
Rp1459
ag2
(g3
(S'S7'
p1460
I0
I1
tp1461
Rp1462
(I3
S'|'
p1463
NNNI7
I1
I0
tp1464
bS'SERVE12'
p1465
tp1466
Rp1467
ag2
(g3
(S'S7'
p1468
I0
I1
tp1469
Rp1470
(I3
S'|'
p1471
NNNI7
I1
I0
tp1472
bS'SERVE12'
p1473
tp1474
Rp1475
ag2
(g3
(S'S7'
p1476
I0
I1
tp1477
Rp1478
(I3
S'|'
p1479
NNNI7
I1
I0
tp1480
bS'SERVE12'
p1481
tp1482
Rp1483
ag2
(g3
(S'S7'
p1484
I0
I1
tp1485
Rp1486
(I3
S'|'
p1487
NNNI7
I1
I0
tp1488
bS'SERVE12'
p1489
tp1490
Rp1491
ag2
(g3
(S'S7'
p1492
I0
I1
tp1493
Rp1494
(I3
S'|'
p1495
NNNI7
I1
I0
tp1496
bS'SERVE12'
p1497
tp1498
Rp1499
ag2
(g3
(S'S7'
p1500
I0
I1
tp1501
Rp1502
(I3
S'|'
p1503
NNNI7
I1
I0
tp1504
bS'SERVE12'
p1505
tp1506
Rp1507
ag2
(g3
(S'S7'
p1508
I0
I1
tp1509
Rp1510
(I3
S'|'
p1511
NNNI7
I1
I0
tp1512
bS'SERVE12'
p1513
tp1514
Rp1515
ag2
(g3
(S'S7'
p1516
I0
I1
tp1517
Rp1518
(I3
S'|'
p1519
NNNI7
I1
I0
tp1520
bS'SERVE12'
p1521
tp1522
Rp1523
ag2
(g3
(S'S7'
p1524
I0
I1
tp1525
Rp1526
(I3
S'|'
p1527
NNNI7
I1
I0
tp1528
bS'SERVE12'
p1529
tp1530
Rp1531
ag2
(g3
(S'S7'
p1532
I0
I1
tp1533
Rp1534
(I3
S'|'
p1535
NNNI7
I1
I0
tp1536
bS'SERVE12'
p1537
tp1538
Rp1539
ag2
(g3
(S'S7'
p1540
I0
I1
tp1541
Rp1542
(I3
S'|'
p1543
NNNI7
I1
I0
tp1544
bS'SERVE12'
p1545
tp1546
Rp1547
ag2
(g3
(S'S7'
p1548
I0
I1
tp1549
Rp1550
(I3
S'|'
p1551
NNNI7
I1
I0
tp1552
bS'SERVE12'
p1553
tp1554
Rp1555
ag2
(g3
(S'S7'
p1556
I0
I1
tp1557
Rp1558
(I3
S'|'
p1559
NNNI7
I1
I0
tp1560
bS'SERVE10'
p1561
tp1562
Rp1563
ag2
(g3
(S'S7'
p1564
I0
I1
tp1565
Rp1566
(I3
S'|'
p1567
NNNI7
I1
I0
tp1568
bS'SERVE12'
p1569
tp1570
Rp1571
ag2
(g3
(S'S7'
p1572
I0
I1
tp1573
Rp1574
(I3
S'|'
p1575
NNNI7
I1
I0
tp1576
bS'SERVE12'
p1577
tp1578
Rp1579
ag2
(g3
(S'S7'
p1580
I0
I1
tp1581
Rp1582
(I3
S'|'
p1583
NNNI7
I1
I0
tp1584
bS'SERVE12'
p1585
tp1586
Rp1587
ag2
(g3
(S'S7'
p1588
I0
I1
tp1589
Rp1590
(I3
S'|'
p1591
NNNI7
I1
I0
tp1592
bS'SERVE12'
p1593
tp1594
Rp1595
ag2
(g3
(S'S7'
p1596
I0
I1
tp1597
Rp1598
(I3
S'|'
p1599
NNNI7
I1
I0
tp1600
bS'SERVE12'
p1601
tp1602
Rp1603
ag2
(g3
(S'S7'
p1604
I0
I1
tp1605
Rp1606
(I3
S'|'
p1607
NNNI7
I1
I0
tp1608
bS'SERVE12'
p1609
tp1610
Rp1611
ag2
(g3
(S'S7'
p1612
I0
I1
tp1613
Rp1614
(I3
S'|'
p1615
NNNI7
I1
I0
tp1616
bS'SERVE12'
p1617
tp1618
Rp1619
ag2
(g3
(S'S7'
p1620
I0
I1
tp1621
Rp1622
(I3
S'|'
p1623
NNNI7
I1
I0
tp1624
bS'SERVE12'
p1625
tp1626
Rp1627
ag2
(g3
(S'S7'
p1628
I0
I1
tp1629
Rp1630
(I3
S'|'
p1631
NNNI7
I1
I0
tp1632
bS'SERVE12'
p1633
tp1634
Rp1635
ag2
(g3
(S'S7'
p1636
I0
I1
tp1637
Rp1638
(I3
S'|'
p1639
NNNI7
I1
I0
tp1640
bS'SERVE12'
p1641
tp1642
Rp1643
ag2
(g3
(S'S7'
p1644
I0
I1
tp1645
Rp1646
(I3
S'|'
p1647
NNNI7
I1
I0
tp1648
bS'SERVE12'
p1649
tp1650
Rp1651
ag2
(g3
(S'S7'
p1652
I0
I1
tp1653
Rp1654
(I3
S'|'
p1655
NNNI7
I1
I0
tp1656
bS'SERVE12'
p1657
tp1658
Rp1659
ag2
(g3
(S'S7'
p1660
I0
I1
tp1661
Rp1662
(I3
S'|'
p1663
NNNI7
I1
I0
tp1664
bS'SERVE12'
p1665
tp1666
Rp1667
ag2
(g3
(S'S7'
p1668
I0
I1
tp1669
Rp1670
(I3
S'|'
p1671
NNNI7
I1
I0
tp1672
bS'SERVE12'
p1673
tp1674
Rp1675
ag2
(g3
(S'S7'
p1676
I0
I1
tp1677
Rp1678
(I3
S'|'
p1679
NNNI7
I1
I0
tp1680
bS'SERVE12'
p1681
tp1682
Rp1683
ag2
(g3
(S'S7'
p1684
I0
I1
tp1685
Rp1686
(I3
S'|'
p1687
NNNI7
I1
I0
tp1688
bS'SERVE10'
p1689
tp1690
Rp1691
ag2
(g3
(S'S7'
p1692
I0
I1
tp1693
Rp1694
(I3
S'|'
p1695
NNNI7
I1
I0
tp1696
bS'SERVE12'
p1697
tp1698
Rp1699
ag2
(g3
(S'S7'
p1700
I0
I1
tp1701
Rp1702
(I3
S'|'
p1703
NNNI7
I1
I0
tp1704
bS'SERVE12'
p1705
tp1706
Rp1707
ag2
(g3
(S'S7'
p1708
I0
I1
tp1709
Rp1710
(I3
S'|'
p1711
NNNI7
I1
I0
tp1712
bS'SERVE12'
p1713
tp1714
Rp1715
ag2
(g3
(S'S7'
p1716
I0
I1
tp1717
Rp1718
(I3
S'|'
p1719
NNNI7
I1
I0
tp1720
bS'SERVE10'
p1721
tp1722
Rp1723
ag2
(g3
(S'S7'
p1724
I0
I1
tp1725
Rp1726
(I3
S'|'
p1727
NNNI7
I1
I0
tp1728
bS'SERVE12'
p1729
tp1730
Rp1731
ag2
(g3
(S'S7'
p1732
I0
I1
tp1733
Rp1734
(I3
S'|'
p1735
NNNI7
I1
I0
tp1736
bS'SERVE12'
p1737
tp1738
Rp1739
ag2
(g3
(S'S7'
p1740
I0
I1
tp1741
Rp1742
(I3
S'|'
p1743
NNNI7
I1
I0
tp1744
bS'SERVE12'
p1745
tp1746
Rp1747
ag2
(g3
(S'S7'
p1748
I0
I1
tp1749
Rp1750
(I3
S'|'
p1751
NNNI7
I1
I0
tp1752
bS'SERVE12'
p1753
tp1754
Rp1755
ag2
(g3
(S'S7'
p1756
I0
I1
tp1757
Rp1758
(I3
S'|'
p1759
NNNI7
I1
I0
tp1760
bS'SERVE12'
p1761
tp1762
Rp1763
ag2
(g3
(S'S6'
p1764
I0
I1
tp1765
Rp1766
(I3
S'|'
p1767
NNNI6
I1
I0
tp1768
bS'SERVE2'
p1769
tp1770
Rp1771
ag2
(g3
(S'S7'
p1772
I0
I1
tp1773
Rp1774
(I3
S'|'
p1775
NNNI7
I1
I0
tp1776
bS'SERVE12'
p1777
tp1778
Rp1779
ag2
(g3
(S'S6'
p1780
I0
I1
tp1781
Rp1782
(I3
S'|'
p1783
NNNI6
I1
I0
tp1784
bS'SERVE2'
p1785
tp1786
Rp1787
ag2
(g3
(S'S7'
p1788
I0
I1
tp1789
Rp1790
(I3
S'|'
p1791
NNNI7
I1
I0
tp1792
bS'SERVE12'
p1793
tp1794
Rp1795
ag2
(g3
(S'S7'
p1796
I0
I1
tp1797
Rp1798
(I3
S'|'
p1799
NNNI7
I1
I0
tp1800
bS'SERVE12'
p1801
tp1802
Rp1803
ag2
(g3
(S'S7'
p1804
I0
I1
tp1805
Rp1806
(I3
S'|'
p1807
NNNI7
I1
I0
tp1808
bS'SERVE12'
p1809
tp1810
Rp1811
ag2
(g3
(S'S7'
p1812
I0
I1
tp1813
Rp1814
(I3
S'|'
p1815
NNNI7
I1
I0
tp1816
bS'SERVE12'
p1817
tp1818
Rp1819
ag2
(g3
(S'S7'
p1820
I0
I1
tp1821
Rp1822
(I3
S'|'
p1823
NNNI7
I1
I0
tp1824
bS'SERVE12'
p1825
tp1826
Rp1827
ag2
(g3
(S'S7'
p1828
I0
I1
tp1829
Rp1830
(I3
S'|'
p1831
NNNI7
I1
I0
tp1832
bS'SERVE12'
p1833
tp1834
Rp1835
ag2
(g3
(S'S7'
p1836
I0
I1
tp1837
Rp1838
(I3
S'|'
p1839
NNNI7
I1
I0
tp1840
bS'SERVE12'
p1841
tp1842
Rp1843
ag2
(g3
(S'S7'
p1844
I0
I1
tp1845
Rp1846
(I3
S'|'
p1847
NNNI7
I1
I0
tp1848
bS'SERVE12'
p1849
tp1850
Rp1851
ag2
(g3
(S'S7'
p1852
I0
I1
tp1853
Rp1854
(I3
S'|'
p1855
NNNI7
I1
I0
tp1856
bS'SERVE12'
p1857
tp1858
Rp1859
ag2
(g3
(S'S7'
p1860
I0
I1
tp1861
Rp1862
(I3
S'|'
p1863
NNNI7
I1
I0
tp1864
bS'SERVE12'
p1865
tp1866
Rp1867
ag2
(g3
(S'S7'
p1868
I0
I1
tp1869
Rp1870
(I3
S'|'
p1871
NNNI7
I1
I0
tp1872
bS'SERVE12'
p1873
tp1874
Rp1875
ag2
(g3
(S'S7'
p1876
I0
I1
tp1877
Rp1878
(I3
S'|'
p1879
NNNI7
I1
I0
tp1880
bS'SERVE12'
p1881
tp1882
Rp1883
ag2
(g3
(S'S7'
p1884
I0
I1
tp1885
Rp1886
(I3
S'|'
p1887
NNNI7
I1
I0
tp1888
bS'SERVE12'
p1889
tp1890
Rp1891
ag2
(g3
(S'S7'
p1892
I0
I1
tp1893
Rp1894
(I3
S'|'
p1895
NNNI7
I1
I0
tp1896
bS'SERVE12'
p1897
tp1898
Rp1899
ag2
(g3
(S'S7'
p1900
I0
I1
tp1901
Rp1902
(I3
S'|'
p1903
NNNI7
I1
I0
tp1904
bS'SERVE12'
p1905
tp1906
Rp1907
ag2
(g3
(S'S7'
p1908
I0
I1
tp1909
Rp1910
(I3
S'|'
p1911
NNNI7
I1
I0
tp1912
bS'SERVE12'
p1913
tp1914
Rp1915
ag2
(g3
(S'S7'
p1916
I0
I1
tp1917
Rp1918
(I3
S'|'
p1919
NNNI7
I1
I0
tp1920
bS'SERVE12'
p1921
tp1922
Rp1923
ag2
(g3
(S'S7'
p1924
I0
I1
tp1925
Rp1926
(I3
S'|'
p1927
NNNI7
I1
I0
tp1928
bS'SERVE12'
p1929
tp1930
Rp1931
ag2
(g3
(S'S7'
p1932
I0
I1
tp1933
Rp1934
(I3
S'|'
p1935
NNNI7
I1
I0
tp1936
bS'SERVE12'
p1937
tp1938
Rp1939
ag2
(g3
(S'S7'
p1940
I0
I1
tp1941
Rp1942
(I3
S'|'
p1943
NNNI7
I1
I0
tp1944
bS'SERVE12'
p1945
tp1946
Rp1947
ag2
(g3
(S'S7'
p1948
I0
I1
tp1949
Rp1950
(I3
S'|'
p1951
NNNI7
I1
I0
tp1952
bS'SERVE12'
p1953
tp1954
Rp1955
ag2
(g3
(S'S7'
p1956
I0
I1
tp1957
Rp1958
(I3
S'|'
p1959
NNNI7
I1
I0
tp1960
bS'SERVE10'
p1961
tp1962
Rp1963
ag2
(g3
(S'S7'
p1964
I0
I1
tp1965
Rp1966
(I3
S'|'
p1967
NNNI7
I1
I0
tp1968
bS'SERVE12'
p1969
tp1970
Rp1971
ag2
(g3
(S'S7'
p1972
I0
I1
tp1973
Rp1974
(I3
S'|'
p1975
NNNI7
I1
I0
tp1976
bS'SERVE12'
p1977
tp1978
Rp1979
ag2
(g3
(S'S7'
p1980
I0
I1
tp1981
Rp1982
(I3
S'|'
p1983
NNNI7
I1
I0
tp1984
bS'SERVE12'
p1985
tp1986
Rp1987
ag2
(g3
(S'S7'
p1988
I0
I1
tp1989
Rp1990
(I3
S'|'
p1991
NNNI7
I1
I0
tp1992
bS'SERVE12'
p1993
tp1994
Rp1995
ag2
(g3
(S'S7'
p1996
I0
I1
tp1997
Rp1998
(I3
S'|'
p1999
NNNI7
I1
I0
tp2000
bS'SERVE12'
p2001
tp2002
Rp2003
ag2
(g3
(S'S7'
p2004
I0
I1
tp2005
Rp2006
(I3
S'|'
p2007
NNNI7
I1
I0
tp2008
bS'SERVE12'
p2009
tp2010
Rp2011
ag2
(g3
(S'S7'
p2012
I0
I1
tp2013
Rp2014
(I3
S'|'
p2015
NNNI7
I1
I0
tp2016
bS'SERVE12'
p2017
tp2018
Rp2019
ag2
(g3
(S'S7'
p2020
I0
I1
tp2021
Rp2022
(I3
S'|'
p2023
NNNI7
I1
I0
tp2024
bS'SERVE12'
p2025
tp2026
Rp2027
ag2
(g3
(S'S7'
p2028
I0
I1
tp2029
Rp2030
(I3
S'|'
p2031
NNNI7
I1
I0
tp2032
bS'SERVE12'
p2033
tp2034
Rp2035
ag2
(g3
(S'S7'
p2036
I0
I1
tp2037
Rp2038
(I3
S'|'
p2039
NNNI7
I1
I0
tp2040
bS'SERVE12'
p2041
tp2042
Rp2043
ag2
(g3
(S'S7'
p2044
I0
I1
tp2045
Rp2046
(I3
S'|'
p2047
NNNI7
I1
I0
tp2048
bS'SERVE12'
p2049
tp2050
Rp2051
ag2
(g3
(S'S7'
p2052
I0
I1
tp2053
Rp2054
(I3
S'|'
p2055
NNNI7
I1
I0
tp2056
bS'SERVE12'
p2057
tp2058
Rp2059
ag2
(g3
(S'S7'
p2060
I0
I1
tp2061
Rp2062
(I3
S'|'
p2063
NNNI7
I1
I0
tp2064
bS'SERVE12'
p2065
tp2066
Rp2067
ag2
(g3
(S'S7'
p2068
I0
I1
tp2069
Rp2070
(I3
S'|'
p2071
NNNI7
I1
I0
tp2072
bS'SERVE12'
p2073
tp2074
Rp2075
ag2
(g3
(S'S7'
p2076
I0
I1
tp2077
Rp2078
(I3
S'|'
p2079
NNNI7
I1
I0
tp2080
bS'SERVE12'
p2081
tp2082
Rp2083
ag2
(g3
(S'S7'
p2084
I0
I1
tp2085
Rp2086
(I3
S'|'
p2087
NNNI7
I1
I0
tp2088
bS'SERVE12'
p2089
tp2090
Rp2091
ag2
(g3
(S'S7'
p2092
I0
I1
tp2093
Rp2094
(I3
S'|'
p2095
NNNI7
I1
I0
tp2096
bS'SERVE12'
p2097
tp2098
Rp2099
ag2
(g3
(S'S7'
p2100
I0
I1
tp2101
Rp2102
(I3
S'|'
p2103
NNNI7
I1
I0
tp2104
bS'SERVE12'
p2105
tp2106
Rp2107
ag2
(g3
(S'S7'
p2108
I0
I1
tp2109
Rp2110
(I3
S'|'
p2111
NNNI7
I1
I0
tp2112
bS'SERVE12'
p2113
tp2114
Rp2115
ag2
(g3
(S'S6'
p2116
I0
I1
tp2117
Rp2118
(I3
S'|'
p2119
NNNI6
I1
I0
tp2120
bS'SERVE2'
p2121
tp2122
Rp2123
ag2
(g3
(S'S7'
p2124
I0
I1
tp2125
Rp2126
(I3
S'|'
p2127
NNNI7
I1
I0
tp2128
bS'SERVE12'
p2129
tp2130
Rp2131
ag2
(g3
(S'S7'
p2132
I0
I1
tp2133
Rp2134
(I3
S'|'
p2135
NNNI7
I1
I0
tp2136
bS'SERVE12'
p2137
tp2138
Rp2139
ag2
(g3
(S'S7'
p2140
I0
I1
tp2141
Rp2142
(I3
S'|'
p2143
NNNI7
I1
I0
tp2144
bS'SERVE12'
p2145
tp2146
Rp2147
ag2
(g3
(S'S7'
p2148
I0
I1
tp2149
Rp2150
(I3
S'|'
p2151
NNNI7
I1
I0
tp2152
bS'SERVE12'
p2153
tp2154
Rp2155
ag2
(g3
(S'S7'
p2156
I0
I1
tp2157
Rp2158
(I3
S'|'
p2159
NNNI7
I1
I0
tp2160
bS'SERVE12'
p2161
tp2162
Rp2163
ag2
(g3
(S'S7'
p2164
I0
I1
tp2165
Rp2166
(I3
S'|'
p2167
NNNI7
I1
I0
tp2168
bS'SERVE12'
p2169
tp2170
Rp2171
ag2
(g3
(S'S7'
p2172
I0
I1
tp2173
Rp2174
(I3
S'|'
p2175
NNNI7
I1
I0
tp2176
bS'SERVE12'
p2177
tp2178
Rp2179
ag2
(g3
(S'S7'
p2180
I0
I1
tp2181
Rp2182
(I3
S'|'
p2183
NNNI7
I1
I0
tp2184
bS'SERVE12'
p2185
tp2186
Rp2187
ag2
(g3
(S'S7'
p2188
I0
I1
tp2189
Rp2190
(I3
S'|'
p2191
NNNI7
I1
I0
tp2192
bS'SERVE12'
p2193
tp2194
Rp2195
ag2
(g3
(S'S7'
p2196
I0
I1
tp2197
Rp2198
(I3
S'|'
p2199
NNNI7
I1
I0
tp2200
bS'SERVE12'
p2201
tp2202
Rp2203
ag2
(g3
(S'S7'
p2204
I0
I1
tp2205
Rp2206
(I3
S'|'
p2207
NNNI7
I1
I0
tp2208
bS'SERVE12'
p2209
tp2210
Rp2211
ag2
(g3
(S'S6'
p2212
I0
I1
tp2213
Rp2214
(I3
S'|'
p2215
NNNI6
I1
I0
tp2216
bS'SERVE2'
p2217
tp2218
Rp2219
ag2
(g3
(S'S7'
p2220
I0
I1
tp2221
Rp2222
(I3
S'|'
p2223
NNNI7
I1
I0
tp2224
bS'SERVE12'
p2225
tp2226
Rp2227
ag2
(g3
(S'S7'
p2228
I0
I1
tp2229
Rp2230
(I3
S'|'
p2231
NNNI7
I1
I0
tp2232
bS'SERVE12'
p2233
tp2234
Rp2235
ag2
(g3
(S'S7'
p2236
I0
I1
tp2237
Rp2238
(I3
S'|'
p2239
NNNI7
I1
I0
tp2240
bS'SERVE12'
p2241
tp2242
Rp2243
ag2
(g3
(S'S7'
p2244
I0
I1
tp2245
Rp2246
(I3
S'|'
p2247
NNNI7
I1
I0
tp2248
bS'SERVE12'
p2249
tp2250
Rp2251
ag2
(g3
(S'S7'
p2252
I0
I1
tp2253
Rp2254
(I3
S'|'
p2255
NNNI7
I1
I0
tp2256
bS'SERVE12'
p2257
tp2258
Rp2259
ag2
(g3
(S'S7'
p2260
I0
I1
tp2261
Rp2262
(I3
S'|'
p2263
NNNI7
I1
I0
tp2264
bS'SERVE12'
p2265
tp2266
Rp2267
ag2
(g3
(S'S7'
p2268
I0
I1
tp2269
Rp2270
(I3
S'|'
p2271
NNNI7
I1
I0
tp2272
bS'SERVE12'
p2273
tp2274
Rp2275
ag2
(g3
(S'S7'
p2276
I0
I1
tp2277
Rp2278
(I3
S'|'
p2279
NNNI7
I1
I0
tp2280
bS'SERVE12'
p2281
tp2282
Rp2283
ag2
(g3
(S'S7'
p2284
I0
I1
tp2285
Rp2286
(I3
S'|'
p2287
NNNI7
I1
I0
tp2288
bS'SERVE12'
p2289
tp2290
Rp2291
ag2
(g3
(S'S7'
p2292
I0
I1
tp2293
Rp2294
(I3
S'|'
p2295
NNNI7
I1
I0
tp2296
bS'SERVE12'
p2297
tp2298
Rp2299
ag2
(g3
(S'S7'
p2300
I0
I1
tp2301
Rp2302
(I3
S'|'
p2303
NNNI7
I1
I0
tp2304
bS'SERVE12'
p2305
tp2306
Rp2307
ag2
(g3
(S'S7'
p2308
I0
I1
tp2309
Rp2310
(I3
S'|'
p2311
NNNI7
I1
I0
tp2312
bS'SERVE12'
p2313
tp2314
Rp2315
ag2
(g3
(S'S7'
p2316
I0
I1
tp2317
Rp2318
(I3
S'|'
p2319
NNNI7
I1
I0
tp2320
bS'SERVE12'
p2321
tp2322
Rp2323
ag2
(g3
(S'S7'
p2324
I0
I1
tp2325
Rp2326
(I3
S'|'
p2327
NNNI7
I1
I0
tp2328
bS'SERVE12'
p2329
tp2330
Rp2331
ag2
(g3
(S'S7'
p2332
I0
I1
tp2333
Rp2334
(I3
S'|'
p2335
NNNI7
I1
I0
tp2336
bS'SERVE12'
p2337
tp2338
Rp2339
ag2
(g3
(S'S7'
p2340
I0
I1
tp2341
Rp2342
(I3
S'|'
p2343
NNNI7
I1
I0
tp2344
bS'SERVE12'
p2345
tp2346
Rp2347
ag2
(g3
(S'S7'
p2348
I0
I1
tp2349
Rp2350
(I3
S'|'
p2351
NNNI7
I1
I0
tp2352
bS'SERVE12'
p2353
tp2354
Rp2355
ag2
(g3
(S'S7'
p2356
I0
I1
tp2357
Rp2358
(I3
S'|'
p2359
NNNI7
I1
I0
tp2360
bS'SERVE12'
p2361
tp2362
Rp2363
ag2
(g3
(S'S7'
p2364
I0
I1
tp2365
Rp2366
(I3
S'|'
p2367
NNNI7
I1
I0
tp2368
bS'SERVE12'
p2369
tp2370
Rp2371
ag2
(g3
(S'S7'
p2372
I0
I1
tp2373
Rp2374
(I3
S'|'
p2375
NNNI7
I1
I0
tp2376
bS'SERVE12'
p2377
tp2378
Rp2379
ag2
(g3
(S'S7'
p2380
I0
I1
tp2381
Rp2382
(I3
S'|'
p2383
NNNI7
I1
I0
tp2384
bS'SERVE12'
p2385
tp2386
Rp2387
ag2
(g3
(S'S7'
p2388
I0
I1
tp2389
Rp2390
(I3
S'|'
p2391
NNNI7
I1
I0
tp2392
bS'SERVE12'
p2393
tp2394
Rp2395
ag2
(g3
(S'S7'
p2396
I0
I1
tp2397
Rp2398
(I3
S'|'
p2399
NNNI7
I1
I0
tp2400
bS'SERVE10'
p2401
tp2402
Rp2403
ag2
(g3
(S'S7'
p2404
I0
I1
tp2405
Rp2406
(I3
S'|'
p2407
NNNI7
I1
I0
tp2408
bS'SERVE12'
p2409
tp2410
Rp2411
ag2
(g3
(S'S7'
p2412
I0
I1
tp2413
Rp2414
(I3
S'|'
p2415
NNNI7
I1
I0
tp2416
bS'SERVE12'
p2417
tp2418
Rp2419
ag2
(g3
(S'S7'
p2420
I0
I1
tp2421
Rp2422
(I3
S'|'
p2423
NNNI7
I1
I0
tp2424
bS'SERVE12'
p2425
tp2426
Rp2427
ag2
(g3
(S'S6'
p2428
I0
I1
tp2429
Rp2430
(I3
S'|'
p2431
NNNI6
I1
I0
tp2432
bS'SERVE6'
p2433
tp2434
Rp2435
ag2
(g3
(S'S7'
p2436
I0
I1
tp2437
Rp2438
(I3
S'|'
p2439
NNNI7
I1
I0
tp2440
bS'SERVE12'
p2441
tp2442
Rp2443
ag2
(g3
(S'S7'
p2444
I0
I1
tp2445
Rp2446
(I3
S'|'
p2447
NNNI7
I1
I0
tp2448
bS'SERVE12'
p2449
tp2450
Rp2451
ag2
(g3
(S'S7'
p2452
I0
I1
tp2453
Rp2454
(I3
S'|'
p2455
NNNI7
I1
I0
tp2456
bS'SERVE12'
p2457
tp2458
Rp2459
ag2
(g3
(S'S7'
p2460
I0
I1
tp2461
Rp2462
(I3
S'|'
p2463
NNNI7
I1
I0
tp2464
bS'SERVE12'
p2465
tp2466
Rp2467
ag2
(g3
(S'S6'
p2468
I0
I1
tp2469
Rp2470
(I3
S'|'
p2471
NNNI6
I1
I0
tp2472
bS'SERVE2'
p2473
tp2474
Rp2475
ag2
(g3
(S'S6'
p2476
I0
I1
tp2477
Rp2478
(I3
S'|'
p2479
NNNI6
I1
I0
tp2480
bS'SERVE2'
p2481
tp2482
Rp2483
ag2
(g3
(S'S6'
p2484
I0
I1
tp2485
Rp2486
(I3
S'|'
p2487
NNNI6
I1
I0
tp2488
bS'SERVE2'
p2489
tp2490
Rp2491
ag2
(g3
(S'S7'
p2492
I0
I1
tp2493
Rp2494
(I3
S'|'
p2495
NNNI7
I1
I0
tp2496
bS'SERVE12'
p2497
tp2498
Rp2499
ag2
(g3
(S'S7'
p2500
I0
I1
tp2501
Rp2502
(I3
S'|'
p2503
NNNI7
I1
I0
tp2504
bS'SERVE10'
p2505
tp2506
Rp2507
ag2
(g3
(S'S7'
p2508
I0
I1
tp2509
Rp2510
(I3
S'|'
p2511
NNNI7
I1
I0
tp2512
bS'SERVE12'
p2513
tp2514
Rp2515
ag2
(g3
(S'S6'
p2516
I0
I1
tp2517
Rp2518
(I3
S'|'
p2519
NNNI6
I1
I0
tp2520
bS'SERVE2'
p2521
tp2522
Rp2523
ag2
(g3
(S'S6'
p2524
I0
I1
tp2525
Rp2526
(I3
S'|'
p2527
NNNI6
I1
I0
tp2528
bS'SERVE2'
p2529
tp2530
Rp2531
ag2
(g3
(S'S6'
p2532
I0
I1
tp2533
Rp2534
(I3
S'|'
p2535
NNNI6
I1
I0
tp2536
bS'SERVE2'
p2537
tp2538
Rp2539
ag2
(g3
(S'S7'
p2540
I0
I1
tp2541
Rp2542
(I3
S'|'
p2543
NNNI7
I1
I0
tp2544
bS'SERVE12'
p2545
tp2546
Rp2547
ag2
(g3
(S'S6'
p2548
I0
I1
tp2549
Rp2550
(I3
S'|'
p2551
NNNI6
I1
I0
tp2552
bS'SERVE2'
p2553
tp2554
Rp2555
ag2
(g3
(S'S6'
p2556
I0
I1
tp2557
Rp2558
(I3
S'|'
p2559
NNNI6
I1
I0
tp2560
bS'SERVE2'
p2561
tp2562
Rp2563
ag2
(g3
(S'S6'
p2564
I0
I1
tp2565
Rp2566
(I3
S'|'
p2567
NNNI6
I1
I0
tp2568
bS'SERVE2'
p2569
tp2570
Rp2571
ag2
(g3
(S'S6'
p2572
I0
I1
tp2573
Rp2574
(I3
S'|'
p2575
NNNI6
I1
I0
tp2576
bS'SERVE2'
p2577
tp2578
Rp2579
ag2
(g3
(S'S6'
p2580
I0
I1
tp2581
Rp2582
(I3
S'|'
p2583
NNNI6
I1
I0
tp2584
bS'SERVE2'
p2585
tp2586
Rp2587
ag2
(g3
(S'S6'
p2588
I0
I1
tp2589
Rp2590
(I3
S'|'
p2591
NNNI6
I1
I0
tp2592
bS'SERVE2'
p2593
tp2594
Rp2595
ag2
(g3
(S'S6'
p2596
I0
I1
tp2597
Rp2598
(I3
S'|'
p2599
NNNI6
I1
I0
tp2600
bS'SERVE2'
p2601
tp2602
Rp2603
ag2
(g3
(S'S6'
p2604
I0
I1
tp2605
Rp2606
(I3
S'|'
p2607
NNNI6
I1
I0
tp2608
bS'SERVE2'
p2609
tp2610
Rp2611
ag2
(g3
(S'S6'
p2612
I0
I1
tp2613
Rp2614
(I3
S'|'
p2615
NNNI6
I1
I0
tp2616
bS'SERVE2'
p2617
tp2618
Rp2619
ag2
(g3
(S'S6'
p2620
I0
I1
tp2621
Rp2622
(I3
S'|'
p2623
NNNI6
I1
I0
tp2624
bS'SERVE2'
p2625
tp2626
Rp2627
ag2
(g3
(S'S6'
p2628
I0
I1
tp2629
Rp2630
(I3
S'|'
p2631
NNNI6
I1
I0
tp2632
bS'SERVE2'
p2633
tp2634
Rp2635
ag2
(g3
(S'S6'
p2636
I0
I1
tp2637
Rp2638
(I3
S'|'
p2639
NNNI6
I1
I0
tp2640
bS'SERVE2'
p2641
tp2642
Rp2643
ag2
(g3
(S'S6'
p2644
I0
I1
tp2645
Rp2646
(I3
S'|'
p2647
NNNI6
I1
I0
tp2648
bS'SERVE2'
p2649
tp2650
Rp2651
ag2
(g3
(S'S6'
p2652
I0
I1
tp2653
Rp2654
(I3
S'|'
p2655
NNNI6
I1
I0
tp2656
bS'SERVE2'
p2657
tp2658
Rp2659
ag2
(g3
(S'S6'
p2660
I0
I1
tp2661
Rp2662
(I3
S'|'
p2663
NNNI6
I1
I0
tp2664
bS'SERVE2'
p2665
tp2666
Rp2667
ag2
(g3
(S'S6'
p2668
I0
I1
tp2669
Rp2670
(I3
S'|'
p2671
NNNI6
I1
I0
tp2672
bS'SERVE2'
p2673
tp2674
Rp2675
ag2
(g3
(S'S6'
p2676
I0
I1
tp2677
Rp2678
(I3
S'|'
p2679
NNNI6
I1
I0
tp2680
bS'SERVE2'
p2681
tp2682
Rp2683
ag2
(g3
(S'S7'
p2684
I0
I1
tp2685
Rp2686
(I3
S'|'
p2687
NNNI7
I1
I0
tp2688
bS'SERVE12'
p2689
tp2690
Rp2691
ag2
(g3
(S'S6'
p2692
I0
I1
tp2693
Rp2694
(I3
S'|'
p2695
NNNI6
I1
I0
tp2696
bS'SERVE2'
p2697
tp2698
Rp2699
ag2
(g3
(S'S6'
p2700
I0
I1
tp2701
Rp2702
(I3
S'|'
p2703
NNNI6
I1
I0
tp2704
bS'SERVE2'
p2705
tp2706
Rp2707
ag2
(g3
(S'S6'
p2708
I0
I1
tp2709
Rp2710
(I3
S'|'
p2711
NNNI6
I1
I0
tp2712
bS'SERVE2'
p2713
tp2714
Rp2715
ag2
(g3
(S'S6'
p2716
I0
I1
tp2717
Rp2718
(I3
S'|'
p2719
NNNI6
I1
I0
tp2720
bS'SERVE2'
p2721
tp2722
Rp2723
ag2
(g3
(S'S6'
p2724
I0
I1
tp2725
Rp2726
(I3
S'|'
p2727
NNNI6
I1
I0
tp2728
bS'SERVE2'
p2729
tp2730
Rp2731
ag2
(g3
(S'S6'
p2732
I0
I1
tp2733
Rp2734
(I3
S'|'
p2735
NNNI6
I1
I0
tp2736
bS'SERVE2'
p2737
tp2738
Rp2739
ag2
(g3
(S'S7'
p2740
I0
I1
tp2741
Rp2742
(I3
S'|'
p2743
NNNI7
I1
I0
tp2744
bS'SERVE12'
p2745
tp2746
Rp2747
ag2
(g3
(S'S6'
p2748
I0
I1
tp2749
Rp2750
(I3
S'|'
p2751
NNNI6
I1
I0
tp2752
bS'SERVE2'
p2753
tp2754
Rp2755
ag2
(g3
(S'S6'
p2756
I0
I1
tp2757
Rp2758
(I3
S'|'
p2759
NNNI6
I1
I0
tp2760
bS'SERVE2'
p2761
tp2762
Rp2763
ag2
(g3
(S'S7'
p2764
I0
I1
tp2765
Rp2766
(I3
S'|'
p2767
NNNI7
I1
I0
tp2768
bS'SERVE10'
p2769
tp2770
Rp2771
ag2
(g3
(S'S6'
p2772
I0
I1
tp2773
Rp2774
(I3
S'|'
p2775
NNNI6
I1
I0
tp2776
bS'SERVE2'
p2777
tp2778
Rp2779
ag2
(g3
(S'S6'
p2780
I0
I1
tp2781
Rp2782
(I3
S'|'
p2783
NNNI6
I1
I0
tp2784
bS'SERVE2'
p2785
tp2786
Rp2787
ag2
(g3
(S'S7'
p2788
I0
I1
tp2789
Rp2790
(I3
S'|'
p2791
NNNI7
I1
I0
tp2792
bS'SERVE10'
p2793
tp2794
Rp2795
ag2
(g3
(S'S6'
p2796
I0
I1
tp2797
Rp2798
(I3
S'|'
p2799
NNNI6
I1
I0
tp2800
bS'SERVE2'
p2801
tp2802
Rp2803
ag2
(g3
(S'S6'
p2804
I0
I1
tp2805
Rp2806
(I3
S'|'
p2807
NNNI6
I1
I0
tp2808
bS'SERVE2'
p2809
tp2810
Rp2811
ag2
(g3
(S'S7'
p2812
I0
I1
tp2813
Rp2814
(I3
S'|'
p2815
NNNI7
I1
I0
tp2816
bS'SERVE12'
p2817
tp2818
Rp2819
ag2
(g3
(S'S6'
p2820
I0
I1
tp2821
Rp2822
(I3
S'|'
p2823
NNNI6
I1
I0
tp2824
bS'SERVE2'
p2825
tp2826
Rp2827
ag2
(g3
(S'S6'
p2828
I0
I1
tp2829
Rp2830
(I3
S'|'
p2831
NNNI6
I1
I0
tp2832
bS'SERVE2'
p2833
tp2834
Rp2835
ag2
(g3
(S'S6'
p2836
I0
I1
tp2837
Rp2838
(I3
S'|'
p2839
NNNI6
I1
I0
tp2840
bS'SERVE2'
p2841
tp2842
Rp2843
ag2
(g3
(S'S6'
p2844
I0
I1
tp2845
Rp2846
(I3
S'|'
p2847
NNNI6
I1
I0
tp2848
bS'SERVE2'
p2849
tp2850
Rp2851
ag2
(g3
(S'S6'
p2852
I0
I1
tp2853
Rp2854
(I3
S'|'
p2855
NNNI6
I1
I0
tp2856
bS'SERVE2'
p2857
tp2858
Rp2859
ag2
(g3
(S'S6'
p2860
I0
I1
tp2861
Rp2862
(I3
S'|'
p2863
NNNI6
I1
I0
tp2864
bS'SERVE2'
p2865
tp2866
Rp2867
ag2
(g3
(S'S6'
p2868
I0
I1
tp2869
Rp2870
(I3
S'|'
p2871
NNNI6
I1
I0
tp2872
bS'SERVE2'
p2873
tp2874
Rp2875
ag2
(g3
(S'S6'
p2876
I0
I1
tp2877
Rp2878
(I3
S'|'
p2879
NNNI6
I1
I0
tp2880
bS'SERVE2'
p2881
tp2882
Rp2883
ag2
(g3
(S'S6'
p2884
I0
I1
tp2885
Rp2886
(I3
S'|'
p2887
NNNI6
I1
I0
tp2888
bS'SERVE2'
p2889
tp2890
Rp2891
ag2
(g3
(S'S6'
p2892
I0
I1
tp2893
Rp2894
(I3
S'|'
p2895
NNNI6
I1
I0
tp2896
bS'SERVE2'
p2897
tp2898
Rp2899
ag2
(g3
(S'S6'
p2900
I0
I1
tp2901
Rp2902
(I3
S'|'
p2903
NNNI6
I1
I0
tp2904
bS'SERVE2'
p2905
tp2906
Rp2907
ag2
(g3
(S'S6'
p2908
I0
I1
tp2909
Rp2910
(I3
S'|'
p2911
NNNI6
I1
I0
tp2912
bS'SERVE2'
p2913
tp2914
Rp2915
ag2
(g3
(S'S6'
p2916
I0
I1
tp2917
Rp2918
(I3
S'|'
p2919
NNNI6
I1
I0
tp2920
bS'SERVE2'
p2921
tp2922
Rp2923
ag2
(g3
(S'S6'
p2924
I0
I1
tp2925
Rp2926
(I3
S'|'
p2927
NNNI6
I1
I0
tp2928
bS'SERVE2'
p2929
tp2930
Rp2931
ag2
(g3
(S'S6'
p2932
I0
I1
tp2933
Rp2934
(I3
S'|'
p2935
NNNI6
I1
I0
tp2936
bS'SERVE2'
p2937
tp2938
Rp2939
ag2
(g3
(S'S6'
p2940
I0
I1
tp2941
Rp2942
(I3
S'|'
p2943
NNNI6
I1
I0
tp2944
bS'SERVE2'
p2945
tp2946
Rp2947
ag2
(g3
(S'S6'
p2948
I0
I1
tp2949
Rp2950
(I3
S'|'
p2951
NNNI6
I1
I0
tp2952
bS'SERVE2'
p2953
tp2954
Rp2955
ag2
(g3
(S'S6'
p2956
I0
I1
tp2957
Rp2958
(I3
S'|'
p2959
NNNI6
I1
I0
tp2960
bS'SERVE2'
p2961
tp2962
Rp2963
ag2
(g3
(S'S6'
p2964
I0
I1
tp2965
Rp2966
(I3
S'|'
p2967
NNNI6
I1
I0
tp2968
bS'SERVE2'
p2969
tp2970
Rp2971
ag2
(g3
(S'S6'
p2972
I0
I1
tp2973
Rp2974
(I3
S'|'
p2975
NNNI6
I1
I0
tp2976
bS'SERVE2'
p2977
tp2978
Rp2979
ag2
(g3
(S'S6'
p2980
I0
I1
tp2981
Rp2982
(I3
S'|'
p2983
NNNI6
I1
I0
tp2984
bS'SERVE2'
p2985
tp2986
Rp2987
ag2
(g3
(S'S6'
p2988
I0
I1
tp2989
Rp2990
(I3
S'|'
p2991
NNNI6
I1
I0
tp2992
bS'SERVE2'
p2993
tp2994
Rp2995
ag2
(g3
(S'S6'
p2996
I0
I1
tp2997
Rp2998
(I3
S'|'
p2999
NNNI6
I1
I0
tp3000
bS'SERVE2'
p3001
tp3002
Rp3003
ag2
(g3
(S'S6'
p3004
I0
I1
tp3005
Rp3006
(I3
S'|'
p3007
NNNI6
I1
I0
tp3008
bS'SERVE2'
p3009
tp3010
Rp3011
ag2
(g3
(S'S7'
p3012
I0
I1
tp3013
Rp3014
(I3
S'|'
p3015
NNNI7
I1
I0
tp3016
bS'SERVE12'
p3017
tp3018
Rp3019
ag2
(g3
(S'S6'
p3020
I0
I1
tp3021
Rp3022
(I3
S'|'
p3023
NNNI6
I1
I0
tp3024
bS'SERVE2'
p3025
tp3026
Rp3027
ag2
(g3
(S'S6'
p3028
I0
I1
tp3029
Rp3030
(I3
S'|'
p3031
NNNI6
I1
I0
tp3032
bS'SERVE2'
p3033
tp3034
Rp3035
ag2
(g3
(S'S6'
p3036
I0
I1
tp3037
Rp3038
(I3
S'|'
p3039
NNNI6
I1
I0
tp3040
bS'SERVE2'
p3041
tp3042
Rp3043
ag2
(g3
(S'S6'
p3044
I0
I1
tp3045
Rp3046
(I3
S'|'
p3047
NNNI6
I1
I0
tp3048
bS'SERVE2'
p3049
tp3050
Rp3051
ag2
(g3
(S'S6'
p3052
I0
I1
tp3053
Rp3054
(I3
S'|'
p3055
NNNI6
I1
I0
tp3056
bS'SERVE2'
p3057
tp3058
Rp3059
ag2
(g3
(S'S6'
p3060
I0
I1
tp3061
Rp3062
(I3
S'|'
p3063
NNNI6
I1
I0
tp3064
bS'SERVE2'
p3065
tp3066
Rp3067
ag2
(g3
(S'S6'
p3068
I0
I1
tp3069
Rp3070
(I3
S'|'
p3071
NNNI6
I1
I0
tp3072
bS'SERVE2'
p3073
tp3074
Rp3075
ag2
(g3
(S'S6'
p3076
I0
I1
tp3077
Rp3078
(I3
S'|'
p3079
NNNI6
I1
I0
tp3080
bS'SERVE2'
p3081
tp3082
Rp3083
ag2
(g3
(S'S7'
p3084
I0
I1
tp3085
Rp3086
(I3
S'|'
p3087
NNNI7
I1
I0
tp3088
bS'SERVE10'
p3089
tp3090
Rp3091
ag2
(g3
(S'S6'
p3092
I0
I1
tp3093
Rp3094
(I3
S'|'
p3095
NNNI6
I1
I0
tp3096
bS'SERVE2'
p3097
tp3098
Rp3099
ag2
(g3
(S'S6'
p3100
I0
I1
tp3101
Rp3102
(I3
S'|'
p3103
NNNI6
I1
I0
tp3104
bS'SERVE2'
p3105
tp3106
Rp3107
ag2
(g3
(S'S6'
p3108
I0
I1
tp3109
Rp3110
(I3
S'|'
p3111
NNNI6
I1
I0
tp3112
bS'SERVE2'
p3113
tp3114
Rp3115
ag2
(g3
(S'S6'
p3116
I0
I1
tp3117
Rp3118
(I3
S'|'
p3119
NNNI6
I1
I0
tp3120
bS'SERVE2'
p3121
tp3122
Rp3123
ag2
(g3
(S'S6'
p3124
I0
I1
tp3125
Rp3126
(I3
S'|'
p3127
NNNI6
I1
I0
tp3128
bS'SERVE2'
p3129
tp3130
Rp3131
ag2
(g3
(S'S6'
p3132
I0
I1
tp3133
Rp3134
(I3
S'|'
p3135
NNNI6
I1
I0
tp3136
bS'SERVE2'
p3137
tp3138
Rp3139
ag2
(g3
(S'S6'
p3140
I0
I1
tp3141
Rp3142
(I3
S'|'
p3143
NNNI6
I1
I0
tp3144
bS'SERVE2'
p3145
tp3146
Rp3147
ag2
(g3
(S'S6'
p3148
I0
I1
tp3149
Rp3150
(I3
S'|'
p3151
NNNI6
I1
I0
tp3152
bS'SERVE6'
p3153
tp3154
Rp3155
ag2
(g3
(S'S6'
p3156
I0
I1
tp3157
Rp3158
(I3
S'|'
p3159
NNNI6
I1
I0
tp3160
bS'SERVE6'
p3161
tp3162
Rp3163
ag2
(g3
(S'S7'
p3164
I0
I1
tp3165
Rp3166
(I3
S'|'
p3167
NNNI7
I1
I0
tp3168
bS'SERVE10'
p3169
tp3170
Rp3171
ag2
(g3
(S'S6'
p3172
I0
I1
tp3173
Rp3174
(I3
S'|'
p3175
NNNI6
I1
I0
tp3176
bS'SERVE6'
p3177
tp3178
Rp3179
ag2
(g3
(S'S6'
p3180
I0
I1
tp3181
Rp3182
(I3
S'|'
p3183
NNNI6
I1
I0
tp3184
bS'SERVE6'
p3185
tp3186
Rp3187
ag2
(g3
(S'S6'
p3188
I0
I1
tp3189
Rp3190
(I3
S'|'
p3191
NNNI6
I1
I0
tp3192
bS'SERVE6'
p3193
tp3194
Rp3195
ag2
(g3
(S'S6'
p3196
I0
I1
tp3197
Rp3198
(I3
S'|'
p3199
NNNI6
I1
I0
tp3200
bS'SERVE6'
p3201
tp3202
Rp3203
ag2
(g3
(S'S6'
p3204
I0
I1
tp3205
Rp3206
(I3
S'|'
p3207
NNNI6
I1
I0
tp3208
bS'SERVE6'
p3209
tp3210
Rp3211
ag2
(g3
(S'S6'
p3212
I0
I1
tp3213
Rp3214
(I3
S'|'
p3215
NNNI6
I1
I0
tp3216
bS'SERVE6'
p3217
tp3218
Rp3219
ag2
(g3
(S'S6'
p3220
I0
I1
tp3221
Rp3222
(I3
S'|'
p3223
NNNI6
I1
I0
tp3224
bS'SERVE6'
p3225
tp3226
Rp3227
ag2
(g3
(S'S6'
p3228
I0
I1
tp3229
Rp3230
(I3
S'|'
p3231
NNNI6
I1
I0
tp3232
bS'SERVE6'
p3233
tp3234
Rp3235
ag2
(g3
(S'S7'
p3236
I0
I1
tp3237
Rp3238
(I3
S'|'
p3239
NNNI7
I1
I0
tp3240
bS'SERVE12'
p3241
tp3242
Rp3243
ag2
(g3
(S'S6'
p3244
I0
I1
tp3245
Rp3246
(I3
S'|'
p3247
NNNI6
I1
I0
tp3248
bS'SERVE6'
p3249
tp3250
Rp3251
ag2
(g3
(S'S6'
p3252
I0
I1
tp3253
Rp3254
(I3
S'|'
p3255
NNNI6
I1
I0
tp3256
bS'SERVE6'
p3257
tp3258
Rp3259
ag2
(g3
(S'S6'
p3260
I0
I1
tp3261
Rp3262
(I3
S'|'
p3263
NNNI6
I1
I0
tp3264
bS'SERVE6'
p3265
tp3266
Rp3267
ag2
(g3
(S'S6'
p3268
I0
I1
tp3269
Rp3270
(I3
S'|'
p3271
NNNI6
I1
I0
tp3272
bS'SERVE6'
p3273
tp3274
Rp3275
ag2
(g3
(S'S7'
p3276
I0
I1
tp3277
Rp3278
(I3
S'|'
p3279
NNNI7
I1
I0
tp3280
bS'SERVE12'
p3281
tp3282
Rp3283
ag2
(g3
(S'S6'
p3284
I0
I1
tp3285
Rp3286
(I3
S'|'
p3287
NNNI6
I1
I0
tp3288
bS'SERVE6'
p3289
tp3290
Rp3291
ag2
(g3
(S'S6'
p3292
I0
I1
tp3293
Rp3294
(I3
S'|'
p3295
NNNI6
I1
I0
tp3296
bS'SERVE6'
p3297
tp3298
Rp3299
ag2
(g3
(S'S6'
p3300
I0
I1
tp3301
Rp3302
(I3
S'|'
p3303
NNNI6
I1
I0
tp3304
bS'SERVE6'
p3305
tp3306
Rp3307
ag2
(g3
(S'S6'
p3308
I0
I1
tp3309
Rp3310
(I3
S'|'
p3311
NNNI6
I1
I0
tp3312
bS'SERVE6'
p3313
tp3314
Rp3315
ag2
(g3
(S'S7'
p3316
I0
I1
tp3317
Rp3318
(I3
S'|'
p3319
NNNI7
I1
I0
tp3320
bS'SERVE10'
p3321
tp3322
Rp3323
ag2
(g3
(S'S6'
p3324
I0
I1
tp3325
Rp3326
(I3
S'|'
p3327
NNNI6
I1
I0
tp3328
bS'SERVE6'
p3329
tp3330
Rp3331
ag2
(g3
(S'S6'
p3332
I0
I1
tp3333
Rp3334
(I3
S'|'
p3335
NNNI6
I1
I0
tp3336
bS'SERVE6'
p3337
tp3338
Rp3339
ag2
(g3
(S'S6'
p3340
I0
I1
tp3341
Rp3342
(I3
S'|'
p3343
NNNI6
I1
I0
tp3344
bS'SERVE6'
p3345
tp3346
Rp3347
ag2
(g3
(S'S6'
p3348
I0
I1
tp3349
Rp3350
(I3
S'|'
p3351
NNNI6
I1
I0
tp3352
bS'SERVE6'
p3353
tp3354
Rp3355
ag2
(g3
(S'S6'
p3356
I0
I1
tp3357
Rp3358
(I3
S'|'
p3359
NNNI6
I1
I0
tp3360
bS'SERVE6'
p3361
tp3362
Rp3363
ag2
(g3
(S'S6'
p3364
I0
I1
tp3365
Rp3366
(I3
S'|'
p3367
NNNI6
I1
I0
tp3368
bS'SERVE6'
p3369
tp3370
Rp3371
ag2
(g3
(S'S6'
p3372
I0
I1
tp3373
Rp3374
(I3
S'|'
p3375
NNNI6
I1
I0
tp3376
bS'SERVE6'
p3377
tp3378
Rp3379
ag2
(g3
(S'S6'
p3380
I0
I1
tp3381
Rp3382
(I3
S'|'
p3383
NNNI6
I1
I0
tp3384
bS'SERVE6'
p3385
tp3386
Rp3387
ag2
(g3
(S'S6'
p3388
I0
I1
tp3389
Rp3390
(I3
S'|'
p3391
NNNI6
I1
I0
tp3392
bS'SERVE6'
p3393
tp3394
Rp3395
ag2
(g3
(S'S6'
p3396
I0
I1
tp3397
Rp3398
(I3
S'|'
p3399
NNNI6
I1
I0
tp3400
bS'SERVE6'
p3401
tp3402
Rp3403
ag2
(g3
(S'S6'
p3404
I0
I1
tp3405
Rp3406
(I3
S'|'
p3407
NNNI6
I1
I0
tp3408
bS'SERVE6'
p3409
tp3410
Rp3411
ag2
(g3
(S'S6'
p3412
I0
I1
tp3413
Rp3414
(I3
S'|'
p3415
NNNI6
I1
I0
tp3416
bS'SERVE6'
p3417
tp3418
Rp3419
ag2
(g3
(S'S6'
p3420
I0
I1
tp3421
Rp3422
(I3
S'|'
p3423
NNNI6
I1
I0
tp3424
bS'SERVE6'
p3425
tp3426
Rp3427
ag2
(g3
(S'S7'
p3428
I0
I1
tp3429
Rp3430
(I3
S'|'
p3431
NNNI7
I1
I0
tp3432
bS'SERVE12'
p3433
tp3434
Rp3435
ag2
(g3
(S'S6'
p3436
I0
I1
tp3437
Rp3438
(I3
S'|'
p3439
NNNI6
I1
I0
tp3440
bS'SERVE6'
p3441
tp3442
Rp3443
ag2
(g3
(S'S6'
p3444
I0
I1
tp3445
Rp3446
(I3
S'|'
p3447
NNNI6
I1
I0
tp3448
bS'SERVE6'
p3449
tp3450
Rp3451
ag2
(g3
(S'S6'
p3452
I0
I1
tp3453
Rp3454
(I3
S'|'
p3455
NNNI6
I1
I0
tp3456
bS'SERVE6'
p3457
tp3458
Rp3459
ag2
(g3
(S'S7'
p3460
I0
I1
tp3461
Rp3462
(I3
S'|'
p3463
NNNI7
I1
I0
tp3464
bS'SERVE12'
p3465
tp3466
Rp3467
ag2
(g3
(S'S6'
p3468
I0
I1
tp3469
Rp3470
(I3
S'|'
p3471
NNNI6
I1
I0
tp3472
bS'SERVE6'
p3473
tp3474
Rp3475
ag2
(g3
(S'S6'
p3476
I0
I1
tp3477
Rp3478
(I3
S'|'
p3479
NNNI6
I1
I0
tp3480
bS'SERVE6'
p3481
tp3482
Rp3483
ag2
(g3
(S'S7'
p3484
I0
I1
tp3485
Rp3486
(I3
S'|'
p3487
NNNI7
I1
I0
tp3488
bS'SERVE10'
p3489
tp3490
Rp3491
ag2
(g3
(S'S6'
p3492
I0
I1
tp3493
Rp3494
(I3
S'|'
p3495
NNNI6
I1
I0
tp3496
bS'SERVE6'
p3497
tp3498
Rp3499
aa(lp3500
g2
(g3
(S'S7'
p3501
I0
I1
tp3502
Rp3503
(I3
S'|'
p3504
NNNI7
I1
I0
tp3505
bS'SERVE10'
p3506
tp3507
Rp3508
ag2
(g3
(S'S7'
p3509
I0
I1
tp3510
Rp3511
(I3
S'|'
p3512
NNNI7
I1
I0
tp3513
bS'SERVE10'
p3514
tp3515
Rp3516
ag2
(g3
(S'S6'
p3517
I0
I1
tp3518
Rp3519
(I3
S'|'
p3520
NNNI6
I1
I0
tp3521
bS'SERVE6'
p3522
tp3523
Rp3524
ag2
(g3
(S'S7'
p3525
I0
I1
tp3526
Rp3527
(I3
S'|'
p3528
NNNI7
I1
I0
tp3529
bS'SERVE10'
p3530
tp3531
Rp3532
ag2
(g3
(S'S7'
p3533
I0
I1
tp3534
Rp3535
(I3
S'|'
p3536
NNNI7
I1
I0
tp3537
bS'SERVE10'
p3538
tp3539
Rp3540
ag2
(g3
(S'S7'
p3541
I0
I1
tp3542
Rp3543
(I3
S'|'
p3544
NNNI7
I1
I0
tp3545
bS'SERVE10'
p3546
tp3547
Rp3548
ag2
(g3
(S'S7'
p3549
I0
I1
tp3550
Rp3551
(I3
S'|'
p3552
NNNI7
I1
I0
tp3553
bS'SERVE10'
p3554
tp3555
Rp3556
ag2
(g3
(S'S7'
p3557
I0
I1
tp3558
Rp3559
(I3
S'|'
p3560
NNNI7
I1
I0
tp3561
bS'SERVE10'
p3562
tp3563
Rp3564
ag2
(g3
(S'S7'
p3565
I0
I1
tp3566
Rp3567
(I3
S'|'
p3568
NNNI7
I1
I0
tp3569
bS'SERVE10'
p3570
tp3571
Rp3572
ag2
(g3
(S'S7'
p3573
I0
I1
tp3574
Rp3575
(I3
S'|'
p3576
NNNI7
I1
I0
tp3577
bS'SERVE10'
p3578
tp3579
Rp3580
ag2
(g3
(S'S7'
p3581
I0
I1
tp3582
Rp3583
(I3
S'|'
p3584
NNNI7
I1
I0
tp3585
bS'SERVE10'
p3586
tp3587
Rp3588
ag2
(g3
(S'S7'
p3589
I0
I1
tp3590
Rp3591
(I3
S'|'
p3592
NNNI7
I1
I0
tp3593
bS'SERVE10'
p3594
tp3595
Rp3596
ag2
(g3
(S'S7'
p3597
I0
I1
tp3598
Rp3599
(I3
S'|'
p3600
NNNI7
I1
I0
tp3601
bS'SERVE10'
p3602
tp3603
Rp3604
ag2
(g3
(S'S7'
p3605
I0
I1
tp3606
Rp3607
(I3
S'|'
p3608
NNNI7
I1
I0
tp3609
bS'SERVE10'
p3610
tp3611
Rp3612
ag2
(g3
(S'S7'
p3613
I0
I1
tp3614
Rp3615
(I3
S'|'
p3616
NNNI7
I1
I0
tp3617
bS'SERVE10'
p3618
tp3619
Rp3620
ag2
(g3
(S'S7'
p3621
I0
I1
tp3622
Rp3623
(I3
S'|'
p3624
NNNI7
I1
I0
tp3625
bS'SERVE10'
p3626
tp3627
Rp3628
ag2
(g3
(S'S7'
p3629
I0
I1
tp3630
Rp3631
(I3
S'|'
p3632
NNNI7
I1
I0
tp3633
bS'SERVE10'
p3634
tp3635
Rp3636
ag2
(g3
(S'S7'
p3637
I0
I1
tp3638
Rp3639
(I3
S'|'
p3640
NNNI7
I1
I0
tp3641
bS'SERVE10'
p3642
tp3643
Rp3644
ag2
(g3
(S'S7'
p3645
I0
I1
tp3646
Rp3647
(I3
S'|'
p3648
NNNI7
I1
I0
tp3649
bS'SERVE10'
p3650
tp3651
Rp3652
ag2
(g3
(S'S7'
p3653
I0
I1
tp3654
Rp3655
(I3
S'|'
p3656
NNNI7
I1
I0
tp3657
bS'SERVE10'
p3658
tp3659
Rp3660
ag2
(g3
(S'S7'
p3661
I0
I1
tp3662
Rp3663
(I3
S'|'
p3664
NNNI7
I1
I0
tp3665
bS'SERVE12'
p3666
tp3667
Rp3668
ag2
(g3
(S'S7'
p3669
I0
I1
tp3670
Rp3671
(I3
S'|'
p3672
NNNI7
I1
I0
tp3673
bS'SERVE10'
p3674
tp3675
Rp3676
ag2
(g3
(S'S7'
p3677
I0
I1
tp3678
Rp3679
(I3
S'|'
p3680
NNNI7
I1
I0
tp3681
bS'SERVE12'
p3682
tp3683
Rp3684
ag2
(g3
(S'S7'
p3685
I0
I1
tp3686
Rp3687
(I3
S'|'
p3688
NNNI7
I1
I0
tp3689
bS'SERVE10'
p3690
tp3691
Rp3692
ag2
(g3
(S'S7'
p3693
I0
I1
tp3694
Rp3695
(I3
S'|'
p3696
NNNI7
I1
I0
tp3697
bS'SERVE10'
p3698
tp3699
Rp3700
ag2
(g3
(S'S7'
p3701
I0
I1
tp3702
Rp3703
(I3
S'|'
p3704
NNNI7
I1
I0
tp3705
bS'SERVE10'
p3706
tp3707
Rp3708
ag2
(g3
(S'S7'
p3709
I0
I1
tp3710
Rp3711
(I3
S'|'
p3712
NNNI7
I1
I0
tp3713
bS'SERVE10'
p3714
tp3715
Rp3716
ag2
(g3
(S'S7'
p3717
I0
I1
tp3718
Rp3719
(I3
S'|'
p3720
NNNI7
I1
I0
tp3721
bS'SERVE10'
p3722
tp3723
Rp3724
ag2
(g3
(S'S7'
p3725
I0
I1
tp3726
Rp3727
(I3
S'|'
p3728
NNNI7
I1
I0
tp3729
bS'SERVE10'
p3730
tp3731
Rp3732
ag2
(g3
(S'S7'
p3733
I0
I1
tp3734
Rp3735
(I3
S'|'
p3736
NNNI7
I1
I0
tp3737
bS'SERVE10'
p3738
tp3739
Rp3740
ag2
(g3
(S'S7'
p3741
I0
I1
tp3742
Rp3743
(I3
S'|'
p3744
NNNI7
I1
I0
tp3745
bS'SERVE10'
p3746
tp3747
Rp3748
ag2
(g3
(S'S7'
p3749
I0
I1
tp3750
Rp3751
(I3
S'|'
p3752
NNNI7
I1
I0
tp3753
bS'SERVE10'
p3754
tp3755
Rp3756
ag2
(g3
(S'S7'
p3757
I0
I1
tp3758
Rp3759
(I3
S'|'
p3760
NNNI7
I1
I0
tp3761
bS'SERVE10'
p3762
tp3763
Rp3764
ag2
(g3
(S'S7'
p3765
I0
I1
tp3766
Rp3767
(I3
S'|'
p3768
NNNI7
I1
I0
tp3769
bS'SERVE12'
p3770
tp3771
Rp3772
ag2
(g3
(S'S7'
p3773
I0
I1
tp3774
Rp3775
(I3
S'|'
p3776
NNNI7
I1
I0
tp3777
bS'SERVE10'
p3778
tp3779
Rp3780
ag2
(g3
(S'S6'
p3781
I0
I1
tp3782
Rp3783
(I3
S'|'
p3784
NNNI6
I1
I0
tp3785
bS'SERVE6'
p3786
tp3787
Rp3788
ag2
(g3
(S'S7'
p3789
I0
I1
tp3790
Rp3791
(I3
S'|'
p3792
NNNI7
I1
I0
tp3793
bS'SERVE10'
p3794
tp3795
Rp3796
ag2
(g3
(S'S7'
p3797
I0
I1
tp3798
Rp3799
(I3
S'|'
p3800
NNNI7
I1
I0
tp3801
bS'SERVE10'
p3802
tp3803
Rp3804
ag2
(g3
(S'S7'
p3805
I0
I1
tp3806
Rp3807
(I3
S'|'
p3808
NNNI7
I1
I0
tp3809
bS'SERVE10'
p3810
tp3811
Rp3812
ag2
(g3
(S'S7'
p3813
I0
I1
tp3814
Rp3815
(I3
S'|'
p3816
NNNI7
I1
I0
tp3817
bS'SERVE10'
p3818
tp3819
Rp3820
ag2
(g3
(S'S7'
p3821
I0
I1
tp3822
Rp3823
(I3
S'|'
p3824
NNNI7
I1
I0
tp3825
bS'SERVE10'
p3826
tp3827
Rp3828
ag2
(g3
(S'S7'
p3829
I0
I1
tp3830
Rp3831
(I3
S'|'
p3832
NNNI7
I1
I0
tp3833
bS'SERVE10'
p3834
tp3835
Rp3836
ag2
(g3
(S'S7'
p3837
I0
I1
tp3838
Rp3839
(I3
S'|'
p3840
NNNI7
I1
I0
tp3841
bS'SERVE10'
p3842
tp3843
Rp3844
ag2
(g3
(S'S6'
p3845
I0
I1
tp3846
Rp3847
(I3
S'|'
p3848
NNNI6
I1
I0
tp3849
bS'SERVE6'
p3850
tp3851
Rp3852
ag2
(g3
(S'S7'
p3853
I0
I1
tp3854
Rp3855
(I3
S'|'
p3856
NNNI7
I1
I0
tp3857
bS'SERVE10'
p3858
tp3859
Rp3860
ag2
(g3
(S'S7'
p3861
I0
I1
tp3862
Rp3863
(I3
S'|'
p3864
NNNI7
I1
I0
tp3865
bS'SERVE10'
p3866
tp3867
Rp3868
ag2
(g3
(S'S7'
p3869
I0
I1
tp3870
Rp3871
(I3
S'|'
p3872
NNNI7
I1
I0
tp3873
bS'SERVE10'
p3874
tp3875
Rp3876
ag2
(g3
(S'S7'
p3877
I0
I1
tp3878
Rp3879
(I3
S'|'
p3880
NNNI7
I1
I0
tp3881
bS'SERVE10'
p3882
tp3883
Rp3884
ag2
(g3
(S'S7'
p3885
I0
I1
tp3886
Rp3887
(I3
S'|'
p3888
NNNI7
I1
I0
tp3889
bS'SERVE10'
p3890
tp3891
Rp3892
ag2
(g3
(S'S7'
p3893
I0
I1
tp3894
Rp3895
(I3
S'|'
p3896
NNNI7
I1
I0
tp3897
bS'SERVE10'
p3898
tp3899
Rp3900
ag2
(g3
(S'S7'
p3901
I0
I1
tp3902
Rp3903
(I3
S'|'
p3904
NNNI7
I1
I0
tp3905
bS'SERVE10'
p3906
tp3907
Rp3908
ag2
(g3
(S'S7'
p3909
I0
I1
tp3910
Rp3911
(I3
S'|'
p3912
NNNI7
I1
I0
tp3913
bS'SERVE10'
p3914
tp3915
Rp3916
ag2
(g3
(S'S7'
p3917
I0
I1
tp3918
Rp3919
(I3
S'|'
p3920
NNNI7
I1
I0
tp3921
bS'SERVE10'
p3922
tp3923
Rp3924
ag2
(g3
(S'S7'
p3925
I0
I1
tp3926
Rp3927
(I3
S'|'
p3928
NNNI7
I1
I0
tp3929
bS'SERVE10'
p3930
tp3931
Rp3932
ag2
(g3
(S'S7'
p3933
I0
I1
tp3934
Rp3935
(I3
S'|'
p3936
NNNI7
I1
I0
tp3937
bS'SERVE10'
p3938
tp3939
Rp3940
ag2
(g3
(S'S7'
p3941
I0
I1
tp3942
Rp3943
(I3
S'|'
p3944
NNNI7
I1
I0
tp3945
bS'SERVE10'
p3946
tp3947
Rp3948
ag2
(g3
(S'S7'
p3949
I0
I1
tp3950
Rp3951
(I3
S'|'
p3952
NNNI7
I1
I0
tp3953
bS'SERVE10'
p3954
tp3955
Rp3956
ag2
(g3
(S'S7'
p3957
I0
I1
tp3958
Rp3959
(I3
S'|'
p3960
NNNI7
I1
I0
tp3961
bS'SERVE10'
p3962
tp3963
Rp3964
ag2
(g3
(S'S7'
p3965
I0
I1
tp3966
Rp3967
(I3
S'|'
p3968
NNNI7
I1
I0
tp3969
bS'SERVE12'
p3970
tp3971
Rp3972
ag2
(g3
(S'S7'
p3973
I0
I1
tp3974
Rp3975
(I3
S'|'
p3976
NNNI7
I1
I0
tp3977
bS'SERVE10'
p3978
tp3979
Rp3980
ag2
(g3
(S'S7'
p3981
I0
I1
tp3982
Rp3983
(I3
S'|'
p3984
NNNI7
I1
I0
tp3985
bS'SERVE10'
p3986
tp3987
Rp3988
ag2
(g3
(S'S7'
p3989
I0
I1
tp3990
Rp3991
(I3
S'|'
p3992
NNNI7
I1
I0
tp3993
bS'SERVE10'
p3994
tp3995
Rp3996
ag2
(g3
(S'S7'
p3997
I0
I1
tp3998
Rp3999
(I3
S'|'
p4000
NNNI7
I1
I0
tp4001
bS'SERVE10'
p4002
tp4003
Rp4004
ag2
(g3
(S'S7'
p4005
I0
I1
tp4006
Rp4007
(I3
S'|'
p4008
NNNI7
I1
I0
tp4009
bS'SERVE10'
p4010
tp4011
Rp4012
ag2
(g3
(S'S7'
p4013
I0
I1
tp4014
Rp4015
(I3
S'|'
p4016
NNNI7
I1
I0
tp4017
bS'SERVE10'
p4018
tp4019
Rp4020
ag2
(g3
(S'S7'
p4021
I0
I1
tp4022
Rp4023
(I3
S'|'
p4024
NNNI7
I1
I0
tp4025
bS'SERVE10'
p4026
tp4027
Rp4028
ag2
(g3
(S'S7'
p4029
I0
I1
tp4030
Rp4031
(I3
S'|'
p4032
NNNI7
I1
I0
tp4033
bS'SERVE10'
p4034
tp4035
Rp4036
ag2
(g3
(S'S7'
p4037
I0
I1
tp4038
Rp4039
(I3
S'|'
p4040
NNNI7
I1
I0
tp4041
bS'SERVE10'
p4042
tp4043
Rp4044
ag2
(g3
(S'S7'
p4045
I0
I1
tp4046
Rp4047
(I3
S'|'
p4048
NNNI7
I1
I0
tp4049
bS'SERVE10'
p4050
tp4051
Rp4052
ag2
(g3
(S'S7'
p4053
I0
I1
tp4054
Rp4055
(I3
S'|'
p4056
NNNI7
I1
I0
tp4057
bS'SERVE10'
p4058
tp4059
Rp4060
ag2
(g3
(S'S7'
p4061
I0
I1
tp4062
Rp4063
(I3
S'|'
p4064
NNNI7
I1
I0
tp4065
bS'SERVE10'
p4066
tp4067
Rp4068
ag2
(g3
(S'S7'
p4069
I0
I1
tp4070
Rp4071
(I3
S'|'
p4072
NNNI7
I1
I0
tp4073
bS'SERVE10'
p4074
tp4075
Rp4076
ag2
(g3
(S'S7'
p4077
I0
I1
tp4078
Rp4079
(I3
S'|'
p4080
NNNI7
I1
I0
tp4081
bS'SERVE10'
p4082
tp4083
Rp4084
ag2
(g3
(S'S7'
p4085
I0
I1
tp4086
Rp4087
(I3
S'|'
p4088
NNNI7
I1
I0
tp4089
bS'SERVE10'
p4090
tp4091
Rp4092
ag2
(g3
(S'S7'
p4093
I0
I1
tp4094
Rp4095
(I3
S'|'
p4096
NNNI7
I1
I0
tp4097
bS'SERVE10'
p4098
tp4099
Rp4100
ag2
(g3
(S'S7'
p4101
I0
I1
tp4102
Rp4103
(I3
S'|'
p4104
NNNI7
I1
I0
tp4105
bS'SERVE10'
p4106
tp4107
Rp4108
ag2
(g3
(S'S7'
p4109
I0
I1
tp4110
Rp4111
(I3
S'|'
p4112
NNNI7
I1
I0
tp4113
bS'SERVE10'
p4114
tp4115
Rp4116
ag2
(g3
(S'S7'
p4117
I0
I1
tp4118
Rp4119
(I3
S'|'
p4120
NNNI7
I1
I0
tp4121
bS'SERVE10'
p4122
tp4123
Rp4124
ag2
(g3
(S'S7'
p4125
I0
I1
tp4126
Rp4127
(I3
S'|'
p4128
NNNI7
I1
I0
tp4129
bS'SERVE10'
p4130
tp4131
Rp4132
ag2
(g3
(S'S7'
p4133
I0
I1
tp4134
Rp4135
(I3
S'|'
p4136
NNNI7
I1
I0
tp4137
bS'SERVE10'
p4138
tp4139
Rp4140
ag2
(g3
(S'S7'
p4141
I0
I1
tp4142
Rp4143
(I3
S'|'
p4144
NNNI7
I1
I0
tp4145
bS'SERVE10'
p4146
tp4147
Rp4148
ag2
(g3
(S'S7'
p4149
I0
I1
tp4150
Rp4151
(I3
S'|'
p4152
NNNI7
I1
I0
tp4153
bS'SERVE10'
p4154
tp4155
Rp4156
ag2
(g3
(S'S7'
p4157
I0
I1
tp4158
Rp4159
(I3
S'|'
p4160
NNNI7
I1
I0
tp4161
bS'SERVE10'
p4162
tp4163
Rp4164
ag2
(g3
(S'S7'
p4165
I0
I1
tp4166
Rp4167
(I3
S'|'
p4168
NNNI7
I1
I0
tp4169
bS'SERVE10'
p4170
tp4171
Rp4172
ag2
(g3
(S'S7'
p4173
I0
I1
tp4174
Rp4175
(I3
S'|'
p4176
NNNI7
I1
I0
tp4177
bS'SERVE10'
p4178
tp4179
Rp4180
ag2
(g3
(S'S7'
p4181
I0
I1
tp4182
Rp4183
(I3
S'|'
p4184
NNNI7
I1
I0
tp4185
bS'SERVE10'
p4186
tp4187
Rp4188
ag2
(g3
(S'S7'
p4189
I0
I1
tp4190
Rp4191
(I3
S'|'
p4192
NNNI7
I1
I0
tp4193
bS'SERVE10'
p4194
tp4195
Rp4196
ag2
(g3
(S'S7'
p4197
I0
I1
tp4198
Rp4199
(I3
S'|'
p4200
NNNI7
I1
I0
tp4201
bS'SERVE12'
p4202
tp4203
Rp4204
ag2
(g3
(S'S7'
p4205
I0
I1
tp4206
Rp4207
(I3
S'|'
p4208
NNNI7
I1
I0
tp4209
bS'SERVE10'
p4210
tp4211
Rp4212
ag2
(g3
(S'S7'
p4213
I0
I1
tp4214
Rp4215
(I3
S'|'
p4216
NNNI7
I1
I0
tp4217
bS'SERVE10'
p4218
tp4219
Rp4220
ag2
(g3
(S'S7'
p4221
I0
I1
tp4222
Rp4223
(I3
S'|'
p4224
NNNI7
I1
I0
tp4225
bS'SERVE10'
p4226
tp4227
Rp4228
ag2
(g3
(S'S7'
p4229
I0
I1
tp4230
Rp4231
(I3
S'|'
p4232
NNNI7
I1
I0
tp4233
bS'SERVE10'
p4234
tp4235
Rp4236
ag2
(g3
(S'S7'
p4237
I0
I1
tp4238
Rp4239
(I3
S'|'
p4240
NNNI7
I1
I0
tp4241
bS'SERVE10'
p4242
tp4243
Rp4244
ag2
(g3
(S'S7'
p4245
I0
I1
tp4246
Rp4247
(I3
S'|'
p4248
NNNI7
I1
I0
tp4249
bS'SERVE10'
p4250
tp4251
Rp4252
ag2
(g3
(S'S7'
p4253
I0
I1
tp4254
Rp4255
(I3
S'|'
p4256
NNNI7
I1
I0
tp4257
bS'SERVE10'
p4258
tp4259
Rp4260
ag2
(g3
(S'S7'
p4261
I0
I1
tp4262
Rp4263
(I3
S'|'
p4264
NNNI7
I1
I0
tp4265
bS'SERVE10'
p4266
tp4267
Rp4268
ag2
(g3
(S'S7'
p4269
I0
I1
tp4270
Rp4271
(I3
S'|'
p4272
NNNI7
I1
I0
tp4273
bS'SERVE10'
p4274
tp4275
Rp4276
ag2
(g3
(S'S7'
p4277
I0
I1
tp4278
Rp4279
(I3
S'|'
p4280
NNNI7
I1
I0
tp4281
bS'SERVE10'
p4282
tp4283
Rp4284
ag2
(g3
(S'S7'
p4285
I0
I1
tp4286
Rp4287
(I3
S'|'
p4288
NNNI7
I1
I0
tp4289
bS'SERVE10'
p4290
tp4291
Rp4292
ag2
(g3
(S'S7'
p4293
I0
I1
tp4294
Rp4295
(I3
S'|'
p4296
NNNI7
I1
I0
tp4297
bS'SERVE10'
p4298
tp4299
Rp4300
ag2
(g3
(S'S7'
p4301
I0
I1
tp4302
Rp4303
(I3
S'|'
p4304
NNNI7
I1
I0
tp4305
bS'SERVE10'
p4306
tp4307
Rp4308
ag2
(g3
(S'S6'
p4309
I0
I1
tp4310
Rp4311
(I3
S'|'
p4312
NNNI6
I1
I0
tp4313
bS'SERVE2'
p4314
tp4315
Rp4316
ag2
(g3
(S'S7'
p4317
I0
I1
tp4318
Rp4319
(I3
S'|'
p4320
NNNI7
I1
I0
tp4321
bS'SERVE10'
p4322
tp4323
Rp4324
ag2
(g3
(S'S7'
p4325
I0
I1
tp4326
Rp4327
(I3
S'|'
p4328
NNNI7
I1
I0
tp4329
bS'SERVE10'
p4330
tp4331
Rp4332
ag2
(g3
(S'S7'
p4333
I0
I1
tp4334
Rp4335
(I3
S'|'
p4336
NNNI7
I1
I0
tp4337
bS'SERVE10'
p4338
tp4339
Rp4340
ag2
(g3
(S'S7'
p4341
I0
I1
tp4342
Rp4343
(I3
S'|'
p4344
NNNI7
I1
I0
tp4345
bS'SERVE10'
p4346
tp4347
Rp4348
ag2
(g3
(S'S7'
p4349
I0
I1
tp4350
Rp4351
(I3
S'|'
p4352
NNNI7
I1
I0
tp4353
bS'SERVE10'
p4354
tp4355
Rp4356
ag2
(g3
(S'S7'
p4357
I0
I1
tp4358
Rp4359
(I3
S'|'
p4360
NNNI7
I1
I0
tp4361
bS'SERVE10'
p4362
tp4363
Rp4364
ag2
(g3
(S'S7'
p4365
I0
I1
tp4366
Rp4367
(I3
S'|'
p4368
NNNI7
I1
I0
tp4369
bS'SERVE12'
p4370
tp4371
Rp4372
ag2
(g3
(S'S7'
p4373
I0
I1
tp4374
Rp4375
(I3
S'|'
p4376
NNNI7
I1
I0
tp4377
bS'SERVE10'
p4378
tp4379
Rp4380
ag2
(g3
(S'S7'
p4381
I0
I1
tp4382
Rp4383
(I3
S'|'
p4384
NNNI7
I1
I0
tp4385
bS'SERVE10'
p4386
tp4387
Rp4388
ag2
(g3
(S'S7'
p4389
I0
I1
tp4390
Rp4391
(I3
S'|'
p4392
NNNI7
I1
I0
tp4393
bS'SERVE10'
p4394
tp4395
Rp4396
ag2
(g3
(S'S7'
p4397
I0
I1
tp4398
Rp4399
(I3
S'|'
p4400
NNNI7
I1
I0
tp4401
bS'SERVE10'
p4402
tp4403
Rp4404
ag2
(g3
(S'S7'
p4405
I0
I1
tp4406
Rp4407
(I3
S'|'
p4408
NNNI7
I1
I0
tp4409
bS'SERVE10'
p4410
tp4411
Rp4412
ag2
(g3
(S'S7'
p4413
I0
I1
tp4414
Rp4415
(I3
S'|'
p4416
NNNI7
I1
I0
tp4417
bS'SERVE10'
p4418
tp4419
Rp4420
ag2
(g3
(S'S7'
p4421
I0
I1
tp4422
Rp4423
(I3
S'|'
p4424
NNNI7
I1
I0
tp4425
bS'SERVE10'
p4426
tp4427
Rp4428
ag2
(g3
(S'S7'
p4429
I0
I1
tp4430
Rp4431
(I3
S'|'
p4432
NNNI7
I1
I0
tp4433
bS'SERVE10'
p4434
tp4435
Rp4436
ag2
(g3
(S'S7'
p4437
I0
I1
tp4438
Rp4439
(I3
S'|'
p4440
NNNI7
I1
I0
tp4441
bS'SERVE10'
p4442
tp4443
Rp4444
ag2
(g3
(S'S7'
p4445
I0
I1
tp4446
Rp4447
(I3
S'|'
p4448
NNNI7
I1
I0
tp4449
bS'SERVE10'
p4450
tp4451
Rp4452
ag2
(g3
(S'S7'
p4453
I0
I1
tp4454
Rp4455
(I3
S'|'
p4456
NNNI7
I1
I0
tp4457
bS'SERVE10'
p4458
tp4459
Rp4460
ag2
(g3
(S'S7'
p4461
I0
I1
tp4462
Rp4463
(I3
S'|'
p4464
NNNI7
I1
I0
tp4465
bS'SERVE10'
p4466
tp4467
Rp4468
ag2
(g3
(S'S7'
p4469
I0
I1
tp4470
Rp4471
(I3
S'|'
p4472
NNNI7
I1
I0
tp4473
bS'SERVE10'
p4474
tp4475
Rp4476
ag2
(g3
(S'S7'
p4477
I0
I1
tp4478
Rp4479
(I3
S'|'
p4480
NNNI7
I1
I0
tp4481
bS'SERVE10'
p4482
tp4483
Rp4484
ag2
(g3
(S'S7'
p4485
I0
I1
tp4486
Rp4487
(I3
S'|'
p4488
NNNI7
I1
I0
tp4489
bS'SERVE10'
p4490
tp4491
Rp4492
ag2
(g3
(S'S7'
p4493
I0
I1
tp4494
Rp4495
(I3
S'|'
p4496
NNNI7
I1
I0
tp4497
bS'SERVE10'
p4498
tp4499
Rp4500
ag2
(g3
(S'S7'
p4501
I0
I1
tp4502
Rp4503
(I3
S'|'
p4504
NNNI7
I1
I0
tp4505
bS'SERVE10'
p4506
tp4507
Rp4508
ag2
(g3
(S'S7'
p4509
I0
I1
tp4510
Rp4511
(I3
S'|'
p4512
NNNI7
I1
I0
tp4513
bS'SERVE10'
p4514
tp4515
Rp4516
ag2
(g3
(S'S7'
p4517
I0
I1
tp4518
Rp4519
(I3
S'|'
p4520
NNNI7
I1
I0
tp4521
bS'SERVE10'
p4522
tp4523
Rp4524
ag2
(g3
(S'S7'
p4525
I0
I1
tp4526
Rp4527
(I3
S'|'
p4528
NNNI7
I1
I0
tp4529
bS'SERVE10'
p4530
tp4531
Rp4532
ag2
(g3
(S'S7'
p4533
I0
I1
tp4534
Rp4535
(I3
S'|'
p4536
NNNI7
I1
I0
tp4537
bS'SERVE12'
p4538
tp4539
Rp4540
ag2
(g3
(S'S7'
p4541
I0
I1
tp4542
Rp4543
(I3
S'|'
p4544
NNNI7
I1
I0
tp4545
bS'SERVE12'
p4546
tp4547
Rp4548
ag2
(g3
(S'S7'
p4549
I0
I1
tp4550
Rp4551
(I3
S'|'
p4552
NNNI7
I1
I0
tp4553
bS'SERVE10'
p4554
tp4555
Rp4556
ag2
(g3
(S'S7'
p4557
I0
I1
tp4558
Rp4559
(I3
S'|'
p4560
NNNI7
I1
I0
tp4561
bS'SERVE10'
p4562
tp4563
Rp4564
ag2
(g3
(S'S7'
p4565
I0
I1
tp4566
Rp4567
(I3
S'|'
p4568
NNNI7
I1
I0
tp4569
bS'SERVE10'
p4570
tp4571
Rp4572
ag2
(g3
(S'S7'
p4573
I0
I1
tp4574
Rp4575
(I3
S'|'
p4576
NNNI7
I1
I0
tp4577
bS'SERVE10'
p4578
tp4579
Rp4580
ag2
(g3
(S'S7'
p4581
I0
I1
tp4582
Rp4583
(I3
S'|'
p4584
NNNI7
I1
I0
tp4585
bS'SERVE10'
p4586
tp4587
Rp4588
ag2
(g3
(S'S7'
p4589
I0
I1
tp4590
Rp4591
(I3
S'|'
p4592
NNNI7
I1
I0
tp4593
bS'SERVE10'
p4594
tp4595
Rp4596
ag2
(g3
(S'S7'
p4597
I0
I1
tp4598
Rp4599
(I3
S'|'
p4600
NNNI7
I1
I0
tp4601
bS'SERVE10'
p4602
tp4603
Rp4604
ag2
(g3
(S'S7'
p4605
I0
I1
tp4606
Rp4607
(I3
S'|'
p4608
NNNI7
I1
I0
tp4609
bS'SERVE10'
p4610
tp4611
Rp4612
ag2
(g3
(S'S7'
p4613
I0
I1
tp4614
Rp4615
(I3
S'|'
p4616
NNNI7
I1
I0
tp4617
bS'SERVE10'
p4618
tp4619
Rp4620
ag2
(g3
(S'S7'
p4621
I0
I1
tp4622
Rp4623
(I3
S'|'
p4624
NNNI7
I1
I0
tp4625
bS'SERVE10'
p4626
tp4627
Rp4628
ag2
(g3
(S'S7'
p4629
I0
I1
tp4630
Rp4631
(I3
S'|'
p4632
NNNI7
I1
I0
tp4633
bS'SERVE10'
p4634
tp4635
Rp4636
ag2
(g3
(S'S7'
p4637
I0
I1
tp4638
Rp4639
(I3
S'|'
p4640
NNNI7
I1
I0
tp4641
bS'SERVE10'
p4642
tp4643
Rp4644
ag2
(g3
(S'S7'
p4645
I0
I1
tp4646
Rp4647
(I3
S'|'
p4648
NNNI7
I1
I0
tp4649
bS'SERVE10'
p4650
tp4651
Rp4652
ag2
(g3
(S'S7'
p4653
I0
I1
tp4654
Rp4655
(I3
S'|'
p4656
NNNI7
I1
I0
tp4657
bS'SERVE10'
p4658
tp4659
Rp4660
ag2
(g3
(S'S7'
p4661
I0
I1
tp4662
Rp4663
(I3
S'|'
p4664
NNNI7
I1
I0
tp4665
bS'SERVE10'
p4666
tp4667
Rp4668
ag2
(g3
(S'S7'
p4669
I0
I1
tp4670
Rp4671
(I3
S'|'
p4672
NNNI7
I1
I0
tp4673
bS'SERVE10'
p4674
tp4675
Rp4676
ag2
(g3
(S'S7'
p4677
I0
I1
tp4678
Rp4679
(I3
S'|'
p4680
NNNI7
I1
I0
tp4681
bS'SERVE10'
p4682
tp4683
Rp4684
ag2
(g3
(S'S7'
p4685
I0
I1
tp4686
Rp4687
(I3
S'|'
p4688
NNNI7
I1
I0
tp4689
bS'SERVE10'
p4690
tp4691
Rp4692
ag2
(g3
(S'S7'
p4693
I0
I1
tp4694
Rp4695
(I3
S'|'
p4696
NNNI7
I1
I0
tp4697
bS'SERVE10'
p4698
tp4699
Rp4700
ag2
(g3
(S'S7'
p4701
I0
I1
tp4702
Rp4703
(I3
S'|'
p4704
NNNI7
I1
I0
tp4705
bS'SERVE10'
p4706
tp4707
Rp4708
ag2
(g3
(S'S7'
p4709
I0
I1
tp4710
Rp4711
(I3
S'|'
p4712
NNNI7
I1
I0
tp4713
bS'SERVE10'
p4714
tp4715
Rp4716
ag2
(g3
(S'S7'
p4717
I0
I1
tp4718
Rp4719
(I3
S'|'
p4720
NNNI7
I1
I0
tp4721
bS'SERVE10'
p4722
tp4723
Rp4724
ag2
(g3
(S'S7'
p4725
I0
I1
tp4726
Rp4727
(I3
S'|'
p4728
NNNI7
I1
I0
tp4729
bS'SERVE10'
p4730
tp4731
Rp4732
ag2
(g3
(S'S7'
p4733
I0
I1
tp4734
Rp4735
(I3
S'|'
p4736
NNNI7
I1
I0
tp4737
bS'SERVE10'
p4738
tp4739
Rp4740
ag2
(g3
(S'S7'
p4741
I0
I1
tp4742
Rp4743
(I3
S'|'
p4744
NNNI7
I1
I0
tp4745
bS'SERVE10'
p4746
tp4747
Rp4748
ag2
(g3
(S'S7'
p4749
I0
I1
tp4750
Rp4751
(I3
S'|'
p4752
NNNI7
I1
I0
tp4753
bS'SERVE10'
p4754
tp4755
Rp4756
ag2
(g3
(S'S7'
p4757
I0
I1
tp4758
Rp4759
(I3
S'|'
p4760
NNNI7
I1
I0
tp4761
bS'SERVE10'
p4762
tp4763
Rp4764
ag2
(g3
(S'S7'
p4765
I0
I1
tp4766
Rp4767
(I3
S'|'
p4768
NNNI7
I1
I0
tp4769
bS'SERVE10'
p4770
tp4771
Rp4772
ag2
(g3
(S'S7'
p4773
I0
I1
tp4774
Rp4775
(I3
S'|'
p4776
NNNI7
I1
I0
tp4777
bS'SERVE10'
p4778
tp4779
Rp4780
ag2
(g3
(S'S7'
p4781
I0
I1
tp4782
Rp4783
(I3
S'|'
p4784
NNNI7
I1
I0
tp4785
bS'SERVE10'
p4786
tp4787
Rp4788
ag2
(g3
(S'S7'
p4789
I0
I1
tp4790
Rp4791
(I3
S'|'
p4792
NNNI7
I1
I0
tp4793
bS'SERVE10'
p4794
tp4795
Rp4796
ag2
(g3
(S'S7'
p4797
I0
I1
tp4798
Rp4799
(I3
S'|'
p4800
NNNI7
I1
I0
tp4801
bS'SERVE10'
p4802
tp4803
Rp4804
ag2
(g3
(S'S7'
p4805
I0
I1
tp4806
Rp4807
(I3
S'|'
p4808
NNNI7
I1
I0
tp4809
bS'SERVE10'
p4810
tp4811
Rp4812
ag2
(g3
(S'S7'
p4813
I0
I1
tp4814
Rp4815
(I3
S'|'
p4816
NNNI7
I1
I0
tp4817
bS'SERVE10'
p4818
tp4819
Rp4820
ag2
(g3
(S'S7'
p4821
I0
I1
tp4822
Rp4823
(I3
S'|'
p4824
NNNI7
I1
I0
tp4825
bS'SERVE10'
p4826
tp4827
Rp4828
ag2
(g3
(S'S7'
p4829
I0
I1
tp4830
Rp4831
(I3
S'|'
p4832
NNNI7
I1
I0
tp4833
bS'SERVE10'
p4834
tp4835
Rp4836
ag2
(g3
(S'S7'
p4837
I0
I1
tp4838
Rp4839
(I3
S'|'
p4840
NNNI7
I1
I0
tp4841
bS'SERVE10'
p4842
tp4843
Rp4844
ag2
(g3
(S'S7'
p4845
I0
I1
tp4846
Rp4847
(I3
S'|'
p4848
NNNI7
I1
I0
tp4849
bS'SERVE10'
p4850
tp4851
Rp4852
ag2
(g3
(S'S7'
p4853
I0
I1
tp4854
Rp4855
(I3
S'|'
p4856
NNNI7
I1
I0
tp4857
bS'SERVE10'
p4858
tp4859
Rp4860
ag2
(g3
(S'S7'
p4861
I0
I1
tp4862
Rp4863
(I3
S'|'
p4864
NNNI7
I1
I0
tp4865
bS'SERVE10'
p4866
tp4867
Rp4868
ag2
(g3
(S'S7'
p4869
I0
I1
tp4870
Rp4871
(I3
S'|'
p4872
NNNI7
I1
I0
tp4873
bS'SERVE10'
p4874
tp4875
Rp4876
ag2
(g3
(S'S7'
p4877
I0
I1
tp4878
Rp4879
(I3
S'|'
p4880
NNNI7
I1
I0
tp4881
bS'SERVE10'
p4882
tp4883
Rp4884
ag2
(g3
(S'S7'
p4885
I0
I1
tp4886
Rp4887
(I3
S'|'
p4888
NNNI7
I1
I0
tp4889
bS'SERVE10'
p4890
tp4891
Rp4892
ag2
(g3
(S'S7'
p4893
I0
I1
tp4894
Rp4895
(I3
S'|'
p4896
NNNI7
I1
I0
tp4897
bS'SERVE10'
p4898
tp4899
Rp4900
ag2
(g3
(S'S7'
p4901
I0
I1
tp4902
Rp4903
(I3
S'|'
p4904
NNNI7
I1
I0
tp4905
bS'SERVE10'
p4906
tp4907
Rp4908
ag2
(g3
(S'S6'
p4909
I0
I1
tp4910
Rp4911
(I3
S'|'
p4912
NNNI6
I1
I0
tp4913
bS'SERVE2'
p4914
tp4915
Rp4916
ag2
(g3
(S'S7'
p4917
I0
I1
tp4918
Rp4919
(I3
S'|'
p4920
NNNI7
I1
I0
tp4921
bS'SERVE10'
p4922
tp4923
Rp4924
ag2
(g3
(S'S7'
p4925
I0
I1
tp4926
Rp4927
(I3
S'|'
p4928
NNNI7
I1
I0
tp4929
bS'SERVE10'
p4930
tp4931
Rp4932
ag2
(g3
(S'S7'
p4933
I0
I1
tp4934
Rp4935
(I3
S'|'
p4936
NNNI7
I1
I0
tp4937
bS'SERVE10'
p4938
tp4939
Rp4940
ag2
(g3
(S'S7'
p4941
I0
I1
tp4942
Rp4943
(I3
S'|'
p4944
NNNI7
I1
I0
tp4945
bS'SERVE10'
p4946
tp4947
Rp4948
ag2
(g3
(S'S7'
p4949
I0
I1
tp4950
Rp4951
(I3
S'|'
p4952
NNNI7
I1
I0
tp4953
bS'SERVE12'
p4954
tp4955
Rp4956
ag2
(g3
(S'S7'
p4957
I0
I1
tp4958
Rp4959
(I3
S'|'
p4960
NNNI7
I1
I0
tp4961
bS'SERVE12'
p4962
tp4963
Rp4964
ag2
(g3
(S'S7'
p4965
I0
I1
tp4966
Rp4967
(I3
S'|'
p4968
NNNI7
I1
I0
tp4969
bS'SERVE12'
p4970
tp4971
Rp4972
ag2
(g3
(S'S7'
p4973
I0
I1
tp4974
Rp4975
(I3
S'|'
p4976
NNNI7
I1
I0
tp4977
bS'SERVE12'
p4978
tp4979
Rp4980
ag2
(g3
(S'S7'
p4981
I0
I1
tp4982
Rp4983
(I3
S'|'
p4984
NNNI7
I1
I0
tp4985
bS'SERVE12'
p4986
tp4987
Rp4988
ag2
(g3
(S'S7'
p4989
I0
I1
tp4990
Rp4991
(I3
S'|'
p4992
NNNI7
I1
I0
tp4993
bS'SERVE12'
p4994
tp4995
Rp4996
ag2
(g3
(S'S7'
p4997
I0
I1
tp4998
Rp4999
(I3
S'|'
p5000
NNNI7
I1
I0
tp5001
bS'SERVE12'
p5002
tp5003
Rp5004
ag2
(g3
(S'S7'
p5005
I0
I1
tp5006
Rp5007
(I3
S'|'
p5008
NNNI7
I1
I0
tp5009
bS'SERVE12'
p5010
tp5011
Rp5012
ag2
(g3
(S'S6'
p5013
I0
I1
tp5014
Rp5015
(I3
S'|'
p5016
NNNI6
I1
I0
tp5017
bS'SERVE2'
p5018
tp5019
Rp5020
ag2
(g3
(S'S7'
p5021
I0
I1
tp5022
Rp5023
(I3
S'|'
p5024
NNNI7
I1
I0
tp5025
bS'SERVE12'
p5026
tp5027
Rp5028
ag2
(g3
(S'S7'
p5029
I0
I1
tp5030
Rp5031
(I3
S'|'
p5032
NNNI7
I1
I0
tp5033
bS'SERVE12'
p5034
tp5035
Rp5036
ag2
(g3
(S'S7'
p5037
I0
I1
tp5038
Rp5039
(I3
S'|'
p5040
NNNI7
I1
I0
tp5041
bS'SERVE12'
p5042
tp5043
Rp5044
ag2
(g3
(S'S7'
p5045
I0
I1
tp5046
Rp5047
(I3
S'|'
p5048
NNNI7
I1
I0
tp5049
bS'SERVE12'
p5050
tp5051
Rp5052
ag2
(g3
(S'S6'
p5053
I0
I1
tp5054
Rp5055
(I3
S'|'
p5056
NNNI6
I1
I0
tp5057
bS'SERVE2'
p5058
tp5059
Rp5060
ag2
(g3
(S'S7'
p5061
I0
I1
tp5062
Rp5063
(I3
S'|'
p5064
NNNI7
I1
I0
tp5065
bS'SERVE12'
p5066
tp5067
Rp5068
ag2
(g3
(S'S7'
p5069
I0
I1
tp5070
Rp5071
(I3
S'|'
p5072
NNNI7
I1
I0
tp5073
bS'SERVE12'
p5074
tp5075
Rp5076
ag2
(g3
(S'S7'
p5077
I0
I1
tp5078
Rp5079
(I3
S'|'
p5080
NNNI7
I1
I0
tp5081
bS'SERVE12'
p5082
tp5083
Rp5084
ag2
(g3
(S'S7'
p5085
I0
I1
tp5086
Rp5087
(I3
S'|'
p5088
NNNI7
I1
I0
tp5089
bS'SERVE12'
p5090
tp5091
Rp5092
ag2
(g3
(S'S7'
p5093
I0
I1
tp5094
Rp5095
(I3
S'|'
p5096
NNNI7
I1
I0
tp5097
bS'SERVE12'
p5098
tp5099
Rp5100
ag2
(g3
(S'S7'
p5101
I0
I1
tp5102
Rp5103
(I3
S'|'
p5104
NNNI7
I1
I0
tp5105
bS'SERVE12'
p5106
tp5107
Rp5108
ag2
(g3
(S'S7'
p5109
I0
I1
tp5110
Rp5111
(I3
S'|'
p5112
NNNI7
I1
I0
tp5113
bS'SERVE12'
p5114
tp5115
Rp5116
ag2
(g3
(S'S7'
p5117
I0
I1
tp5118
Rp5119
(I3
S'|'
p5120
NNNI7
I1
I0
tp5121
bS'SERVE12'
p5122
tp5123
Rp5124
ag2
(g3
(S'S7'
p5125
I0
I1
tp5126
Rp5127
(I3
S'|'
p5128
NNNI7
I1
I0
tp5129
bS'SERVE12'
p5130
tp5131
Rp5132
ag2
(g3
(S'S7'
p5133
I0
I1
tp5134
Rp5135
(I3
S'|'
p5136
NNNI7
I1
I0
tp5137
bS'SERVE12'
p5138
tp5139
Rp5140
ag2
(g3
(S'S6'
p5141
I0
I1
tp5142
Rp5143
(I3
S'|'
p5144
NNNI6
I1
I0
tp5145
bS'SERVE2'
p5146
tp5147
Rp5148
ag2
(g3
(S'S7'
p5149
I0
I1
tp5150
Rp5151
(I3
S'|'
p5152
NNNI7
I1
I0
tp5153
bS'SERVE12'
p5154
tp5155
Rp5156
ag2
(g3
(S'S7'
p5157
I0
I1
tp5158
Rp5159
(I3
S'|'
p5160
NNNI7
I1
I0
tp5161
bS'SERVE12'
p5162
tp5163
Rp5164
ag2
(g3
(S'S7'
p5165
I0
I1
tp5166
Rp5167
(I3
S'|'
p5168
NNNI7
I1
I0
tp5169
bS'SERVE12'
p5170
tp5171
Rp5172
ag2
(g3
(S'S7'
p5173
I0
I1
tp5174
Rp5175
(I3
S'|'
p5176
NNNI7
I1
I0
tp5177
bS'SERVE12'
p5178
tp5179
Rp5180
ag2
(g3
(S'S7'
p5181
I0
I1
tp5182
Rp5183
(I3
S'|'
p5184
NNNI7
I1
I0
tp5185
bS'SERVE10'
p5186
tp5187
Rp5188
ag2
(g3
(S'S7'
p5189
I0
I1
tp5190
Rp5191
(I3
S'|'
p5192
NNNI7
I1
I0
tp5193
bS'SERVE12'
p5194
tp5195
Rp5196
ag2
(g3
(S'S7'
p5197
I0
I1
tp5198
Rp5199
(I3
S'|'
p5200
NNNI7
I1
I0
tp5201
bS'SERVE12'
p5202
tp5203
Rp5204
ag2
(g3
(S'S7'
p5205
I0
I1
tp5206
Rp5207
(I3
S'|'
p5208
NNNI7
I1
I0
tp5209
bS'SERVE12'
p5210
tp5211
Rp5212
ag2
(g3
(S'S7'
p5213
I0
I1
tp5214
Rp5215
(I3
S'|'
p5216
NNNI7
I1
I0
tp5217
bS'SERVE12'
p5218
tp5219
Rp5220
ag2
(g3
(S'S7'
p5221
I0
I1
tp5222
Rp5223
(I3
S'|'
p5224
NNNI7
I1
I0
tp5225
bS'SERVE12'
p5226
tp5227
Rp5228
ag2
(g3
(S'S7'
p5229
I0
I1
tp5230
Rp5231
(I3
S'|'
p5232
NNNI7
I1
I0
tp5233
bS'SERVE12'
p5234
tp5235
Rp5236
ag2
(g3
(S'S7'
p5237
I0
I1
tp5238
Rp5239
(I3
S'|'
p5240
NNNI7
I1
I0
tp5241
bS'SERVE12'
p5242
tp5243
Rp5244
ag2
(g3
(S'S7'
p5245
I0
I1
tp5246
Rp5247
(I3
S'|'
p5248
NNNI7
I1
I0
tp5249
bS'SERVE12'
p5250
tp5251
Rp5252
ag2
(g3
(S'S7'
p5253
I0
I1
tp5254
Rp5255
(I3
S'|'
p5256
NNNI7
I1
I0
tp5257
bS'SERVE12'
p5258
tp5259
Rp5260
ag2
(g3
(S'S6'
p5261
I0
I1
tp5262
Rp5263
(I3
S'|'
p5264
NNNI6
I1
I0
tp5265
bS'SERVE2'
p5266
tp5267
Rp5268
ag2
(g3
(S'S7'
p5269
I0
I1
tp5270
Rp5271
(I3
S'|'
p5272
NNNI7
I1
I0
tp5273
bS'SERVE12'
p5274
tp5275
Rp5276
ag2
(g3
(S'S6'
p5277
I0
I1
tp5278
Rp5279
(I3
S'|'
p5280
NNNI6
I1
I0
tp5281
bS'SERVE2'
p5282
tp5283
Rp5284
ag2
(g3
(S'S7'
p5285
I0
I1
tp5286
Rp5287
(I3
S'|'
p5288
NNNI7
I1
I0
tp5289
bS'SERVE12'
p5290
tp5291
Rp5292
ag2
(g3
(S'S7'
p5293
I0
I1
tp5294
Rp5295
(I3
S'|'
p5296
NNNI7
I1
I0
tp5297
bS'SERVE12'
p5298
tp5299
Rp5300
ag2
(g3
(S'S7'
p5301
I0
I1
tp5302
Rp5303
(I3
S'|'
p5304
NNNI7
I1
I0
tp5305
bS'SERVE12'
p5306
tp5307
Rp5308
ag2
(g3
(S'S7'
p5309
I0
I1
tp5310
Rp5311
(I3
S'|'
p5312
NNNI7
I1
I0
tp5313
bS'SERVE12'
p5314
tp5315
Rp5316
ag2
(g3
(S'S7'
p5317
I0
I1
tp5318
Rp5319
(I3
S'|'
p5320
NNNI7
I1
I0
tp5321
bS'SERVE12'
p5322
tp5323
Rp5324
ag2
(g3
(S'S7'
p5325
I0
I1
tp5326
Rp5327
(I3
S'|'
p5328
NNNI7
I1
I0
tp5329
bS'SERVE12'
p5330
tp5331
Rp5332
ag2
(g3
(S'S7'
p5333
I0
I1
tp5334
Rp5335
(I3
S'|'
p5336
NNNI7
I1
I0
tp5337
bS'SERVE12'
p5338
tp5339
Rp5340
ag2
(g3
(S'S7'
p5341
I0
I1
tp5342
Rp5343
(I3
S'|'
p5344
NNNI7
I1
I0
tp5345
bS'SERVE12'
p5346
tp5347
Rp5348
ag2
(g3
(S'S7'
p5349
I0
I1
tp5350
Rp5351
(I3
S'|'
p5352
NNNI7
I1
I0
tp5353
bS'SERVE12'
p5354
tp5355
Rp5356
ag2
(g3
(S'S7'
p5357
I0
I1
tp5358
Rp5359
(I3
S'|'
p5360
NNNI7
I1
I0
tp5361
bS'SERVE12'
p5362
tp5363
Rp5364
ag2
(g3
(S'S7'
p5365
I0
I1
tp5366
Rp5367
(I3
S'|'
p5368
NNNI7
I1
I0
tp5369
bS'SERVE12'
p5370
tp5371
Rp5372
ag2
(g3
(S'S7'
p5373
I0
I1
tp5374
Rp5375
(I3
S'|'
p5376
NNNI7
I1
I0
tp5377
bS'SERVE12'
p5378
tp5379
Rp5380
ag2
(g3
(S'S7'
p5381
I0
I1
tp5382
Rp5383
(I3
S'|'
p5384
NNNI7
I1
I0
tp5385
bS'SERVE12'
p5386
tp5387
Rp5388
ag2
(g3
(S'S7'
p5389
I0
I1
tp5390
Rp5391
(I3
S'|'
p5392
NNNI7
I1
I0
tp5393
bS'SERVE12'
p5394
tp5395
Rp5396
ag2
(g3
(S'S7'
p5397
I0
I1
tp5398
Rp5399
(I3
S'|'
p5400
NNNI7
I1
I0
tp5401
bS'SERVE12'
p5402
tp5403
Rp5404
ag2
(g3
(S'S7'
p5405
I0
I1
tp5406
Rp5407
(I3
S'|'
p5408
NNNI7
I1
I0
tp5409
bS'SERVE12'
p5410
tp5411
Rp5412
ag2
(g3
(S'S6'
p5413
I0
I1
tp5414
Rp5415
(I3
S'|'
p5416
NNNI6
I1
I0
tp5417
bS'SERVE2'
p5418
tp5419
Rp5420
ag2
(g3
(S'S7'
p5421
I0
I1
tp5422
Rp5423
(I3
S'|'
p5424
NNNI7
I1
I0
tp5425
bS'SERVE12'
p5426
tp5427
Rp5428
ag2
(g3
(S'S7'
p5429
I0
I1
tp5430
Rp5431
(I3
S'|'
p5432
NNNI7
I1
I0
tp5433
bS'SERVE10'
p5434
tp5435
Rp5436
ag2
(g3
(S'S7'
p5437
I0
I1
tp5438
Rp5439
(I3
S'|'
p5440
NNNI7
I1
I0
tp5441
bS'SERVE12'
p5442
tp5443
Rp5444
ag2
(g3
(S'S7'
p5445
I0
I1
tp5446
Rp5447
(I3
S'|'
p5448
NNNI7
I1
I0
tp5449
bS'SERVE12'
p5450
tp5451
Rp5452
ag2
(g3
(S'S7'
p5453
I0
I1
tp5454
Rp5455
(I3
S'|'
p5456
NNNI7
I1
I0
tp5457
bS'SERVE10'
p5458
tp5459
Rp5460
ag2
(g3
(S'S7'
p5461
I0
I1
tp5462
Rp5463
(I3
S'|'
p5464
NNNI7
I1
I0
tp5465
bS'SERVE12'
p5466
tp5467
Rp5468
ag2
(g3
(S'S7'
p5469
I0
I1
tp5470
Rp5471
(I3
S'|'
p5472
NNNI7
I1
I0
tp5473
bS'SERVE12'
p5474
tp5475
Rp5476
ag2
(g3
(S'S7'
p5477
I0
I1
tp5478
Rp5479
(I3
S'|'
p5480
NNNI7
I1
I0
tp5481
bS'SERVE12'
p5482
tp5483
Rp5484
ag2
(g3
(S'S7'
p5485
I0
I1
tp5486
Rp5487
(I3
S'|'
p5488
NNNI7
I1
I0
tp5489
bS'SERVE12'
p5490
tp5491
Rp5492
ag2
(g3
(S'S7'
p5493
I0
I1
tp5494
Rp5495
(I3
S'|'
p5496
NNNI7
I1
I0
tp5497
bS'SERVE12'
p5498
tp5499
Rp5500
ag2
(g3
(S'S7'
p5501
I0
I1
tp5502
Rp5503
(I3
S'|'
p5504
NNNI7
I1
I0
tp5505
bS'SERVE12'
p5506
tp5507
Rp5508
ag2
(g3
(S'S7'
p5509
I0
I1
tp5510
Rp5511
(I3
S'|'
p5512
NNNI7
I1
I0
tp5513
bS'SERVE12'
p5514
tp5515
Rp5516
ag2
(g3
(S'S7'
p5517
I0
I1
tp5518
Rp5519
(I3
S'|'
p5520
NNNI7
I1
I0
tp5521
bS'SERVE12'
p5522
tp5523
Rp5524
ag2
(g3
(S'S6'
p5525
I0
I1
tp5526
Rp5527
(I3
S'|'
p5528
NNNI6
I1
I0
tp5529
bS'SERVE2'
p5530
tp5531
Rp5532
ag2
(g3
(S'S7'
p5533
I0
I1
tp5534
Rp5535
(I3
S'|'
p5536
NNNI7
I1
I0
tp5537
bS'SERVE10'
p5538
tp5539
Rp5540
ag2
(g3
(S'S7'
p5541
I0
I1
tp5542
Rp5543
(I3
S'|'
p5544
NNNI7
I1
I0
tp5545
bS'SERVE12'
p5546
tp5547
Rp5548
ag2
(g3
(S'S7'
p5549
I0
I1
tp5550
Rp5551
(I3
S'|'
p5552
NNNI7
I1
I0
tp5553
bS'SERVE12'
p5554
tp5555
Rp5556
ag2
(g3
(S'S7'
p5557
I0
I1
tp5558
Rp5559
(I3
S'|'
p5560
NNNI7
I1
I0
tp5561
bS'SERVE12'
p5562
tp5563
Rp5564
ag2
(g3
(S'S7'
p5565
I0
I1
tp5566
Rp5567
(I3
S'|'
p5568
NNNI7
I1
I0
tp5569
bS'SERVE12'
p5570
tp5571
Rp5572
ag2
(g3
(S'S7'
p5573
I0
I1
tp5574
Rp5575
(I3
S'|'
p5576
NNNI7
I1
I0
tp5577
bS'SERVE12'
p5578
tp5579
Rp5580
ag2
(g3
(S'S7'
p5581
I0
I1
tp5582
Rp5583
(I3
S'|'
p5584
NNNI7
I1
I0
tp5585
bS'SERVE12'
p5586
tp5587
Rp5588
ag2
(g3
(S'S6'
p5589
I0
I1
tp5590
Rp5591
(I3
S'|'
p5592
NNNI6
I1
I0
tp5593
bS'SERVE2'
p5594
tp5595
Rp5596
ag2
(g3
(S'S7'
p5597
I0
I1
tp5598
Rp5599
(I3
S'|'
p5600
NNNI7
I1
I0
tp5601
bS'SERVE12'
p5602
tp5603
Rp5604
ag2
(g3
(S'S6'
p5605
I0
I1
tp5606
Rp5607
(I3
S'|'
p5608
NNNI6
I1
I0
tp5609
bS'SERVE2'
p5610
tp5611
Rp5612
ag2
(g3
(S'S7'
p5613
I0
I1
tp5614
Rp5615
(I3
S'|'
p5616
NNNI7
I1
I0
tp5617
bS'SERVE12'
p5618
tp5619
Rp5620
ag2
(g3
(S'S7'
p5621
I0
I1
tp5622
Rp5623
(I3
S'|'
p5624
NNNI7
I1
I0
tp5625
bS'SERVE12'
p5626
tp5627
Rp5628
ag2
(g3
(S'S7'
p5629
I0
I1
tp5630
Rp5631
(I3
S'|'
p5632
NNNI7
I1
I0
tp5633
bS'SERVE12'
p5634
tp5635
Rp5636
ag2
(g3
(S'S7'
p5637
I0
I1
tp5638
Rp5639
(I3
S'|'
p5640
NNNI7
I1
I0
tp5641
bS'SERVE12'
p5642
tp5643
Rp5644
ag2
(g3
(S'S7'
p5645
I0
I1
tp5646
Rp5647
(I3
S'|'
p5648
NNNI7
I1
I0
tp5649
bS'SERVE12'
p5650
tp5651
Rp5652
ag2
(g3
(S'S7'
p5653
I0
I1
tp5654
Rp5655
(I3
S'|'
p5656
NNNI7
I1
I0
tp5657
bS'SERVE12'
p5658
tp5659
Rp5660
ag2
(g3
(S'S7'
p5661
I0
I1
tp5662
Rp5663
(I3
S'|'
p5664
NNNI7
I1
I0
tp5665
bS'SERVE12'
p5666
tp5667
Rp5668
ag2
(g3
(S'S7'
p5669
I0
I1
tp5670
Rp5671
(I3
S'|'
p5672
NNNI7
I1
I0
tp5673
bS'SERVE12'
p5674
tp5675
Rp5676
ag2
(g3
(S'S7'
p5677
I0
I1
tp5678
Rp5679
(I3
S'|'
p5680
NNNI7
I1
I0
tp5681
bS'SERVE12'
p5682
tp5683
Rp5684
ag2
(g3
(S'S7'
p5685
I0
I1
tp5686
Rp5687
(I3
S'|'
p5688
NNNI7
I1
I0
tp5689
bS'SERVE12'
p5690
tp5691
Rp5692
ag2
(g3
(S'S7'
p5693
I0
I1
tp5694
Rp5695
(I3
S'|'
p5696
NNNI7
I1
I0
tp5697
bS'SERVE12'
p5698
tp5699
Rp5700
ag2
(g3
(S'S7'
p5701
I0
I1
tp5702
Rp5703
(I3
S'|'
p5704
NNNI7
I1
I0
tp5705
bS'SERVE12'
p5706
tp5707
Rp5708
ag2
(g3
(S'S6'
p5709
I0
I1
tp5710
Rp5711
(I3
S'|'
p5712
NNNI6
I1
I0
tp5713
bS'SERVE2'
p5714
tp5715
Rp5716
ag2
(g3
(S'S7'
p5717
I0
I1
tp5718
Rp5719
(I3
S'|'
p5720
NNNI7
I1
I0
tp5721
bS'SERVE12'
p5722
tp5723
Rp5724
ag2
(g3
(S'S7'
p5725
I0
I1
tp5726
Rp5727
(I3
S'|'
p5728
NNNI7
I1
I0
tp5729
bS'SERVE12'
p5730
tp5731
Rp5732
ag2
(g3
(S'S7'
p5733
I0
I1
tp5734
Rp5735
(I3
S'|'
p5736
NNNI7
I1
I0
tp5737
bS'SERVE12'
p5738
tp5739
Rp5740
ag2
(g3
(S'S7'
p5741
I0
I1
tp5742
Rp5743
(I3
S'|'
p5744
NNNI7
I1
I0
tp5745
bS'SERVE12'
p5746
tp5747
Rp5748
ag2
(g3
(S'S7'
p5749
I0
I1
tp5750
Rp5751
(I3
S'|'
p5752
NNNI7
I1
I0
tp5753
bS'SERVE10'
p5754
tp5755
Rp5756
ag2
(g3
(S'S7'
p5757
I0
I1
tp5758
Rp5759
(I3
S'|'
p5760
NNNI7
I1
I0
tp5761
bS'SERVE12'
p5762
tp5763
Rp5764
ag2
(g3
(S'S7'
p5765
I0
I1
tp5766
Rp5767
(I3
S'|'
p5768
NNNI7
I1
I0
tp5769
bS'SERVE12'
p5770
tp5771
Rp5772
ag2
(g3
(S'S7'
p5773
I0
I1
tp5774
Rp5775
(I3
S'|'
p5776
NNNI7
I1
I0
tp5777
bS'SERVE12'
p5778
tp5779
Rp5780
ag2
(g3
(S'S7'
p5781
I0
I1
tp5782
Rp5783
(I3
S'|'
p5784
NNNI7
I1
I0
tp5785
bS'SERVE12'
p5786
tp5787
Rp5788
ag2
(g3
(S'S7'
p5789
I0
I1
tp5790
Rp5791
(I3
S'|'
p5792
NNNI7
I1
I0
tp5793
bS'SERVE12'
p5794
tp5795
Rp5796
ag2
(g3
(S'S7'
p5797
I0
I1
tp5798
Rp5799
(I3
S'|'
p5800
NNNI7
I1
I0
tp5801
bS'SERVE12'
p5802
tp5803
Rp5804
ag2
(g3
(S'S7'
p5805
I0
I1
tp5806
Rp5807
(I3
S'|'
p5808
NNNI7
I1
I0
tp5809
bS'SERVE12'
p5810
tp5811
Rp5812
ag2
(g3
(S'S7'
p5813
I0
I1
tp5814
Rp5815
(I3
S'|'
p5816
NNNI7
I1
I0
tp5817
bS'SERVE12'
p5818
tp5819
Rp5820
ag2
(g3
(S'S7'
p5821
I0
I1
tp5822
Rp5823
(I3
S'|'
p5824
NNNI7
I1
I0
tp5825
bS'SERVE10'
p5826
tp5827
Rp5828
ag2
(g3
(S'S7'
p5829
I0
I1
tp5830
Rp5831
(I3
S'|'
p5832
NNNI7
I1
I0
tp5833
bS'SERVE12'
p5834
tp5835
Rp5836
ag2
(g3
(S'S7'
p5837
I0
I1
tp5838
Rp5839
(I3
S'|'
p5840
NNNI7
I1
I0
tp5841
bS'SERVE12'
p5842
tp5843
Rp5844
ag2
(g3
(S'S7'
p5845
I0
I1
tp5846
Rp5847
(I3
S'|'
p5848
NNNI7
I1
I0
tp5849
bS'SERVE12'
p5850
tp5851
Rp5852
ag2
(g3
(S'S7'
p5853
I0
I1
tp5854
Rp5855
(I3
S'|'
p5856
NNNI7
I1
I0
tp5857
bS'SERVE12'
p5858
tp5859
Rp5860
ag2
(g3
(S'S7'
p5861
I0
I1
tp5862
Rp5863
(I3
S'|'
p5864
NNNI7
I1
I0
tp5865
bS'SERVE12'
p5866
tp5867
Rp5868
ag2
(g3
(S'S7'
p5869
I0
I1
tp5870
Rp5871
(I3
S'|'
p5872
NNNI7
I1
I0
tp5873
bS'SERVE12'
p5874
tp5875
Rp5876
ag2
(g3
(S'S7'
p5877
I0
I1
tp5878
Rp5879
(I3
S'|'
p5880
NNNI7
I1
I0
tp5881
bS'SERVE12'
p5882
tp5883
Rp5884
ag2
(g3
(S'S7'
p5885
I0
I1
tp5886
Rp5887
(I3
S'|'
p5888
NNNI7
I1
I0
tp5889
bS'SERVE12'
p5890
tp5891
Rp5892
ag2
(g3
(S'S7'
p5893
I0
I1
tp5894
Rp5895
(I3
S'|'
p5896
NNNI7
I1
I0
tp5897
bS'SERVE10'
p5898
tp5899
Rp5900
ag2
(g3
(S'S7'
p5901
I0
I1
tp5902
Rp5903
(I3
S'|'
p5904
NNNI7
I1
I0
tp5905
bS'SERVE12'
p5906
tp5907
Rp5908
ag2
(g3
(S'S6'
p5909
I0
I1
tp5910
Rp5911
(I3
S'|'
p5912
NNNI6
I1
I0
tp5913
bS'SERVE2'
p5914
tp5915
Rp5916
ag2
(g3
(S'S7'
p5917
I0
I1
tp5918
Rp5919
(I3
S'|'
p5920
NNNI7
I1
I0
tp5921
bS'SERVE12'
p5922
tp5923
Rp5924
ag2
(g3
(S'S6'
p5925
I0
I1
tp5926
Rp5927
(I3
S'|'
p5928
NNNI6
I1
I0
tp5929
bS'SERVE6'
p5930
tp5931
Rp5932
ag2
(g3
(S'S7'
p5933
I0
I1
tp5934
Rp5935
(I3
S'|'
p5936
NNNI7
I1
I0
tp5937
bS'SERVE12'
p5938
tp5939
Rp5940
ag2
(g3
(S'S7'
p5941
I0
I1
tp5942
Rp5943
(I3
S'|'
p5944
NNNI7
I1
I0
tp5945
bS'SERVE12'
p5946
tp5947
Rp5948
ag2
(g3
(S'S7'
p5949
I0
I1
tp5950
Rp5951
(I3
S'|'
p5952
NNNI7
I1
I0
tp5953
bS'SERVE12'
p5954
tp5955
Rp5956
ag2
(g3
(S'S7'
p5957
I0
I1
tp5958
Rp5959
(I3
S'|'
p5960
NNNI7
I1
I0
tp5961
bS'SERVE12'
p5962
tp5963
Rp5964
ag2
(g3
(S'S6'
p5965
I0
I1
tp5966
Rp5967
(I3
S'|'
p5968
NNNI6
I1
I0
tp5969
bS'SERVE2'
p5970
tp5971
Rp5972
ag2
(g3
(S'S6'
p5973
I0
I1
tp5974
Rp5975
(I3
S'|'
p5976
NNNI6
I1
I0
tp5977
bS'SERVE2'
p5978
tp5979
Rp5980
ag2
(g3
(S'S6'
p5981
I0
I1
tp5982
Rp5983
(I3
S'|'
p5984
NNNI6
I1
I0
tp5985
bS'SERVE2'
p5986
tp5987
Rp5988
ag2
(g3
(S'S7'
p5989
I0
I1
tp5990
Rp5991
(I3
S'|'
p5992
NNNI7
I1
I0
tp5993
bS'SERVE12'
p5994
tp5995
Rp5996
ag2
(g3
(S'S7'
p5997
I0
I1
tp5998
Rp5999
(I3
S'|'
p6000
NNNI7
I1
I0
tp6001
bS'SERVE10'
p6002
tp6003
Rp6004
ag2
(g3
(S'S7'
p6005
I0
I1
tp6006
Rp6007
(I3
S'|'
p6008
NNNI7
I1
I0
tp6009
bS'SERVE12'
p6010
tp6011
Rp6012
ag2
(g3
(S'S6'
p6013
I0
I1
tp6014
Rp6015
(I3
S'|'
p6016
NNNI6
I1
I0
tp6017
bS'SERVE2'
p6018
tp6019
Rp6020
ag2
(g3
(S'S6'
p6021
I0
I1
tp6022
Rp6023
(I3
S'|'
p6024
NNNI6
I1
I0
tp6025
bS'SERVE2'
p6026
tp6027
Rp6028
ag2
(g3
(S'S6'
p6029
I0
I1
tp6030
Rp6031
(I3
S'|'
p6032
NNNI6
I1
I0
tp6033
bS'SERVE2'
p6034
tp6035
Rp6036
ag2
(g3
(S'S6'
p6037
I0
I1
tp6038
Rp6039
(I3
S'|'
p6040
NNNI6
I1
I0
tp6041
bS'SERVE2'
p6042
tp6043
Rp6044
ag2
(g3
(S'S6'
p6045
I0
I1
tp6046
Rp6047
(I3
S'|'
p6048
NNNI6
I1
I0
tp6049
bS'SERVE2'
p6050
tp6051
Rp6052
ag2
(g3
(S'S6'
p6053
I0
I1
tp6054
Rp6055
(I3
S'|'
p6056
NNNI6
I1
I0
tp6057
bS'SERVE2'
p6058
tp6059
Rp6060
ag2
(g3
(S'S6'
p6061
I0
I1
tp6062
Rp6063
(I3
S'|'
p6064
NNNI6
I1
I0
tp6065
bS'SERVE2'
p6066
tp6067
Rp6068
ag2
(g3
(S'S6'
p6069
I0
I1
tp6070
Rp6071
(I3
S'|'
p6072
NNNI6
I1
I0
tp6073
bS'SERVE2'
p6074
tp6075
Rp6076
ag2
(g3
(S'S6'
p6077
I0
I1
tp6078
Rp6079
(I3
S'|'
p6080
NNNI6
I1
I0
tp6081
bS'SERVE2'
p6082
tp6083
Rp6084
ag2
(g3
(S'S7'
p6085
I0
I1
tp6086
Rp6087
(I3
S'|'
p6088
NNNI7
I1
I0
tp6089
bS'SERVE12'
p6090
tp6091
Rp6092
ag2
(g3
(S'S6'
p6093
I0
I1
tp6094
Rp6095
(I3
S'|'
p6096
NNNI6
I1
I0
tp6097
bS'SERVE2'
p6098
tp6099
Rp6100
ag2
(g3
(S'S6'
p6101
I0
I1
tp6102
Rp6103
(I3
S'|'
p6104
NNNI6
I1
I0
tp6105
bS'SERVE2'
p6106
tp6107
Rp6108
ag2
(g3
(S'S6'
p6109
I0
I1
tp6110
Rp6111
(I3
S'|'
p6112
NNNI6
I1
I0
tp6113
bS'SERVE2'
p6114
tp6115
Rp6116
ag2
(g3
(S'S6'
p6117
I0
I1
tp6118
Rp6119
(I3
S'|'
p6120
NNNI6
I1
I0
tp6121
bS'SERVE2'
p6122
tp6123
Rp6124
ag2
(g3
(S'S6'
p6125
I0
I1
tp6126
Rp6127
(I3
S'|'
p6128
NNNI6
I1
I0
tp6129
bS'SERVE2'
p6130
tp6131
Rp6132
ag2
(g3
(S'S6'
p6133
I0
I1
tp6134
Rp6135
(I3
S'|'
p6136
NNNI6
I1
I0
tp6137
bS'SERVE2'
p6138
tp6139
Rp6140
ag2
(g3
(S'S6'
p6141
I0
I1
tp6142
Rp6143
(I3
S'|'
p6144
NNNI6
I1
I0
tp6145
bS'SERVE2'
p6146
tp6147
Rp6148
ag2
(g3
(S'S6'
p6149
I0
I1
tp6150
Rp6151
(I3
S'|'
p6152
NNNI6
I1
I0
tp6153
bS'SERVE2'
p6154
tp6155
Rp6156
ag2
(g3
(S'S6'
p6157
I0
I1
tp6158
Rp6159
(I3
S'|'
p6160
NNNI6
I1
I0
tp6161
bS'SERVE2'
p6162
tp6163
Rp6164
ag2
(g3
(S'S6'
p6165
I0
I1
tp6166
Rp6167
(I3
S'|'
p6168
NNNI6
I1
I0
tp6169
bS'SERVE2'
p6170
tp6171
Rp6172
ag2
(g3
(S'S6'
p6173
I0
I1
tp6174
Rp6175
(I3
S'|'
p6176
NNNI6
I1
I0
tp6177
bS'SERVE2'
p6178
tp6179
Rp6180
ag2
(g3
(S'S6'
p6181
I0
I1
tp6182
Rp6183
(I3
S'|'
p6184
NNNI6
I1
I0
tp6185
bS'SERVE2'
p6186
tp6187
Rp6188
ag2
(g3
(S'S6'
p6189
I0
I1
tp6190
Rp6191
(I3
S'|'
p6192
NNNI6
I1
I0
tp6193
bS'SERVE2'
p6194
tp6195
Rp6196
ag2
(g3
(S'S6'
p6197
I0
I1
tp6198
Rp6199
(I3
S'|'
p6200
NNNI6
I1
I0
tp6201
bS'SERVE2'
p6202
tp6203
Rp6204
ag2
(g3
(S'S6'
p6205
I0
I1
tp6206
Rp6207
(I3
S'|'
p6208
NNNI6
I1
I0
tp6209
bS'SERVE2'
p6210
tp6211
Rp6212
ag2
(g3
(S'S6'
p6213
I0
I1
tp6214
Rp6215
(I3
S'|'
p6216
NNNI6
I1
I0
tp6217
bS'SERVE2'
p6218
tp6219
Rp6220
ag2
(g3
(S'S7'
p6221
I0
I1
tp6222
Rp6223
(I3
S'|'
p6224
NNNI7
I1
I0
tp6225
bS'SERVE12'
p6226
tp6227
Rp6228
ag2
(g3
(S'S6'
p6229
I0
I1
tp6230
Rp6231
(I3
S'|'
p6232
NNNI6
I1
I0
tp6233
bS'SERVE2'
p6234
tp6235
Rp6236
ag2
(g3
(S'S6'
p6237
I0
I1
tp6238
Rp6239
(I3
S'|'
p6240
NNNI6
I1
I0
tp6241
bS'SERVE2'
p6242
tp6243
Rp6244
ag2
(g3
(S'S6'
p6245
I0
I1
tp6246
Rp6247
(I3
S'|'
p6248
NNNI6
I1
I0
tp6249
bS'SERVE2'
p6250
tp6251
Rp6252
ag2
(g3
(S'S7'
p6253
I0
I1
tp6254
Rp6255
(I3
S'|'
p6256
NNNI7
I1
I0
tp6257
bS'SERVE12'
p6258
tp6259
Rp6260
ag2
(g3
(S'S7'
p6261
I0
I1
tp6262
Rp6263
(I3
S'|'
p6264
NNNI7
I1
I0
tp6265
bS'SERVE10'
p6266
tp6267
Rp6268
ag2
(g3
(S'S6'
p6269
I0
I1
tp6270
Rp6271
(I3
S'|'
p6272
NNNI6
I1
I0
tp6273
bS'SERVE2'
p6274
tp6275
Rp6276
ag2
(g3
(S'S6'
p6277
I0
I1
tp6278
Rp6279
(I3
S'|'
p6280
NNNI6
I1
I0
tp6281
bS'SERVE2'
p6282
tp6283
Rp6284
ag2
(g3
(S'S7'
p6285
I0
I1
tp6286
Rp6287
(I3
S'|'
p6288
NNNI7
I1
I0
tp6289
bS'SERVE10'
p6290
tp6291
Rp6292
ag2
(g3
(S'S6'
p6293
I0
I1
tp6294
Rp6295
(I3
S'|'
p6296
NNNI6
I1
I0
tp6297
bS'SERVE2'
p6298
tp6299
Rp6300
ag2
(g3
(S'S6'
p6301
I0
I1
tp6302
Rp6303
(I3
S'|'
p6304
NNNI6
I1
I0
tp6305
bS'SERVE2'
p6306
tp6307
Rp6308
ag2
(g3
(S'S7'
p6309
I0
I1
tp6310
Rp6311
(I3
S'|'
p6312
NNNI7
I1
I0
tp6313
bS'SERVE12'
p6314
tp6315
Rp6316
ag2
(g3
(S'S7'
p6317
I0
I1
tp6318
Rp6319
(I3
S'|'
p6320
NNNI7
I1
I0
tp6321
bS'SERVE12'
p6322
tp6323
Rp6324
ag2
(g3
(S'S7'
p6325
I0
I1
tp6326
Rp6327
(I3
S'|'
p6328
NNNI7
I1
I0
tp6329
bS'SERVE12'
p6330
tp6331
Rp6332
ag2
(g3
(S'S6'
p6333
I0
I1
tp6334
Rp6335
(I3
S'|'
p6336
NNNI6
I1
I0
tp6337
bS'SERVE2'
p6338
tp6339
Rp6340
ag2
(g3
(S'S6'
p6341
I0
I1
tp6342
Rp6343
(I3
S'|'
p6344
NNNI6
I1
I0
tp6345
bS'SERVE2'
p6346
tp6347
Rp6348
ag2
(g3
(S'S6'
p6349
I0
I1
tp6350
Rp6351
(I3
S'|'
p6352
NNNI6
I1
I0
tp6353
bS'SERVE2'
p6354
tp6355
Rp6356
ag2
(g3
(S'S6'
p6357
I0
I1
tp6358
Rp6359
(I3
S'|'
p6360
NNNI6
I1
I0
tp6361
bS'SERVE2'
p6362
tp6363
Rp6364
ag2
(g3
(S'S6'
p6365
I0
I1
tp6366
Rp6367
(I3
S'|'
p6368
NNNI6
I1
I0
tp6369
bS'SERVE2'
p6370
tp6371
Rp6372
ag2
(g3
(S'S6'
p6373
I0
I1
tp6374
Rp6375
(I3
S'|'
p6376
NNNI6
I1
I0
tp6377
bS'SERVE2'
p6378
tp6379
Rp6380
ag2
(g3
(S'S6'
p6381
I0
I1
tp6382
Rp6383
(I3
S'|'
p6384
NNNI6
I1
I0
tp6385
bS'SERVE2'
p6386
tp6387
Rp6388
ag2
(g3
(S'S6'
p6389
I0
I1
tp6390
Rp6391
(I3
S'|'
p6392
NNNI6
I1
I0
tp6393
bS'SERVE2'
p6394
tp6395
Rp6396
ag2
(g3
(S'S6'
p6397
I0
I1
tp6398
Rp6399
(I3
S'|'
p6400
NNNI6
I1
I0
tp6401
bS'SERVE2'
p6402
tp6403
Rp6404
ag2
(g3
(S'S6'
p6405
I0
I1
tp6406
Rp6407
(I3
S'|'
p6408
NNNI6
I1
I0
tp6409
bS'SERVE2'
p6410
tp6411
Rp6412
ag2
(g3
(S'S6'
p6413
I0
I1
tp6414
Rp6415
(I3
S'|'
p6416
NNNI6
I1
I0
tp6417
bS'SERVE2'
p6418
tp6419
Rp6420
ag2
(g3
(S'S6'
p6421
I0
I1
tp6422
Rp6423
(I3
S'|'
p6424
NNNI6
I1
I0
tp6425
bS'SERVE2'
p6426
tp6427
Rp6428
ag2
(g3
(S'S6'
p6429
I0
I1
tp6430
Rp6431
(I3
S'|'
p6432
NNNI6
I1
I0
tp6433
bS'SERVE2'
p6434
tp6435
Rp6436
ag2
(g3
(S'S6'
p6437
I0
I1
tp6438
Rp6439
(I3
S'|'
p6440
NNNI6
I1
I0
tp6441
bS'SERVE2'
p6442
tp6443
Rp6444
ag2
(g3
(S'S6'
p6445
I0
I1
tp6446
Rp6447
(I3
S'|'
p6448
NNNI6
I1
I0
tp6449
bS'SERVE2'
p6450
tp6451
Rp6452
ag2
(g3
(S'S6'
p6453
I0
I1
tp6454
Rp6455
(I3
S'|'
p6456
NNNI6
I1
I0
tp6457
bS'SERVE2'
p6458
tp6459
Rp6460
ag2
(g3
(S'S6'
p6461
I0
I1
tp6462
Rp6463
(I3
S'|'
p6464
NNNI6
I1
I0
tp6465
bS'SERVE2'
p6466
tp6467
Rp6468
ag2
(g3
(S'S7'
p6469
I0
I1
tp6470
Rp6471
(I3
S'|'
p6472
NNNI7
I1
I0
tp6473
bS'SERVE12'
p6474
tp6475
Rp6476
ag2
(g3
(S'S6'
p6477
I0
I1
tp6478
Rp6479
(I3
S'|'
p6480
NNNI6
I1
I0
tp6481
bS'SERVE2'
p6482
tp6483
Rp6484
ag2
(g3
(S'S6'
p6485
I0
I1
tp6486
Rp6487
(I3
S'|'
p6488
NNNI6
I1
I0
tp6489
bS'SERVE2'
p6490
tp6491
Rp6492
ag2
(g3
(S'S7'
p6493
I0
I1
tp6494
Rp6495
(I3
S'|'
p6496
NNNI7
I1
I0
tp6497
bS'SERVE12'
p6498
tp6499
Rp6500
ag2
(g3
(S'S6'
p6501
I0
I1
tp6502
Rp6503
(I3
S'|'
p6504
NNNI6
I1
I0
tp6505
bS'SERVE2'
p6506
tp6507
Rp6508
ag2
(g3
(S'S7'
p6509
I0
I1
tp6510
Rp6511
(I3
S'|'
p6512
NNNI7
I1
I0
tp6513
bS'SERVE12'
p6514
tp6515
Rp6516
ag2
(g3
(S'S6'
p6517
I0
I1
tp6518
Rp6519
(I3
S'|'
p6520
NNNI6
I1
I0
tp6521
bS'SERVE2'
p6522
tp6523
Rp6524
ag2
(g3
(S'S6'
p6525
I0
I1
tp6526
Rp6527
(I3
S'|'
p6528
NNNI6
I1
I0
tp6529
bS'SERVE2'
p6530
tp6531
Rp6532
ag2
(g3
(S'S7'
p6533
I0
I1
tp6534
Rp6535
(I3
S'|'
p6536
NNNI7
I1
I0
tp6537
bS'SERVE10'
p6538
tp6539
Rp6540
ag2
(g3
(S'S6'
p6541
I0
I1
tp6542
Rp6543
(I3
S'|'
p6544
NNNI6
I1
I0
tp6545
bS'SERVE2'
p6546
tp6547
Rp6548
ag2
(g3
(S'S6'
p6549
I0
I1
tp6550
Rp6551
(I3
S'|'
p6552
NNNI6
I1
I0
tp6553
bS'SERVE6'
p6554
tp6555
Rp6556
ag2
(g3
(S'S7'
p6557
I0
I1
tp6558
Rp6559
(I3
S'|'
p6560
NNNI7
I1
I0
tp6561
bS'SERVE12'
p6562
tp6563
Rp6564
ag2
(g3
(S'S6'
p6565
I0
I1
tp6566
Rp6567
(I3
S'|'
p6568
NNNI6
I1
I0
tp6569
bS'SERVE2'
p6570
tp6571
Rp6572
ag2
(g3
(S'S6'
p6573
I0
I1
tp6574
Rp6575
(I3
S'|'
p6576
NNNI6
I1
I0
tp6577
bS'SERVE2'
p6578
tp6579
Rp6580
ag2
(g3
(S'S6'
p6581
I0
I1
tp6582
Rp6583
(I3
S'|'
p6584
NNNI6
I1
I0
tp6585
bS'SERVE2'
p6586
tp6587
Rp6588
ag2
(g3
(S'S6'
p6589
I0
I1
tp6590
Rp6591
(I3
S'|'
p6592
NNNI6
I1
I0
tp6593
bS'SERVE2'
p6594
tp6595
Rp6596
ag2
(g3
(S'S6'
p6597
I0
I1
tp6598
Rp6599
(I3
S'|'
p6600
NNNI6
I1
I0
tp6601
bS'SERVE2'
p6602
tp6603
Rp6604
ag2
(g3
(S'S6'
p6605
I0
I1
tp6606
Rp6607
(I3
S'|'
p6608
NNNI6
I1
I0
tp6609
bS'SERVE2'
p6610
tp6611
Rp6612
ag2
(g3
(S'S6'
p6613
I0
I1
tp6614
Rp6615
(I3
S'|'
p6616
NNNI6
I1
I0
tp6617
bS'SERVE2'
p6618
tp6619
Rp6620
ag2
(g3
(S'S6'
p6621
I0
I1
tp6622
Rp6623
(I3
S'|'
p6624
NNNI6
I1
I0
tp6625
bS'SERVE2'
p6626
tp6627
Rp6628
ag2
(g3
(S'S6'
p6629
I0
I1
tp6630
Rp6631
(I3
S'|'
p6632
NNNI6
I1
I0
tp6633
bS'SERVE2'
p6634
tp6635
Rp6636
ag2
(g3
(S'S6'
p6637
I0
I1
tp6638
Rp6639
(I3
S'|'
p6640
NNNI6
I1
I0
tp6641
bS'SERVE2'
p6642
tp6643
Rp6644
ag2
(g3
(S'S6'
p6645
I0
I1
tp6646
Rp6647
(I3
S'|'
p6648
NNNI6
I1
I0
tp6649
bS'SERVE6'
p6650
tp6651
Rp6652
ag2
(g3
(S'S6'
p6653
I0
I1
tp6654
Rp6655
(I3
S'|'
p6656
NNNI6
I1
I0
tp6657
bS'SERVE6'
p6658
tp6659
Rp6660
ag2
(g3
(S'S6'
p6661
I0
I1
tp6662
Rp6663
(I3
S'|'
p6664
NNNI6
I1
I0
tp6665
bS'SERVE6'
p6666
tp6667
Rp6668
ag2
(g3
(S'S7'
p6669
I0
I1
tp6670
Rp6671
(I3
S'|'
p6672
NNNI7
I1
I0
tp6673
bS'SERVE10'
p6674
tp6675
Rp6676
ag2
(g3
(S'S6'
p6677
I0
I1
tp6678
Rp6679
(I3
S'|'
p6680
NNNI6
I1
I0
tp6681
bS'SERVE6'
p6682
tp6683
Rp6684
ag2
(g3
(S'S6'
p6685
I0
I1
tp6686
Rp6687
(I3
S'|'
p6688
NNNI6
I1
I0
tp6689
bS'SERVE6'
p6690
tp6691
Rp6692
ag2
(g3
(S'S6'
p6693
I0
I1
tp6694
Rp6695
(I3
S'|'
p6696
NNNI6
I1
I0
tp6697
bS'SERVE6'
p6698
tp6699
Rp6700
ag2
(g3
(S'S6'
p6701
I0
I1
tp6702
Rp6703
(I3
S'|'
p6704
NNNI6
I1
I0
tp6705
bS'SERVE6'
p6706
tp6707
Rp6708
ag2
(g3
(S'S7'
p6709
I0
I1
tp6710
Rp6711
(I3
S'|'
p6712
NNNI7
I1
I0
tp6713
bS'SERVE12'
p6714
tp6715
Rp6716
ag2
(g3
(S'S6'
p6717
I0
I1
tp6718
Rp6719
(I3
S'|'
p6720
NNNI6
I1
I0
tp6721
bS'SERVE6'
p6722
tp6723
Rp6724
ag2
(g3
(S'S6'
p6725
I0
I1
tp6726
Rp6727
(I3
S'|'
p6728
NNNI6
I1
I0
tp6729
bS'SERVE6'
p6730
tp6731
Rp6732
ag2
(g3
(S'S6'
p6733
I0
I1
tp6734
Rp6735
(I3
S'|'
p6736
NNNI6
I1
I0
tp6737
bS'SERVE6'
p6738
tp6739
Rp6740
ag2
(g3
(S'S7'
p6741
I0
I1
tp6742
Rp6743
(I3
S'|'
p6744
NNNI7
I1
I0
tp6745
bS'SERVE10'
p6746
tp6747
Rp6748
ag2
(g3
(S'S7'
p6749
I0
I1
tp6750
Rp6751
(I3
S'|'
p6752
NNNI7
I1
I0
tp6753
bS'SERVE10'
p6754
tp6755
Rp6756
ag2
(g3
(S'S6'
p6757
I0
I1
tp6758
Rp6759
(I3
S'|'
p6760
NNNI6
I1
I0
tp6761
bS'SERVE6'
p6762
tp6763
Rp6764
ag2
(g3
(S'S7'
p6765
I0
I1
tp6766
Rp6767
(I3
S'|'
p6768
NNNI7
I1
I0
tp6769
bS'SERVE10'
p6770
tp6771
Rp6772
ag2
(g3
(S'S7'
p6773
I0
I1
tp6774
Rp6775
(I3
S'|'
p6776
NNNI7
I1
I0
tp6777
bS'SERVE12'
p6778
tp6779
Rp6780
ag2
(g3
(S'S6'
p6781
I0
I1
tp6782
Rp6783
(I3
S'|'
p6784
NNNI6
I1
I0
tp6785
bS'SERVE6'
p6786
tp6787
Rp6788
ag2
(g3
(S'S6'
p6789
I0
I1
tp6790
Rp6791
(I3
S'|'
p6792
NNNI6
I1
I0
tp6793
bS'SERVE6'
p6794
tp6795
Rp6796
ag2
(g3
(S'S7'
p6797
I0
I1
tp6798
Rp6799
(I3
S'|'
p6800
NNNI7
I1
I0
tp6801
bS'SERVE10'
p6802
tp6803
Rp6804
ag2
(g3
(S'S6'
p6805
I0
I1
tp6806
Rp6807
(I3
S'|'
p6808
NNNI6
I1
I0
tp6809
bS'SERVE6'
p6810
tp6811
Rp6812
ag2
(g3
(S'S7'
p6813
I0
I1
tp6814
Rp6815
(I3
S'|'
p6816
NNNI7
I1
I0
tp6817
bS'SERVE10'
p6818
tp6819
Rp6820
ag2
(g3
(S'S7'
p6821
I0
I1
tp6822
Rp6823
(I3
S'|'
p6824
NNNI7
I1
I0
tp6825
bS'SERVE10'
p6826
tp6827
Rp6828
ag2
(g3
(S'S7'
p6829
I0
I1
tp6830
Rp6831
(I3
S'|'
p6832
NNNI7
I1
I0
tp6833
bS'SERVE10'
p6834
tp6835
Rp6836
ag2
(g3
(S'S7'
p6837
I0
I1
tp6838
Rp6839
(I3
S'|'
p6840
NNNI7
I1
I0
tp6841
bS'SERVE10'
p6842
tp6843
Rp6844
ag2
(g3
(S'S7'
p6845
I0
I1
tp6846
Rp6847
(I3
S'|'
p6848
NNNI7
I1
I0
tp6849
bS'SERVE10'
p6850
tp6851
Rp6852
ag2
(g3
(S'S6'
p6853
I0
I1
tp6854
Rp6855
(I3
S'|'
p6856
NNNI6
I1
I0
tp6857
bS'SERVE6'
p6858
tp6859
Rp6860
ag2
(g3
(S'S7'
p6861
I0
I1
tp6862
Rp6863
(I3
S'|'
p6864
NNNI7
I1
I0
tp6865
bS'SERVE10'
p6866
tp6867
Rp6868
ag2
(g3
(S'S6'
p6869
I0
I1
tp6870
Rp6871
(I3
S'|'
p6872
NNNI6
I1
I0
tp6873
bS'SERVE6'
p6874
tp6875
Rp6876
ag2
(g3
(S'S7'
p6877
I0
I1
tp6878
Rp6879
(I3
S'|'
p6880
NNNI7
I1
I0
tp6881
bS'SERVE10'
p6882
tp6883
Rp6884
ag2
(g3
(S'S6'
p6885
I0
I1
tp6886
Rp6887
(I3
S'|'
p6888
NNNI6
I1
I0
tp6889
bS'SERVE6'
p6890
tp6891
Rp6892
ag2
(g3
(S'S6'
p6893
I0
I1
tp6894
Rp6895
(I3
S'|'
p6896
NNNI6
I1
I0
tp6897
bS'SERVE6'
p6898
tp6899
Rp6900
ag2
(g3
(S'S6'
p6901
I0
I1
tp6902
Rp6903
(I3
S'|'
p6904
NNNI6
I1
I0
tp6905
bS'SERVE6'
p6906
tp6907
Rp6908
ag2
(g3
(S'S7'
p6909
I0
I1
tp6910
Rp6911
(I3
S'|'
p6912
NNNI7
I1
I0
tp6913
bS'SERVE10'
p6914
tp6915
Rp6916
ag2
(g3
(S'S6'
p6917
I0
I1
tp6918
Rp6919
(I3
S'|'
p6920
NNNI6
I1
I0
tp6921
bS'SERVE6'
p6922
tp6923
Rp6924
ag2
(g3
(S'S7'
p6925
I0
I1
tp6926
Rp6927
(I3
S'|'
p6928
NNNI7
I1
I0
tp6929
bS'SERVE10'
p6930
tp6931
Rp6932
ag2
(g3
(S'S7'
p6933
I0
I1
tp6934
Rp6935
(I3
S'|'
p6936
NNNI7
I1
I0
tp6937
bS'SERVE12'
p6938
tp6939
Rp6940
ag2
(g3
(S'S7'
p6941
I0
I1
tp6942
Rp6943
(I3
S'|'
p6944
NNNI7
I1
I0
tp6945
bS'SERVE10'
p6946
tp6947
Rp6948
ag2
(g3
(S'S6'
p6949
I0
I1
tp6950
Rp6951
(I3
S'|'
p6952
NNNI6
I1
I0
tp6953
bS'SERVE6'
p6954
tp6955
Rp6956
ag2
(g3
(S'S6'
p6957
I0
I1
tp6958
Rp6959
(I3
S'|'
p6960
NNNI6
I1
I0
tp6961
bS'SERVE6'
p6962
tp6963
Rp6964
ag2
(g3
(S'S6'
p6965
I0
I1
tp6966
Rp6967
(I3
S'|'
p6968
NNNI6
I1
I0
tp6969
bS'SERVE6'
p6970
tp6971
Rp6972
ag2
(g3
(S'S7'
p6973
I0
I1
tp6974
Rp6975
(I3
S'|'
p6976
NNNI7
I1
I0
tp6977
bS'SERVE10'
p6978
tp6979
Rp6980
ag2
(g3
(S'S6'
p6981
I0
I1
tp6982
Rp6983
(I3
S'|'
p6984
NNNI6
I1
I0
tp6985
bS'SERVE6'
p6986
tp6987
Rp6988
ag2
(g3
(S'S6'
p6989
I0
I1
tp6990
Rp6991
(I3
S'|'
p6992
NNNI6
I1
I0
tp6993
bS'SERVE6'
p6994
tp6995
Rp6996
aa(lp6997
S'SERVE10'
p6998
ag6998
aS'SERVE2'
p6999
ag6998
ag6998
ag6998
ag6998
ag6998
ag6998
ag6998
ag6998
ag6998
ag6998
ag6998
ag6998
ag6998
ag6998
ag6998
ag6998
ag6998
ag6999
ag6998
aS'SERVE12'
p7000
ag6998
aS'SERVE6'
p7001
ag6998
ag6998
ag7001
ag6998
ag7000
ag7001
ag6998
ag6998
ag6999
ag7001
ag7001
ag6998
ag6998
ag6999
ag6998
ag6998
ag6999
ag6998
ag6998
ag6998
ag7000
ag7000
ag6999
ag6998
ag6998
ag7001
ag6998
ag6998
ag6998
ag6998
ag6998
ag6998
ag7000
ag6999
ag6998
ag6998
ag6998
ag6998
ag6998
ag6999
ag6998
ag6998
ag6998
ag6998
ag6998
ag6998
ag6998
ag6998
ag6998
ag7000
ag7001
ag6998
ag6998
ag6998
ag6998
ag6998
ag6998
ag6998
ag6998
ag6998
ag6998
ag6998
ag6999
ag6998
ag6998
ag6998
ag6998
ag6998
ag6998
ag6998
ag6998
ag6998
ag6998
ag6998
ag6998
ag6998
ag6998
ag6998
ag6998
ag6998
ag6998
ag6998
ag6998
ag7001
ag7000
ag6998
ag6999
ag6998
ag6998
ag7000
ag6998
ag6998
ag6998
ag6998
ag7001
ag6999
ag6998
ag6998
ag6998
ag6998
ag6998
ag6998
ag6998
ag7000
ag6998
ag6999
ag6998
ag6998
ag6999
ag6998
ag6998
ag6998
ag6998
ag6999
ag6998
ag6998
ag6998
ag6998
ag6998
ag6998
ag6998
ag6999
ag6998
ag6998
ag6998
ag6998
ag6999
ag6998
ag6998
ag6998
ag6998
ag7001
ag6998
ag6998
ag6998
ag6998
ag6998
ag6998
ag7001
ag6998
ag6998
ag6998
ag6998
ag6998
ag6998
ag6998
ag6998
ag6998
ag6998
ag6998
ag6998
ag6999
ag6998
ag6999
ag6998
ag6998
ag7000
ag7000
ag7000
ag7000
ag7000
ag7001
ag7000
ag7000
ag7000
ag7000
ag7000
ag7000
ag7000
ag7000
ag7000
ag7000
ag7000
ag7000
ag7000
ag7000
ag7000
ag7000
ag7000
ag7000
ag7000
ag7000
ag7000
ag7000
ag7001
ag7000
ag7000
ag7000
ag7000
ag7000
ag7000
ag7000
ag7000
ag7000
ag7000
ag7001
ag7000
ag7000
ag6999
ag7000
ag7000
ag7000
ag6999
ag7000
ag7000
ag7000
ag7000
ag7000
ag7000
ag7000
ag7000
ag7000
ag7000
ag7000
ag7000
ag7000
ag7000
ag7000
ag7001
ag6999
ag7000
ag7000
ag7000
ag7000
ag6999
ag7000
ag7000
ag7000
ag7000
ag7000
ag7000
ag7000
ag7000
ag7000
ag7000
ag7000
ag7000
ag7000
ag7001
ag6999
ag7000
ag7000
ag7000
ag7000
ag7000
ag7000
ag7000
ag7001
ag7000
ag7000
ag7000
ag6999
ag7000
ag7000
ag7000
ag7000
ag7000
ag7000
ag7000
ag7000
ag7000
ag7000
ag7000
ag7000
ag7000
ag7000
ag7000
ag7000
ag7000
ag7000
ag7000
ag7000
ag7000
ag7000
ag7000
ag7000
ag7000
ag7000
ag7000
ag7000
ag7000
ag7000
ag7000
ag6999
ag6999
ag6999
ag6999
ag6999
ag6999
ag6999
ag6999
ag6999
ag7001
ag6999
ag6999
ag6999
ag6999
ag6999
ag6999
ag7001
ag6999
ag6999
ag6999
ag6999
ag6999
ag6999
ag6999
ag6999
ag6999
ag6999
ag7001
ag6999
ag6999
ag6999
ag6999
ag6999
ag6999
ag7000
ag6999
ag7001
ag7001
ag6999
ag6999
ag6999
ag6999
ag6999
ag7000
ag6999
ag7001
ag6999
ag6999
ag6999
ag6999
ag6999
ag6999
ag6999
ag6999
ag6999
ag6999
ag6999
ag6999
ag6999
ag6999
ag6999
ag6999
ag6999
ag6999
ag6999
ag6999
ag6999
ag6999
ag7000
ag6999
ag6999
ag6999
ag6999
ag7001
ag7001
ag6999
ag6999
ag6999
ag6999
ag7000
ag6999
ag6999
ag6999
ag6999
ag6999
ag7001
ag7001
ag7001
ag7001
ag7001
ag7001
ag7001
ag7001
ag7001
ag7001
ag7001
ag7001
ag7001
ag7001
ag7001
ag7001
ag7001
ag7001
ag7001
ag6999
ag7001
ag7001
ag7001
ag7001
ag7001
ag7001
ag7001
ag7001
ag7001
ag7001
ag7001
ag7001
ag7001
ag7001
ag7001
ag7001
ag7001
ag7001
ag7001
ag7001
ag7001
ag7001
ag7001
ag7001
aa(lp7002
g6998
ag6998
ag6998
ag6998
ag6998
ag6998
ag6998
ag6998
ag6998
ag6998
ag6998
ag6998
ag6998
ag6998
ag6998
ag6998
ag6998
ag6998
ag6998
ag6998
ag6998
ag6998
ag6998
ag6998
ag6998
ag6998
ag6998
ag6998
ag6998
ag7000
ag6998
ag6998
ag6998
ag6998
ag6998
ag6998
ag6998
ag6998
ag6998
ag6998
ag6998
ag6998
ag6998
ag6998
ag6998
ag6998
ag6998
ag6998
ag6998
ag6998
ag6998
ag6998
ag6998
ag6998
ag6998
ag6998
ag6998
ag6998
ag6998
ag6998
ag6998
ag6998
ag6998
ag6998
ag6998
ag6998
ag6998
ag6998
ag6998
ag6998
ag6998
ag6998
ag6998
ag6998
ag6998
ag6998
ag6998
ag6998
ag6998
ag6998
ag6998
ag6998
ag6998
ag6998
ag6998
ag6998
ag6998
ag6998
ag6998
ag6998
ag6998
ag6998
ag6998
ag6998
ag6998
ag6998
ag6998
ag6998
ag6998
ag6998
ag6998
ag6998
ag6998
ag6998
ag6998
ag6998
ag6998
ag6998
ag6998
ag6998
ag6998
ag6998
ag6998
ag6998
ag6998
ag6998
ag6998
ag6998
ag6998
ag6998
ag6998
ag6998
ag6998
ag6998
ag6998
ag6998
ag6998
ag6998
ag6998
ag6998
ag6998
ag6998
ag6998
ag6998
ag6998
ag6998
ag6998
ag6998
ag6998
ag6998
ag6998
ag6998
ag6998
ag6998
ag6998
ag6998
ag6998
ag6998
ag6998
ag6998
ag6998
ag6998
ag6998
ag6998
ag6998
ag6998
ag6998
ag6998
ag6998
ag6998
ag6998
ag6998
ag6998
ag6998
ag6998
ag6998
ag6998
ag6998
ag6998
ag6998
ag6998
ag6998
ag6998
ag6998
ag6998
ag6998
ag6999
ag6998
ag6998
ag6998
ag6998
ag7000
ag7000
ag7000
ag7000
ag7000
ag7000
ag7000
ag7000
ag7000
ag7000
ag7000
ag7000
ag7000
ag7000
ag7000
ag7000
ag7000
ag7000
ag7000
ag7000
ag7000
ag7000
ag7000
ag7000
ag7000
ag7000
ag7000
ag7000
ag7000
ag6998
ag7000
ag7000
ag7000
ag6998
ag7000
ag7000
ag7000
ag7000
ag7000
ag7000
ag7000
ag7000
ag7000
ag7000
ag7000
ag7000
ag7000
ag7000
ag7000
ag7000
ag7000
ag7000
ag7000
ag7000
ag7000
ag7000
ag7000
ag7000
ag7000
ag7000
ag6998
ag7000
ag7000
ag6998
ag7000
ag7000
ag7000
ag7000
ag7000
ag7000
ag7000
ag7000
ag7000
ag7000
ag7000
ag7000
ag7000
ag7000
ag7000
ag7000
ag7000
ag7000
ag7000
ag6999
ag7000
ag7000
ag7000
ag7000
ag7000
ag7000
ag7000
ag7000
ag7000
ag7000
ag7000
ag7000
ag7000
ag7000
ag7000
ag7000
ag7000
ag7000
ag7000
ag7000
ag7000
ag7000
ag7000
ag6998
ag7000
ag7000
ag7000
ag7000
ag7000
ag7000
ag7000
ag7000
ag7000
ag7000
ag6998
ag7000
ag7000
ag7000
ag7000
ag7000
ag7000
ag7000
ag7000
ag6999
ag6999
ag6999
ag7000
ag6998
ag6999
ag6999
ag7000
ag6999
ag7001
ag6999
ag6999
ag6999
ag6999
ag6999
ag6999
ag7000
ag6999
ag6999
ag6999
ag6999
ag6999
ag6999
ag6999
ag6999
ag7000
ag6999
ag7000
ag6999
ag6999
ag6999
ag6999
ag6999
ag6999
ag7000
ag6999
ag7000
ag6999
ag6999
ag6998
ag6998
ag6999
ag6999
ag7000
ag6999
ag6998
ag6999
ag6999
ag6999
ag6998
ag6999
ag6999
ag6999
ag6999
ag7000
ag6999
ag6999
ag6999
ag6999
ag6999
ag6999
ag7000
ag6999
ag6999
ag6999
ag6999
ag6999
ag6999
ag7000
ag6999
ag6999
ag6999
ag6999
ag6999
ag7000
ag6999
ag6999
ag6998
ag6999
ag7000
ag6999
ag6999
ag6999
ag6999
ag6999
ag7001
ag7001
ag6998
ag7001
ag7001
ag7001
ag7001
ag7001
ag7001
ag7001
ag7001
ag7000
ag7001
ag7001
ag6999
ag7001
ag7000
ag7001
ag7001
ag6998
ag7001
ag7001
ag7001
ag7001
ag6999
ag7000
ag7001
ag6998
ag7001
ag7001
ag7001
ag7001
ag7001
ag7001
ag7001
ag7000
ag7001
ag7001
ag7001
ag7000
ag7000
ag6998
ag6998
ag7001
aa(lp7003
g2
(g3
(S'S7'
p7004
I0
I1
tp7005
Rp7006
(I3
S'|'
p7007
NNNI7
I1
I0
tp7008
bS'SERVE10'
p7009
tp7010
Rp7011
ag2
(g3
(S'S7'
p7012
I0
I1
tp7013
Rp7014
(I3
S'|'
p7015
NNNI7
I1
I0
tp7016
bS'SERVE10'
p7017
tp7018
Rp7019
ag2
(g3
(S'S6'
p7020
I0
I1
tp7021
Rp7022
(I3
S'|'
p7023
NNNI6
I1
I0
tp7024
bS'SERVE2'
p7025
tp7026
Rp7027
ag2
(g3
(S'S7'
p7028
I0
I1
tp7029
Rp7030
(I3
S'|'
p7031
NNNI7
I1
I0
tp7032
bS'SERVE10'
p7033
tp7034
Rp7035
ag2
(g3
(S'S7'
p7036
I0
I1
tp7037
Rp7038
(I3
S'|'
p7039
NNNI7
I1
I0
tp7040
bS'SERVE10'
p7041
tp7042
Rp7043
ag2
(g3
(S'S7'
p7044
I0
I1
tp7045
Rp7046
(I3
S'|'
p7047
NNNI7
I1
I0
tp7048
bS'SERVE10'
p7049
tp7050
Rp7051
ag2
(g3
(S'S7'
p7052
I0
I1
tp7053
Rp7054
(I3
S'|'
p7055
NNNI7
I1
I0
tp7056
bS'SERVE10'
p7057
tp7058
Rp7059
ag2
(g3
(S'S7'
p7060
I0
I1
tp7061
Rp7062
(I3
S'|'
p7063
NNNI7
I1
I0
tp7064
bS'SERVE10'
p7065
tp7066
Rp7067
ag2
(g3
(S'S7'
p7068
I0
I1
tp7069
Rp7070
(I3
S'|'
p7071
NNNI7
I1
I0
tp7072
bS'SERVE10'
p7073
tp7074
Rp7075
ag2
(g3
(S'S7'
p7076
I0
I1
tp7077
Rp7078
(I3
S'|'
p7079
NNNI7
I1
I0
tp7080
bS'SERVE10'
p7081
tp7082
Rp7083
ag2
(g3
(S'S7'
p7084
I0
I1
tp7085
Rp7086
(I3
S'|'
p7087
NNNI7
I1
I0
tp7088
bS'SERVE10'
p7089
tp7090
Rp7091
ag2
(g3
(S'S6'
p7092
I0
I1
tp7093
Rp7094
(I3
S'|'
p7095
NNNI6
I1
I0
tp7096
bS'SERVE2'
p7097
tp7098
Rp7099
ag2
(g3
(S'S7'
p7100
I0
I1
tp7101
Rp7102
(I3
S'|'
p7103
NNNI7
I1
I0
tp7104
bS'SERVE10'
p7105
tp7106
Rp7107
ag2
(g3
(S'S7'
p7108
I0
I1
tp7109
Rp7110
(I3
S'|'
p7111
NNNI7
I1
I0
tp7112
bS'SERVE10'
p7113
tp7114
Rp7115
ag2
(g3
(S'S7'
p7116
I0
I1
tp7117
Rp7118
(I3
S'|'
p7119
NNNI7
I1
I0
tp7120
bS'SERVE10'
p7121
tp7122
Rp7123
ag2
(g3
(S'S7'
p7124
I0
I1
tp7125
Rp7126
(I3
S'|'
p7127
NNNI7
I1
I0
tp7128
bS'SERVE10'
p7129
tp7130
Rp7131
ag2
(g3
(S'S7'
p7132
I0
I1
tp7133
Rp7134
(I3
S'|'
p7135
NNNI7
I1
I0
tp7136
bS'SERVE10'
p7137
tp7138
Rp7139
ag2
(g3
(S'S7'
p7140
I0
I1
tp7141
Rp7142
(I3
S'|'
p7143
NNNI7
I1
I0
tp7144
bS'SERVE10'
p7145
tp7146
Rp7147
ag2
(g3
(S'S7'
p7148
I0
I1
tp7149
Rp7150
(I3
S'|'
p7151
NNNI7
I1
I0
tp7152
bS'SERVE10'
p7153
tp7154
Rp7155
ag2
(g3
(S'S7'
p7156
I0
I1
tp7157
Rp7158
(I3
S'|'
p7159
NNNI7
I1
I0
tp7160
bS'SERVE10'
p7161
tp7162
Rp7163
ag2
(g3
(S'S7'
p7164
I0
I1
tp7165
Rp7166
(I3
S'|'
p7167
NNNI7
I1
I0
tp7168
bS'SERVE10'
p7169
tp7170
Rp7171
ag2
(g3
(S'S7'
p7172
I0
I1
tp7173
Rp7174
(I3
S'|'
p7175
NNNI7
I1
I0
tp7176
bS'SERVE10'
p7177
tp7178
Rp7179
ag2
(g3
(S'S7'
p7180
I0
I1
tp7181
Rp7182
(I3
S'|'
p7183
NNNI7
I1
I0
tp7184
bS'SERVE10'
p7185
tp7186
Rp7187
ag2
(g3
(S'S7'
p7188
I0
I1
tp7189
Rp7190
(I3
S'|'
p7191
NNNI7
I1
I0
tp7192
bS'SERVE10'
p7193
tp7194
Rp7195
ag2
(g3
(S'S7'
p7196
I0
I1
tp7197
Rp7198
(I3
S'|'
p7199
NNNI7
I1
I0
tp7200
bS'SERVE10'
p7201
tp7202
Rp7203
ag2
(g3
(S'S7'
p7204
I0
I1
tp7205
Rp7206
(I3
S'|'
p7207
NNNI7
I1
I0
tp7208
bS'SERVE10'
p7209
tp7210
Rp7211
ag2
(g3
(S'S7'
p7212
I0
I1
tp7213
Rp7214
(I3
S'|'
p7215
NNNI7
I1
I0
tp7216
bS'SERVE10'
p7217
tp7218
Rp7219
ag2
(g3
(S'S7'
p7220
I0
I1
tp7221
Rp7222
(I3
S'|'
p7223
NNNI7
I1
I0
tp7224
bS'SERVE10'
p7225
tp7226
Rp7227
ag2
(g3
(S'S7'
p7228
I0
I1
tp7229
Rp7230
(I3
S'|'
p7231
NNNI7
I1
I0
tp7232
bS'SERVE10'
p7233
tp7234
Rp7235
ag2
(g3
(S'S7'
p7236
I0
I1
tp7237
Rp7238
(I3
S'|'
p7239
NNNI7
I1
I0
tp7240
bS'SERVE10'
p7241
tp7242
Rp7243
ag2
(g3
(S'S7'
p7244
I0
I1
tp7245
Rp7246
(I3
S'|'
p7247
NNNI7
I1
I0
tp7248
bS'SERVE10'
p7249
tp7250
Rp7251
ag2
(g3
(S'S7'
p7252
I0
I1
tp7253
Rp7254
(I3
S'|'
p7255
NNNI7
I1
I0
tp7256
bS'SERVE10'
p7257
tp7258
Rp7259
ag2
(g3
(S'S6'
p7260
I0
I1
tp7261
Rp7262
(I3
S'|'
p7263
NNNI6
I1
I0
tp7264
bS'SERVE2'
p7265
tp7266
Rp7267
ag2
(g3
(S'S7'
p7268
I0
I1
tp7269
Rp7270
(I3
S'|'
p7271
NNNI7
I1
I0
tp7272
bS'SERVE10'
p7273
tp7274
Rp7275
ag2
(g3
(S'S7'
p7276
I0
I1
tp7277
Rp7278
(I3
S'|'
p7279
NNNI7
I1
I0
tp7280
bS'SERVE10'
p7281
tp7282
Rp7283
ag2
(g3
(S'S7'
p7284
I0
I1
tp7285
Rp7286
(I3
S'|'
p7287
NNNI7
I1
I0
tp7288
bS'SERVE10'
p7289
tp7290
Rp7291
ag2
(g3
(S'S7'
p7292
I0
I1
tp7293
Rp7294
(I3
S'|'
p7295
NNNI7
I1
I0
tp7296
bS'SERVE10'
p7297
tp7298
Rp7299
ag2
(g3
(S'S7'
p7300
I0
I1
tp7301
Rp7302
(I3
S'|'
p7303
NNNI7
I1
I0
tp7304
bS'SERVE10'
p7305
tp7306
Rp7307
ag2
(g3
(S'S6'
p7308
I0
I1
tp7309
Rp7310
(I3
S'|'
p7311
NNNI6
I1
I0
tp7312
bS'SERVE2'
p7313
tp7314
Rp7315
ag2
(g3
(S'S7'
p7316
I0
I1
tp7317
Rp7318
(I3
S'|'
p7319
NNNI7
I1
I0
tp7320
bS'SERVE10'
p7321
tp7322
Rp7323
ag2
(g3
(S'S7'
p7324
I0
I1
tp7325
Rp7326
(I3
S'|'
p7327
NNNI7
I1
I0
tp7328
bS'SERVE10'
p7329
tp7330
Rp7331
ag2
(g3
(S'S7'
p7332
I0
I1
tp7333
Rp7334
(I3
S'|'
p7335
NNNI7
I1
I0
tp7336
bS'SERVE10'
p7337
tp7338
Rp7339
ag2
(g3
(S'S7'
p7340
I0
I1
tp7341
Rp7342
(I3
S'|'
p7343
NNNI7
I1
I0
tp7344
bS'SERVE10'
p7345
tp7346
Rp7347
ag2
(g3
(S'S7'
p7348
I0
I1
tp7349
Rp7350
(I3
S'|'
p7351
NNNI7
I1
I0
tp7352
bS'SERVE10'
p7353
tp7354
Rp7355
ag2
(g3
(S'S7'
p7356
I0
I1
tp7357
Rp7358
(I3
S'|'
p7359
NNNI7
I1
I0
tp7360
bS'SERVE10'
p7361
tp7362
Rp7363
ag2
(g3
(S'S7'
p7364
I0
I1
tp7365
Rp7366
(I3
S'|'
p7367
NNNI7
I1
I0
tp7368
bS'SERVE10'
p7369
tp7370
Rp7371
ag2
(g3
(S'S7'
p7372
I0
I1
tp7373
Rp7374
(I3
S'|'
p7375
NNNI7
I1
I0
tp7376
bS'SERVE10'
p7377
tp7378
Rp7379
ag2
(g3
(S'S7'
p7380
I0
I1
tp7381
Rp7382
(I3
S'|'
p7383
NNNI7
I1
I0
tp7384
bS'SERVE10'
p7385
tp7386
Rp7387
ag2
(g3
(S'S7'
p7388
I0
I1
tp7389
Rp7390
(I3
S'|'
p7391
NNNI7
I1
I0
tp7392
bS'SERVE10'
p7393
tp7394
Rp7395
ag2
(g3
(S'S7'
p7396
I0
I1
tp7397
Rp7398
(I3
S'|'
p7399
NNNI7
I1
I0
tp7400
bS'SERVE10'
p7401
tp7402
Rp7403
ag2
(g3
(S'S7'
p7404
I0
I1
tp7405
Rp7406
(I3
S'|'
p7407
NNNI7
I1
I0
tp7408
bS'SERVE10'
p7409
tp7410
Rp7411
ag2
(g3
(S'S7'
p7412
I0
I1
tp7413
Rp7414
(I3
S'|'
p7415
NNNI7
I1
I0
tp7416
bS'SERVE10'
p7417
tp7418
Rp7419
ag2
(g3
(S'S7'
p7420
I0
I1
tp7421
Rp7422
(I3
S'|'
p7423
NNNI7
I1
I0
tp7424
bS'SERVE10'
p7425
tp7426
Rp7427
ag2
(g3
(S'S7'
p7428
I0
I1
tp7429
Rp7430
(I3
S'|'
p7431
NNNI7
I1
I0
tp7432
bS'SERVE10'
p7433
tp7434
Rp7435
ag2
(g3
(S'S7'
p7436
I0
I1
tp7437
Rp7438
(I3
S'|'
p7439
NNNI7
I1
I0
tp7440
bS'SERVE10'
p7441
tp7442
Rp7443
ag2
(g3
(S'S7'
p7444
I0
I1
tp7445
Rp7446
(I3
S'|'
p7447
NNNI7
I1
I0
tp7448
bS'SERVE10'
p7449
tp7450
Rp7451
ag2
(g3
(S'S7'
p7452
I0
I1
tp7453
Rp7454
(I3
S'|'
p7455
NNNI7
I1
I0
tp7456
bS'SERVE10'
p7457
tp7458
Rp7459
ag2
(g3
(S'S7'
p7460
I0
I1
tp7461
Rp7462
(I3
S'|'
p7463
NNNI7
I1
I0
tp7464
bS'SERVE10'
p7465
tp7466
Rp7467
ag2
(g3
(S'S7'
p7468
I0
I1
tp7469
Rp7470
(I3
S'|'
p7471
NNNI7
I1
I0
tp7472
bS'SERVE10'
p7473
tp7474
Rp7475
ag2
(g3
(S'S7'
p7476
I0
I1
tp7477
Rp7478
(I3
S'|'
p7479
NNNI7
I1
I0
tp7480
bS'SERVE10'
p7481
tp7482
Rp7483
ag2
(g3
(S'S7'
p7484
I0
I1
tp7485
Rp7486
(I3
S'|'
p7487
NNNI7
I1
I0
tp7488
bS'SERVE10'
p7489
tp7490
Rp7491
ag2
(g3
(S'S7'
p7492
I0
I1
tp7493
Rp7494
(I3
S'|'
p7495
NNNI7
I1
I0
tp7496
bS'SERVE10'
p7497
tp7498
Rp7499
ag2
(g3
(S'S7'
p7500
I0
I1
tp7501
Rp7502
(I3
S'|'
p7503
NNNI7
I1
I0
tp7504
bS'SERVE10'
p7505
tp7506
Rp7507
ag2
(g3
(S'S7'
p7508
I0
I1
tp7509
Rp7510
(I3
S'|'
p7511
NNNI7
I1
I0
tp7512
bS'SERVE10'
p7513
tp7514
Rp7515
ag2
(g3
(S'S6'
p7516
I0
I1
tp7517
Rp7518
(I3
S'|'
p7519
NNNI6
I1
I0
tp7520
bS'SERVE2'
p7521
tp7522
Rp7523
ag2
(g3
(S'S7'
p7524
I0
I1
tp7525
Rp7526
(I3
S'|'
p7527
NNNI7
I1
I0
tp7528
bS'SERVE10'
p7529
tp7530
Rp7531
ag2
(g3
(S'S7'
p7532
I0
I1
tp7533
Rp7534
(I3
S'|'
p7535
NNNI7
I1
I0
tp7536
bS'SERVE10'
p7537
tp7538
Rp7539
ag2
(g3
(S'S7'
p7540
I0
I1
tp7541
Rp7542
(I3
S'|'
p7543
NNNI7
I1
I0
tp7544
bS'SERVE10'
p7545
tp7546
Rp7547
ag2
(g3
(S'S7'
p7548
I0
I1
tp7549
Rp7550
(I3
S'|'
p7551
NNNI7
I1
I0
tp7552
bS'SERVE10'
p7553
tp7554
Rp7555
ag2
(g3
(S'S7'
p7556
I0
I1
tp7557
Rp7558
(I3
S'|'
p7559
NNNI7
I1
I0
tp7560
bS'SERVE10'
p7561
tp7562
Rp7563
ag2
(g3
(S'S7'
p7564
I0
I1
tp7565
Rp7566
(I3
S'|'
p7567
NNNI7
I1
I0
tp7568
bS'SERVE10'
p7569
tp7570
Rp7571
ag2
(g3
(S'S7'
p7572
I0
I1
tp7573
Rp7574
(I3
S'|'
p7575
NNNI7
I1
I0
tp7576
bS'SERVE10'
p7577
tp7578
Rp7579
ag2
(g3
(S'S7'
p7580
I0
I1
tp7581
Rp7582
(I3
S'|'
p7583
NNNI7
I1
I0
tp7584
bS'SERVE10'
p7585
tp7586
Rp7587
ag2
(g3
(S'S7'
p7588
I0
I1
tp7589
Rp7590
(I3
S'|'
p7591
NNNI7
I1
I0
tp7592
bS'SERVE10'
p7593
tp7594
Rp7595
ag2
(g3
(S'S7'
p7596
I0
I1
tp7597
Rp7598
(I3
S'|'
p7599
NNNI7
I1
I0
tp7600
bS'SERVE10'
p7601
tp7602
Rp7603
ag2
(g3
(S'S7'
p7604
I0
I1
tp7605
Rp7606
(I3
S'|'
p7607
NNNI7
I1
I0
tp7608
bS'SERVE10'
p7609
tp7610
Rp7611
ag2
(g3
(S'S7'
p7612
I0
I1
tp7613
Rp7614
(I3
S'|'
p7615
NNNI7
I1
I0
tp7616
bS'SERVE10'
p7617
tp7618
Rp7619
ag2
(g3
(S'S7'
p7620
I0
I1
tp7621
Rp7622
(I3
S'|'
p7623
NNNI7
I1
I0
tp7624
bS'SERVE10'
p7625
tp7626
Rp7627
ag2
(g3
(S'S7'
p7628
I0
I1
tp7629
Rp7630
(I3
S'|'
p7631
NNNI7
I1
I0
tp7632
bS'SERVE10'
p7633
tp7634
Rp7635
ag2
(g3
(S'S7'
p7636
I0
I1
tp7637
Rp7638
(I3
S'|'
p7639
NNNI7
I1
I0
tp7640
bS'SERVE10'
p7641
tp7642
Rp7643
ag2
(g3
(S'S7'
p7644
I0
I1
tp7645
Rp7646
(I3
S'|'
p7647
NNNI7
I1
I0
tp7648
bS'SERVE10'
p7649
tp7650
Rp7651
ag2
(g3
(S'S7'
p7652
I0
I1
tp7653
Rp7654
(I3
S'|'
p7655
NNNI7
I1
I0
tp7656
bS'SERVE10'
p7657
tp7658
Rp7659
ag2
(g3
(S'S7'
p7660
I0
I1
tp7661
Rp7662
(I3
S'|'
p7663
NNNI7
I1
I0
tp7664
bS'SERVE10'
p7665
tp7666
Rp7667
ag2
(g3
(S'S7'
p7668
I0
I1
tp7669
Rp7670
(I3
S'|'
p7671
NNNI7
I1
I0
tp7672
bS'SERVE10'
p7673
tp7674
Rp7675
ag2
(g3
(S'S7'
p7676
I0
I1
tp7677
Rp7678
(I3
S'|'
p7679
NNNI7
I1
I0
tp7680
bS'SERVE10'
p7681
tp7682
Rp7683
ag2
(g3
(S'S7'
p7684
I0
I1
tp7685
Rp7686
(I3
S'|'
p7687
NNNI7
I1
I0
tp7688
bS'SERVE10'
p7689
tp7690
Rp7691
ag2
(g3
(S'S7'
p7692
I0
I1
tp7693
Rp7694
(I3
S'|'
p7695
NNNI7
I1
I0
tp7696
bS'SERVE10'
p7697
tp7698
Rp7699
ag2
(g3
(S'S7'
p7700
I0
I1
tp7701
Rp7702
(I3
S'|'
p7703
NNNI7
I1
I0
tp7704
bS'SERVE10'
p7705
tp7706
Rp7707
ag2
(g3
(S'S7'
p7708
I0
I1
tp7709
Rp7710
(I3
S'|'
p7711
NNNI7
I1
I0
tp7712
bS'SERVE10'
p7713
tp7714
Rp7715
ag2
(g3
(S'S7'
p7716
I0
I1
tp7717
Rp7718
(I3
S'|'
p7719
NNNI7
I1
I0
tp7720
bS'SERVE10'
p7721
tp7722
Rp7723
ag2
(g3
(S'S7'
p7724
I0
I1
tp7725
Rp7726
(I3
S'|'
p7727
NNNI7
I1
I0
tp7728
bS'SERVE10'
p7729
tp7730
Rp7731
ag2
(g3
(S'S7'
p7732
I0
I1
tp7733
Rp7734
(I3
S'|'
p7735
NNNI7
I1
I0
tp7736
bS'SERVE10'
p7737
tp7738
Rp7739
ag2
(g3
(S'S7'
p7740
I0
I1
tp7741
Rp7742
(I3
S'|'
p7743
NNNI7
I1
I0
tp7744
bS'SERVE10'
p7745
tp7746
Rp7747
ag2
(g3
(S'S7'
p7748
I0
I1
tp7749
Rp7750
(I3
S'|'
p7751
NNNI7
I1
I0
tp7752
bS'SERVE10'
p7753
tp7754
Rp7755
ag2
(g3
(S'S7'
p7756
I0
I1
tp7757
Rp7758
(I3
S'|'
p7759
NNNI7
I1
I0
tp7760
bS'SERVE10'
p7761
tp7762
Rp7763
ag2
(g3
(S'S7'
p7764
I0
I1
tp7765
Rp7766
(I3
S'|'
p7767
NNNI7
I1
I0
tp7768
bS'SERVE10'
p7769
tp7770
Rp7771
ag2
(g3
(S'S7'
p7772
I0
I1
tp7773
Rp7774
(I3
S'|'
p7775
NNNI7
I1
I0
tp7776
bS'SERVE10'
p7777
tp7778
Rp7779
ag2
(g3
(S'S7'
p7780
I0
I1
tp7781
Rp7782
(I3
S'|'
p7783
NNNI7
I1
I0
tp7784
bS'SERVE10'
p7785
tp7786
Rp7787
ag2
(g3
(S'S7'
p7788
I0
I1
tp7789
Rp7790
(I3
S'|'
p7791
NNNI7
I1
I0
tp7792
bS'SERVE10'
p7793
tp7794
Rp7795
ag2
(g3
(S'S7'
p7796
I0
I1
tp7797
Rp7798
(I3
S'|'
p7799
NNNI7
I1
I0
tp7800
bS'SERVE10'
p7801
tp7802
Rp7803
ag2
(g3
(S'S7'
p7804
I0
I1
tp7805
Rp7806
(I3
S'|'
p7807
NNNI7
I1
I0
tp7808
bS'SERVE10'
p7809
tp7810
Rp7811
ag2
(g3
(S'S7'
p7812
I0
I1
tp7813
Rp7814
(I3
S'|'
p7815
NNNI7
I1
I0
tp7816
bS'SERVE10'
p7817
tp7818
Rp7819
ag2
(g3
(S'S7'
p7820
I0
I1
tp7821
Rp7822
(I3
S'|'
p7823
NNNI7
I1
I0
tp7824
bS'SERVE10'
p7825
tp7826
Rp7827
ag2
(g3
(S'S7'
p7828
I0
I1
tp7829
Rp7830
(I3
S'|'
p7831
NNNI7
I1
I0
tp7832
bS'SERVE10'
p7833
tp7834
Rp7835
ag2
(g3
(S'S7'
p7836
I0
I1
tp7837
Rp7838
(I3
S'|'
p7839
NNNI7
I1
I0
tp7840
bS'SERVE10'
p7841
tp7842
Rp7843
ag2
(g3
(S'S7'
p7844
I0
I1
tp7845
Rp7846
(I3
S'|'
p7847
NNNI7
I1
I0
tp7848
bS'SERVE10'
p7849
tp7850
Rp7851
ag2
(g3
(S'S7'
p7852
I0
I1
tp7853
Rp7854
(I3
S'|'
p7855
NNNI7
I1
I0
tp7856
bS'SERVE10'
p7857
tp7858
Rp7859
ag2
(g3
(S'S7'
p7860
I0
I1
tp7861
Rp7862
(I3
S'|'
p7863
NNNI7
I1
I0
tp7864
bS'SERVE10'
p7865
tp7866
Rp7867
ag2
(g3
(S'S7'
p7868
I0
I1
tp7869
Rp7870
(I3
S'|'
p7871
NNNI7
I1
I0
tp7872
bS'SERVE10'
p7873
tp7874
Rp7875
ag2
(g3
(S'S7'
p7876
I0
I1
tp7877
Rp7878
(I3
S'|'
p7879
NNNI7
I1
I0
tp7880
bS'SERVE10'
p7881
tp7882
Rp7883
ag2
(g3
(S'S7'
p7884
I0
I1
tp7885
Rp7886
(I3
S'|'
p7887
NNNI7
I1
I0
tp7888
bS'SERVE10'
p7889
tp7890
Rp7891
ag2
(g3
(S'S7'
p7892
I0
I1
tp7893
Rp7894
(I3
S'|'
p7895
NNNI7
I1
I0
tp7896
bS'SERVE10'
p7897
tp7898
Rp7899
ag2
(g3
(S'S7'
p7900
I0
I1
tp7901
Rp7902
(I3
S'|'
p7903
NNNI7
I1
I0
tp7904
bS'SERVE10'
p7905
tp7906
Rp7907
ag2
(g3
(S'S7'
p7908
I0
I1
tp7909
Rp7910
(I3
S'|'
p7911
NNNI7
I1
I0
tp7912
bS'SERVE10'
p7913
tp7914
Rp7915
ag2
(g3
(S'S7'
p7916
I0
I1
tp7917
Rp7918
(I3
S'|'
p7919
NNNI7
I1
I0
tp7920
bS'SERVE10'
p7921
tp7922
Rp7923
ag2
(g3
(S'S7'
p7924
I0
I1
tp7925
Rp7926
(I3
S'|'
p7927
NNNI7
I1
I0
tp7928
bS'SERVE10'
p7929
tp7930
Rp7931
ag2
(g3
(S'S7'
p7932
I0
I1
tp7933
Rp7934
(I3
S'|'
p7935
NNNI7
I1
I0
tp7936
bS'SERVE10'
p7937
tp7938
Rp7939
ag2
(g3
(S'S7'
p7940
I0
I1
tp7941
Rp7942
(I3
S'|'
p7943
NNNI7
I1
I0
tp7944
bS'SERVE10'
p7945
tp7946
Rp7947
ag2
(g3
(S'S7'
p7948
I0
I1
tp7949
Rp7950
(I3
S'|'
p7951
NNNI7
I1
I0
tp7952
bS'SERVE10'
p7953
tp7954
Rp7955
ag2
(g3
(S'S7'
p7956
I0
I1
tp7957
Rp7958
(I3
S'|'
p7959
NNNI7
I1
I0
tp7960
bS'SERVE10'
p7961
tp7962
Rp7963
ag2
(g3
(S'S7'
p7964
I0
I1
tp7965
Rp7966
(I3
S'|'
p7967
NNNI7
I1
I0
tp7968
bS'SERVE10'
p7969
tp7970
Rp7971
ag2
(g3
(S'S7'
p7972
I0
I1
tp7973
Rp7974
(I3
S'|'
p7975
NNNI7
I1
I0
tp7976
bS'SERVE10'
p7977
tp7978
Rp7979
ag2
(g3
(S'S7'
p7980
I0
I1
tp7981
Rp7982
(I3
S'|'
p7983
NNNI7
I1
I0
tp7984
bS'SERVE10'
p7985
tp7986
Rp7987
ag2
(g3
(S'S7'
p7988
I0
I1
tp7989
Rp7990
(I3
S'|'
p7991
NNNI7
I1
I0
tp7992
bS'SERVE10'
p7993
tp7994
Rp7995
ag2
(g3
(S'S7'
p7996
I0
I1
tp7997
Rp7998
(I3
S'|'
p7999
NNNI7
I1
I0
tp8000
bS'SERVE10'
p8001
tp8002
Rp8003
ag2
(g3
(S'S7'
p8004
I0
I1
tp8005
Rp8006
(I3
S'|'
p8007
NNNI7
I1
I0
tp8008
bS'SERVE10'
p8009
tp8010
Rp8011
ag2
(g3
(S'S7'
p8012
I0
I1
tp8013
Rp8014
(I3
S'|'
p8015
NNNI7
I1
I0
tp8016
bS'SERVE10'
p8017
tp8018
Rp8019
ag2
(g3
(S'S7'
p8020
I0
I1
tp8021
Rp8022
(I3
S'|'
p8023
NNNI7
I1
I0
tp8024
bS'SERVE10'
p8025
tp8026
Rp8027
ag2
(g3
(S'S7'
p8028
I0
I1
tp8029
Rp8030
(I3
S'|'
p8031
NNNI7
I1
I0
tp8032
bS'SERVE10'
p8033
tp8034
Rp8035
ag2
(g3
(S'S7'
p8036
I0
I1
tp8037
Rp8038
(I3
S'|'
p8039
NNNI7
I1
I0
tp8040
bS'SERVE10'
p8041
tp8042
Rp8043
ag2
(g3
(S'S6'
p8044
I0
I1
tp8045
Rp8046
(I3
S'|'
p8047
NNNI6
I1
I0
tp8048
bS'SERVE2'
p8049
tp8050
Rp8051
ag2
(g3
(S'S7'
p8052
I0
I1
tp8053
Rp8054
(I3
S'|'
p8055
NNNI7
I1
I0
tp8056
bS'SERVE10'
p8057
tp8058
Rp8059
ag2
(g3
(S'S7'
p8060
I0
I1
tp8061
Rp8062
(I3
S'|'
p8063
NNNI7
I1
I0
tp8064
bS'SERVE10'
p8065
tp8066
Rp8067
ag2
(g3
(S'S7'
p8068
I0
I1
tp8069
Rp8070
(I3
S'|'
p8071
NNNI7
I1
I0
tp8072
bS'SERVE10'
p8073
tp8074
Rp8075
ag2
(g3
(S'S7'
p8076
I0
I1
tp8077
Rp8078
(I3
S'|'
p8079
NNNI7
I1
I0
tp8080
bS'SERVE10'
p8081
tp8082
Rp8083
ag2
(g3
(S'S7'
p8084
I0
I1
tp8085
Rp8086
(I3
S'|'
p8087
NNNI7
I1
I0
tp8088
bS'SERVE10'
p8089
tp8090
Rp8091
ag2
(g3
(S'S7'
p8092
I0
I1
tp8093
Rp8094
(I3
S'|'
p8095
NNNI7
I1
I0
tp8096
bS'SERVE10'
p8097
tp8098
Rp8099
ag2
(g3
(S'S7'
p8100
I0
I1
tp8101
Rp8102
(I3
S'|'
p8103
NNNI7
I1
I0
tp8104
bS'SERVE10'
p8105
tp8106
Rp8107
ag2
(g3
(S'S7'
p8108
I0
I1
tp8109
Rp8110
(I3
S'|'
p8111
NNNI7
I1
I0
tp8112
bS'SERVE10'
p8113
tp8114
Rp8115
ag2
(g3
(S'S7'
p8116
I0
I1
tp8117
Rp8118
(I3
S'|'
p8119
NNNI7
I1
I0
tp8120
bS'SERVE10'
p8121
tp8122
Rp8123
ag2
(g3
(S'S7'
p8124
I0
I1
tp8125
Rp8126
(I3
S'|'
p8127
NNNI7
I1
I0
tp8128
bS'SERVE10'
p8129
tp8130
Rp8131
ag2
(g3
(S'S7'
p8132
I0
I1
tp8133
Rp8134
(I3
S'|'
p8135
NNNI7
I1
I0
tp8136
bS'SERVE10'
p8137
tp8138
Rp8139
ag2
(g3
(S'S7'
p8140
I0
I1
tp8141
Rp8142
(I3
S'|'
p8143
NNNI7
I1
I0
tp8144
bS'SERVE10'
p8145
tp8146
Rp8147
ag2
(g3
(S'S7'
p8148
I0
I1
tp8149
Rp8150
(I3
S'|'
p8151
NNNI7
I1
I0
tp8152
bS'SERVE10'
p8153
tp8154
Rp8155
ag2
(g3
(S'S7'
p8156
I0
I1
tp8157
Rp8158
(I3
S'|'
p8159
NNNI7
I1
I0
tp8160
bS'SERVE10'
p8161
tp8162
Rp8163
ag2
(g3
(S'S7'
p8164
I0
I1
tp8165
Rp8166
(I3
S'|'
p8167
NNNI7
I1
I0
tp8168
bS'SERVE10'
p8169
tp8170
Rp8171
ag2
(g3
(S'S7'
p8172
I0
I1
tp8173
Rp8174
(I3
S'|'
p8175
NNNI7
I1
I0
tp8176
bS'SERVE10'
p8177
tp8178
Rp8179
ag2
(g3
(S'S7'
p8180
I0
I1
tp8181
Rp8182
(I3
S'|'
p8183
NNNI7
I1
I0
tp8184
bS'SERVE10'
p8185
tp8186
Rp8187
ag2
(g3
(S'S7'
p8188
I0
I1
tp8189
Rp8190
(I3
S'|'
p8191
NNNI7
I1
I0
tp8192
bS'SERVE10'
p8193
tp8194
Rp8195
ag2
(g3
(S'S7'
p8196
I0
I1
tp8197
Rp8198
(I3
S'|'
p8199
NNNI7
I1
I0
tp8200
bS'SERVE10'
p8201
tp8202
Rp8203
ag2
(g3
(S'S7'
p8204
I0
I1
tp8205
Rp8206
(I3
S'|'
p8207
NNNI7
I1
I0
tp8208
bS'SERVE10'
p8209
tp8210
Rp8211
ag2
(g3
(S'S7'
p8212
I0
I1
tp8213
Rp8214
(I3
S'|'
p8215
NNNI7
I1
I0
tp8216
bS'SERVE10'
p8217
tp8218
Rp8219
ag2
(g3
(S'S7'
p8220
I0
I1
tp8221
Rp8222
(I3
S'|'
p8223
NNNI7
I1
I0
tp8224
bS'SERVE10'
p8225
tp8226
Rp8227
ag2
(g3
(S'S7'
p8228
I0
I1
tp8229
Rp8230
(I3
S'|'
p8231
NNNI7
I1
I0
tp8232
bS'SERVE10'
p8233
tp8234
Rp8235
ag2
(g3
(S'S7'
p8236
I0
I1
tp8237
Rp8238
(I3
S'|'
p8239
NNNI7
I1
I0
tp8240
bS'SERVE10'
p8241
tp8242
Rp8243
ag2
(g3
(S'S7'
p8244
I0
I1
tp8245
Rp8246
(I3
S'|'
p8247
NNNI7
I1
I0
tp8248
bS'SERVE10'
p8249
tp8250
Rp8251
ag2
(g3
(S'S7'
p8252
I0
I1
tp8253
Rp8254
(I3
S'|'
p8255
NNNI7
I1
I0
tp8256
bS'SERVE10'
p8257
tp8258
Rp8259
ag2
(g3
(S'S7'
p8260
I0
I1
tp8261
Rp8262
(I3
S'|'
p8263
NNNI7
I1
I0
tp8264
bS'SERVE10'
p8265
tp8266
Rp8267
ag2
(g3
(S'S7'
p8268
I0
I1
tp8269
Rp8270
(I3
S'|'
p8271
NNNI7
I1
I0
tp8272
bS'SERVE10'
p8273
tp8274
Rp8275
ag2
(g3
(S'S7'
p8276
I0
I1
tp8277
Rp8278
(I3
S'|'
p8279
NNNI7
I1
I0
tp8280
bS'SERVE10'
p8281
tp8282
Rp8283
ag2
(g3
(S'S7'
p8284
I0
I1
tp8285
Rp8286
(I3
S'|'
p8287
NNNI7
I1
I0
tp8288
bS'SERVE10'
p8289
tp8290
Rp8291
ag2
(g3
(S'S7'
p8292
I0
I1
tp8293
Rp8294
(I3
S'|'
p8295
NNNI7
I1
I0
tp8296
bS'SERVE10'
p8297
tp8298
Rp8299
ag2
(g3
(S'S7'
p8300
I0
I1
tp8301
Rp8302
(I3
S'|'
p8303
NNNI7
I1
I0
tp8304
bS'SERVE10'
p8305
tp8306
Rp8307
ag2
(g3
(S'S7'
p8308
I0
I1
tp8309
Rp8310
(I3
S'|'
p8311
NNNI7
I1
I0
tp8312
bS'SERVE10'
p8313
tp8314
Rp8315
ag2
(g3
(S'S7'
p8316
I0
I1
tp8317
Rp8318
(I3
S'|'
p8319
NNNI7
I1
I0
tp8320
bS'SERVE10'
p8321
tp8322
Rp8323
ag2
(g3
(S'S7'
p8324
I0
I1
tp8325
Rp8326
(I3
S'|'
p8327
NNNI7
I1
I0
tp8328
bS'SERVE10'
p8329
tp8330
Rp8331
ag2
(g3
(S'S7'
p8332
I0
I1
tp8333
Rp8334
(I3
S'|'
p8335
NNNI7
I1
I0
tp8336
bS'SERVE10'
p8337
tp8338
Rp8339
ag2
(g3
(S'S7'
p8340
I0
I1
tp8341
Rp8342
(I3
S'|'
p8343
NNNI7
I1
I0
tp8344
bS'SERVE10'
p8345
tp8346
Rp8347
ag2
(g3
(S'S7'
p8348
I0
I1
tp8349
Rp8350
(I3
S'|'
p8351
NNNI7
I1
I0
tp8352
bS'SERVE10'
p8353
tp8354
Rp8355
ag2
(g3
(S'S7'
p8356
I0
I1
tp8357
Rp8358
(I3
S'|'
p8359
NNNI7
I1
I0
tp8360
bS'SERVE10'
p8361
tp8362
Rp8363
ag2
(g3
(S'S7'
p8364
I0
I1
tp8365
Rp8366
(I3
S'|'
p8367
NNNI7
I1
I0
tp8368
bS'SERVE10'
p8369
tp8370
Rp8371
ag2
(g3
(S'S7'
p8372
I0
I1
tp8373
Rp8374
(I3
S'|'
p8375
NNNI7
I1
I0
tp8376
bS'SERVE10'
p8377
tp8378
Rp8379
ag2
(g3
(S'S7'
p8380
I0
I1
tp8381
Rp8382
(I3
S'|'
p8383
NNNI7
I1
I0
tp8384
bS'SERVE10'
p8385
tp8386
Rp8387
ag2
(g3
(S'S7'
p8388
I0
I1
tp8389
Rp8390
(I3
S'|'
p8391
NNNI7
I1
I0
tp8392
bS'SERVE10'
p8393
tp8394
Rp8395
ag2
(g3
(S'S7'
p8396
I0
I1
tp8397
Rp8398
(I3
S'|'
p8399
NNNI7
I1
I0
tp8400
bS'SERVE10'
p8401
tp8402
Rp8403
ag2
(g3
(S'S7'
p8404
I0
I1
tp8405
Rp8406
(I3
S'|'
p8407
NNNI7
I1
I0
tp8408
bS'SERVE10'
p8409
tp8410
Rp8411
ag2
(g3
(S'S7'
p8412
I0
I1
tp8413
Rp8414
(I3
S'|'
p8415
NNNI7
I1
I0
tp8416
bS'SERVE10'
p8417
tp8418
Rp8419
ag2
(g3
(S'S7'
p8420
I0
I1
tp8421
Rp8422
(I3
S'|'
p8423
NNNI7
I1
I0
tp8424
bS'SERVE10'
p8425
tp8426
Rp8427
ag2
(g3
(S'S7'
p8428
I0
I1
tp8429
Rp8430
(I3
S'|'
p8431
NNNI7
I1
I0
tp8432
bS'SERVE10'
p8433
tp8434
Rp8435
ag2
(g3
(S'S7'
p8436
I0
I1
tp8437
Rp8438
(I3
S'|'
p8439
NNNI7
I1
I0
tp8440
bS'SERVE10'
p8441
tp8442
Rp8443
ag2
(g3
(S'S7'
p8444
I0
I1
tp8445
Rp8446
(I3
S'|'
p8447
NNNI7
I1
I0
tp8448
bS'SERVE10'
p8449
tp8450
Rp8451
ag2
(g3
(S'S7'
p8452
I0
I1
tp8453
Rp8454
(I3
S'|'
p8455
NNNI7
I1
I0
tp8456
bS'SERVE12'
p8457
tp8458
Rp8459
ag2
(g3
(S'S7'
p8460
I0
I1
tp8461
Rp8462
(I3
S'|'
p8463
NNNI7
I1
I0
tp8464
bS'SERVE12'
p8465
tp8466
Rp8467
ag2
(g3
(S'S7'
p8468
I0
I1
tp8469
Rp8470
(I3
S'|'
p8471
NNNI7
I1
I0
tp8472
bS'SERVE12'
p8473
tp8474
Rp8475
ag2
(g3
(S'S7'
p8476
I0
I1
tp8477
Rp8478
(I3
S'|'
p8479
NNNI7
I1
I0
tp8480
bS'SERVE10'
p8481
tp8482
Rp8483
ag2
(g3
(S'S7'
p8484
I0
I1
tp8485
Rp8486
(I3
S'|'
p8487
NNNI7
I1
I0
tp8488
bS'SERVE12'
p8489
tp8490
Rp8491
ag2
(g3
(S'S7'
p8492
I0
I1
tp8493
Rp8494
(I3
S'|'
p8495
NNNI7
I1
I0
tp8496
bS'SERVE10'
p8497
tp8498
Rp8499
ag2
(g3
(S'S7'
p8500
I0
I1
tp8501
Rp8502
(I3
S'|'
p8503
NNNI7
I1
I0
tp8504
bS'SERVE12'
p8505
tp8506
Rp8507
ag2
(g3
(S'S7'
p8508
I0
I1
tp8509
Rp8510
(I3
S'|'
p8511
NNNI7
I1
I0
tp8512
bS'SERVE12'
p8513
tp8514
Rp8515
ag2
(g3
(S'S7'
p8516
I0
I1
tp8517
Rp8518
(I3
S'|'
p8519
NNNI7
I1
I0
tp8520
bS'SERVE10'
p8521
tp8522
Rp8523
ag2
(g3
(S'S6'
p8524
I0
I1
tp8525
Rp8526
(I3
S'|'
p8527
NNNI6
I1
I0
tp8528
bS'SERVE2'
p8529
tp8530
Rp8531
ag2
(g3
(S'S7'
p8532
I0
I1
tp8533
Rp8534
(I3
S'|'
p8535
NNNI7
I1
I0
tp8536
bS'SERVE12'
p8537
tp8538
Rp8539
ag2
(g3
(S'S7'
p8540
I0
I1
tp8541
Rp8542
(I3
S'|'
p8543
NNNI7
I1
I0
tp8544
bS'SERVE10'
p8545
tp8546
Rp8547
ag2
(g3
(S'S7'
p8548
I0
I1
tp8549
Rp8550
(I3
S'|'
p8551
NNNI7
I1
I0
tp8552
bS'SERVE12'
p8553
tp8554
Rp8555
ag2
(g3
(S'S7'
p8556
I0
I1
tp8557
Rp8558
(I3
S'|'
p8559
NNNI7
I1
I0
tp8560
bS'SERVE10'
p8561
tp8562
Rp8563
ag2
(g3
(S'S7'
p8564
I0
I1
tp8565
Rp8566
(I3
S'|'
p8567
NNNI7
I1
I0
tp8568
bS'SERVE12'
p8569
tp8570
Rp8571
ag2
(g3
(S'S7'
p8572
I0
I1
tp8573
Rp8574
(I3
S'|'
p8575
NNNI7
I1
I0
tp8576
bS'SERVE10'
p8577
tp8578
Rp8579
ag2
(g3
(S'S7'
p8580
I0
I1
tp8581
Rp8582
(I3
S'|'
p8583
NNNI7
I1
I0
tp8584
bS'SERVE12'
p8585
tp8586
Rp8587
ag2
(g3
(S'S7'
p8588
I0
I1
tp8589
Rp8590
(I3
S'|'
p8591
NNNI7
I1
I0
tp8592
bS'SERVE10'
p8593
tp8594
Rp8595
ag2
(g3
(S'S7'
p8596
I0
I1
tp8597
Rp8598
(I3
S'|'
p8599
NNNI7
I1
I0
tp8600
bS'SERVE10'
p8601
tp8602
Rp8603
ag2
(g3
(S'S6'
p8604
I0
I1
tp8605
Rp8606
(I3
S'|'
p8607
NNNI6
I1
I0
tp8608
bS'SERVE2'
p8609
tp8610
Rp8611
ag2
(g3
(S'S7'
p8612
I0
I1
tp8613
Rp8614
(I3
S'|'
p8615
NNNI7
I1
I0
tp8616
bS'SERVE10'
p8617
tp8618
Rp8619
ag2
(g3
(S'S7'
p8620
I0
I1
tp8621
Rp8622
(I3
S'|'
p8623
NNNI7
I1
I0
tp8624
bS'SERVE12'
p8625
tp8626
Rp8627
ag2
(g3
(S'S6'
p8628
I0
I1
tp8629
Rp8630
(I3
S'|'
p8631
NNNI6
I1
I0
tp8632
bS'SERVE2'
p8633
tp8634
Rp8635
ag2
(g3
(S'S7'
p8636
I0
I1
tp8637
Rp8638
(I3
S'|'
p8639
NNNI7
I1
I0
tp8640
bS'SERVE10'
p8641
tp8642
Rp8643
ag2
(g3
(S'S7'
p8644
I0
I1
tp8645
Rp8646
(I3
S'|'
p8647
NNNI7
I1
I0
tp8648
bS'SERVE12'
p8649
tp8650
Rp8651
ag2
(g3
(S'S7'
p8652
I0
I1
tp8653
Rp8654
(I3
S'|'
p8655
NNNI7
I1
I0
tp8656
bS'SERVE12'
p8657
tp8658
Rp8659
ag2
(g3
(S'S7'
p8660
I0
I1
tp8661
Rp8662
(I3
S'|'
p8663
NNNI7
I1
I0
tp8664
bS'SERVE12'
p8665
tp8666
Rp8667
ag2
(g3
(S'S7'
p8668
I0
I1
tp8669
Rp8670
(I3
S'|'
p8671
NNNI7
I1
I0
tp8672
bS'SERVE12'
p8673
tp8674
Rp8675
ag2
(g3
(S'S7'
p8676
I0
I1
tp8677
Rp8678
(I3
S'|'
p8679
NNNI7
I1
I0
tp8680
bS'SERVE12'
p8681
tp8682
Rp8683
ag2
(g3
(S'S7'
p8684
I0
I1
tp8685
Rp8686
(I3
S'|'
p8687
NNNI7
I1
I0
tp8688
bS'SERVE10'
p8689
tp8690
Rp8691
ag2
(g3
(S'S7'
p8692
I0
I1
tp8693
Rp8694
(I3
S'|'
p8695
NNNI7
I1
I0
tp8696
bS'SERVE12'
p8697
tp8698
Rp8699
ag2
(g3
(S'S7'
p8700
I0
I1
tp8701
Rp8702
(I3
S'|'
p8703
NNNI7
I1
I0
tp8704
bS'SERVE10'
p8705
tp8706
Rp8707
ag2
(g3
(S'S6'
p8708
I0
I1
tp8709
Rp8710
(I3
S'|'
p8711
NNNI6
I1
I0
tp8712
bS'SERVE2'
p8713
tp8714
Rp8715
ag2
(g3
(S'S7'
p8716
I0
I1
tp8717
Rp8718
(I3
S'|'
p8719
NNNI7
I1
I0
tp8720
bS'SERVE10'
p8721
tp8722
Rp8723
ag2
(g3
(S'S7'
p8724
I0
I1
tp8725
Rp8726
(I3
S'|'
p8727
NNNI7
I1
I0
tp8728
bS'SERVE12'
p8729
tp8730
Rp8731
ag2
(g3
(S'S7'
p8732
I0
I1
tp8733
Rp8734
(I3
S'|'
p8735
NNNI7
I1
I0
tp8736
bS'SERVE12'
p8737
tp8738
Rp8739
ag2
(g3
(S'S7'
p8740
I0
I1
tp8741
Rp8742
(I3
S'|'
p8743
NNNI7
I1
I0
tp8744
bS'SERVE12'
p8745
tp8746
Rp8747
ag2
(g3
(S'S7'
p8748
I0
I1
tp8749
Rp8750
(I3
S'|'
p8751
NNNI7
I1
I0
tp8752
bS'SERVE12'
p8753
tp8754
Rp8755
ag2
(g3
(S'S6'
p8756
I0
I1
tp8757
Rp8758
(I3
S'|'
p8759
NNNI6
I1
I0
tp8760
bS'SERVE2'
p8761
tp8762
Rp8763
ag2
(g3
(S'S7'
p8764
I0
I1
tp8765
Rp8766
(I3
S'|'
p8767
NNNI7
I1
I0
tp8768
bS'SERVE10'
p8769
tp8770
Rp8771
ag2
(g3
(S'S7'
p8772
I0
I1
tp8773
Rp8774
(I3
S'|'
p8775
NNNI7
I1
I0
tp8776
bS'SERVE12'
p8777
tp8778
Rp8779
ag2
(g3
(S'S7'
p8780
I0
I1
tp8781
Rp8782
(I3
S'|'
p8783
NNNI7
I1
I0
tp8784
bS'SERVE10'
p8785
tp8786
Rp8787
ag2
(g3
(S'S7'
p8788
I0
I1
tp8789
Rp8790
(I3
S'|'
p8791
NNNI7
I1
I0
tp8792
bS'SERVE10'
p8793
tp8794
Rp8795
ag2
(g3
(S'S7'
p8796
I0
I1
tp8797
Rp8798
(I3
S'|'
p8799
NNNI7
I1
I0
tp8800
bS'SERVE10'
p8801
tp8802
Rp8803
ag2
(g3
(S'S7'
p8804
I0
I1
tp8805
Rp8806
(I3
S'|'
p8807
NNNI7
I1
I0
tp8808
bS'SERVE10'
p8809
tp8810
Rp8811
ag2
(g3
(S'S7'
p8812
I0
I1
tp8813
Rp8814
(I3
S'|'
p8815
NNNI7
I1
I0
tp8816
bS'SERVE12'
p8817
tp8818
Rp8819
ag2
(g3
(S'S7'
p8820
I0
I1
tp8821
Rp8822
(I3
S'|'
p8823
NNNI7
I1
I0
tp8824
bS'SERVE10'
p8825
tp8826
Rp8827
ag2
(g3
(S'S7'
p8828
I0
I1
tp8829
Rp8830
(I3
S'|'
p8831
NNNI7
I1
I0
tp8832
bS'SERVE12'
p8833
tp8834
Rp8835
ag2
(g3
(S'S7'
p8836
I0
I1
tp8837
Rp8838
(I3
S'|'
p8839
NNNI7
I1
I0
tp8840
bS'SERVE12'
p8841
tp8842
Rp8843
ag2
(g3
(S'S7'
p8844
I0
I1
tp8845
Rp8846
(I3
S'|'
p8847
NNNI7
I1
I0
tp8848
bS'SERVE12'
p8849
tp8850
Rp8851
ag2
(g3
(S'S7'
p8852
I0
I1
tp8853
Rp8854
(I3
S'|'
p8855
NNNI7
I1
I0
tp8856
bS'SERVE12'
p8857
tp8858
Rp8859
ag2
(g3
(S'S7'
p8860
I0
I1
tp8861
Rp8862
(I3
S'|'
p8863
NNNI7
I1
I0
tp8864
bS'SERVE10'
p8865
tp8866
Rp8867
ag2
(g3
(S'S7'
p8868
I0
I1
tp8869
Rp8870
(I3
S'|'
p8871
NNNI7
I1
I0
tp8872
bS'SERVE10'
p8873
tp8874
Rp8875
ag2
(g3
(S'S7'
p8876
I0
I1
tp8877
Rp8878
(I3
S'|'
p8879
NNNI7
I1
I0
tp8880
bS'SERVE12'
p8881
tp8882
Rp8883
ag2
(g3
(S'S7'
p8884
I0
I1
tp8885
Rp8886
(I3
S'|'
p8887
NNNI7
I1
I0
tp8888
bS'SERVE12'
p8889
tp8890
Rp8891
ag2
(g3
(S'S7'
p8892
I0
I1
tp8893
Rp8894
(I3
S'|'
p8895
NNNI7
I1
I0
tp8896
bS'SERVE10'
p8897
tp8898
Rp8899
ag2
(g3
(S'S7'
p8900
I0
I1
tp8901
Rp8902
(I3
S'|'
p8903
NNNI7
I1
I0
tp8904
bS'SERVE10'
p8905
tp8906
Rp8907
ag2
(g3
(S'S7'
p8908
I0
I1
tp8909
Rp8910
(I3
S'|'
p8911
NNNI7
I1
I0
tp8912
bS'SERVE10'
p8913
tp8914
Rp8915
ag2
(g3
(S'S6'
p8916
I0
I1
tp8917
Rp8918
(I3
S'|'
p8919
NNNI6
I1
I0
tp8920
bS'SERVE2'
p8921
tp8922
Rp8923
ag2
(g3
(S'S6'
p8924
I0
I1
tp8925
Rp8926
(I3
S'|'
p8927
NNNI6
I1
I0
tp8928
bS'SERVE2'
p8929
tp8930
Rp8931
ag2
(g3
(S'S7'
p8932
I0
I1
tp8933
Rp8934
(I3
S'|'
p8935
NNNI7
I1
I0
tp8936
bS'SERVE10'
p8937
tp8938
Rp8939
ag2
(g3
(S'S7'
p8940
I0
I1
tp8941
Rp8942
(I3
S'|'
p8943
NNNI7
I1
I0
tp8944
bS'SERVE12'
p8945
tp8946
Rp8947
ag2
(g3
(S'S7'
p8948
I0
I1
tp8949
Rp8950
(I3
S'|'
p8951
NNNI7
I1
I0
tp8952
bS'SERVE10'
p8953
tp8954
Rp8955
ag2
(g3
(S'S7'
p8956
I0
I1
tp8957
Rp8958
(I3
S'|'
p8959
NNNI7
I1
I0
tp8960
bS'SERVE10'
p8961
tp8962
Rp8963
ag2
(g3
(S'S6'
p8964
I0
I1
tp8965
Rp8966
(I3
S'|'
p8967
NNNI6
I1
I0
tp8968
bS'SERVE2'
p8969
tp8970
Rp8971
ag2
(g3
(S'S7'
p8972
I0
I1
tp8973
Rp8974
(I3
S'|'
p8975
NNNI7
I1
I0
tp8976
bS'SERVE10'
p8977
tp8978
Rp8979
ag2
(g3
(S'S7'
p8980
I0
I1
tp8981
Rp8982
(I3
S'|'
p8983
NNNI7
I1
I0
tp8984
bS'SERVE12'
p8985
tp8986
Rp8987
ag2
(g3
(S'S7'
p8988
I0
I1
tp8989
Rp8990
(I3
S'|'
p8991
NNNI7
I1
I0
tp8992
bS'SERVE12'
p8993
tp8994
Rp8995
ag2
(g3
(S'S7'
p8996
I0
I1
tp8997
Rp8998
(I3
S'|'
p8999
NNNI7
I1
I0
tp9000
bS'SERVE10'
p9001
tp9002
Rp9003
ag2
(g3
(S'S7'
p9004
I0
I1
tp9005
Rp9006
(I3
S'|'
p9007
NNNI7
I1
I0
tp9008
bS'SERVE12'
p9009
tp9010
Rp9011
ag2
(g3
(S'S6'
p9012
I0
I1
tp9013
Rp9014
(I3
S'|'
p9015
NNNI6
I1
I0
tp9016
bS'SERVE2'
p9017
tp9018
Rp9019
ag2
(g3
(S'S7'
p9020
I0
I1
tp9021
Rp9022
(I3
S'|'
p9023
NNNI7
I1
I0
tp9024
bS'SERVE10'
p9025
tp9026
Rp9027
ag2
(g3
(S'S6'
p9028
I0
I1
tp9029
Rp9030
(I3
S'|'
p9031
NNNI6
I1
I0
tp9032
bS'SERVE2'
p9033
tp9034
Rp9035
ag2
(g3
(S'S7'
p9036
I0
I1
tp9037
Rp9038
(I3
S'|'
p9039
NNNI7
I1
I0
tp9040
bS'SERVE12'
p9041
tp9042
Rp9043
ag2
(g3
(S'S7'
p9044
I0
I1
tp9045
Rp9046
(I3
S'|'
p9047
NNNI7
I1
I0
tp9048
bS'SERVE10'
p9049
tp9050
Rp9051
ag2
(g3
(S'S7'
p9052
I0
I1
tp9053
Rp9054
(I3
S'|'
p9055
NNNI7
I1
I0
tp9056
bS'SERVE12'
p9057
tp9058
Rp9059
ag2
(g3
(S'S7'
p9060
I0
I1
tp9061
Rp9062
(I3
S'|'
p9063
NNNI7
I1
I0
tp9064
bS'SERVE12'
p9065
tp9066
Rp9067
ag2
(g3
(S'S7'
p9068
I0
I1
tp9069
Rp9070
(I3
S'|'
p9071
NNNI7
I1
I0
tp9072
bS'SERVE12'
p9073
tp9074
Rp9075
ag2
(g3
(S'S7'
p9076
I0
I1
tp9077
Rp9078
(I3
S'|'
p9079
NNNI7
I1
I0
tp9080
bS'SERVE12'
p9081
tp9082
Rp9083
ag2
(g3
(S'S7'
p9084
I0
I1
tp9085
Rp9086
(I3
S'|'
p9087
NNNI7
I1
I0
tp9088
bS'SERVE10'
p9089
tp9090
Rp9091
ag2
(g3
(S'S7'
p9092
I0
I1
tp9093
Rp9094
(I3
S'|'
p9095
NNNI7
I1
I0
tp9096
bS'SERVE10'
p9097
tp9098
Rp9099
ag2
(g3
(S'S7'
p9100
I0
I1
tp9101
Rp9102
(I3
S'|'
p9103
NNNI7
I1
I0
tp9104
bS'SERVE12'
p9105
tp9106
Rp9107
ag2
(g3
(S'S7'
p9108
I0
I1
tp9109
Rp9110
(I3
S'|'
p9111
NNNI7
I1
I0
tp9112
bS'SERVE12'
p9113
tp9114
Rp9115
ag2
(g3
(S'S7'
p9116
I0
I1
tp9117
Rp9118
(I3
S'|'
p9119
NNNI7
I1
I0
tp9120
bS'SERVE10'
p9121
tp9122
Rp9123
ag2
(g3
(S'S7'
p9124
I0
I1
tp9125
Rp9126
(I3
S'|'
p9127
NNNI7
I1
I0
tp9128
bS'SERVE12'
p9129
tp9130
Rp9131
ag2
(g3
(S'S7'
p9132
I0
I1
tp9133
Rp9134
(I3
S'|'
p9135
NNNI7
I1
I0
tp9136
bS'SERVE12'
p9137
tp9138
Rp9139
ag2
(g3
(S'S7'
p9140
I0
I1
tp9141
Rp9142
(I3
S'|'
p9143
NNNI7
I1
I0
tp9144
bS'SERVE12'
p9145
tp9146
Rp9147
ag2
(g3
(S'S7'
p9148
I0
I1
tp9149
Rp9150
(I3
S'|'
p9151
NNNI7
I1
I0
tp9152
bS'SERVE12'
p9153
tp9154
Rp9155
ag2
(g3
(S'S7'
p9156
I0
I1
tp9157
Rp9158
(I3
S'|'
p9159
NNNI7
I1
I0
tp9160
bS'SERVE12'
p9161
tp9162
Rp9163
ag2
(g3
(S'S7'
p9164
I0
I1
tp9165
Rp9166
(I3
S'|'
p9167
NNNI7
I1
I0
tp9168
bS'SERVE10'
p9169
tp9170
Rp9171
ag2
(g3
(S'S6'
p9172
I0
I1
tp9173
Rp9174
(I3
S'|'
p9175
NNNI6
I1
I0
tp9176
bS'SERVE2'
p9177
tp9178
Rp9179
ag2
(g3
(S'S7'
p9180
I0
I1
tp9181
Rp9182
(I3
S'|'
p9183
NNNI7
I1
I0
tp9184
bS'SERVE10'
p9185
tp9186
Rp9187
ag2
(g3
(S'S7'
p9188
I0
I1
tp9189
Rp9190
(I3
S'|'
p9191
NNNI7
I1
I0
tp9192
bS'SERVE10'
p9193
tp9194
Rp9195
ag2
(g3
(S'S7'
p9196
I0
I1
tp9197
Rp9198
(I3
S'|'
p9199
NNNI7
I1
I0
tp9200
bS'SERVE12'
p9201
tp9202
Rp9203
ag2
(g3
(S'S7'
p9204
I0
I1
tp9205
Rp9206
(I3
S'|'
p9207
NNNI7
I1
I0
tp9208
bS'SERVE12'
p9209
tp9210
Rp9211
ag2
(g3
(S'S7'
p9212
I0
I1
tp9213
Rp9214
(I3
S'|'
p9215
NNNI7
I1
I0
tp9216
bS'SERVE10'
p9217
tp9218
Rp9219
ag2
(g3
(S'S7'
p9220
I0
I1
tp9221
Rp9222
(I3
S'|'
p9223
NNNI7
I1
I0
tp9224
bS'SERVE10'
p9225
tp9226
Rp9227
ag2
(g3
(S'S7'
p9228
I0
I1
tp9229
Rp9230
(I3
S'|'
p9231
NNNI7
I1
I0
tp9232
bS'SERVE12'
p9233
tp9234
Rp9235
ag2
(g3
(S'S6'
p9236
I0
I1
tp9237
Rp9238
(I3
S'|'
p9239
NNNI6
I1
I0
tp9240
bS'SERVE2'
p9241
tp9242
Rp9243
ag2
(g3
(S'S7'
p9244
I0
I1
tp9245
Rp9246
(I3
S'|'
p9247
NNNI7
I1
I0
tp9248
bS'SERVE10'
p9249
tp9250
Rp9251
ag2
(g3
(S'S7'
p9252
I0
I1
tp9253
Rp9254
(I3
S'|'
p9255
NNNI7
I1
I0
tp9256
bS'SERVE10'
p9257
tp9258
Rp9259
ag2
(g3
(S'S7'
p9260
I0
I1
tp9261
Rp9262
(I3
S'|'
p9263
NNNI7
I1
I0
tp9264
bS'SERVE10'
p9265
tp9266
Rp9267
ag2
(g3
(S'S7'
p9268
I0
I1
tp9269
Rp9270
(I3
S'|'
p9271
NNNI7
I1
I0
tp9272
bS'SERVE12'
p9273
tp9274
Rp9275
ag2
(g3
(S'S7'
p9276
I0
I1
tp9277
Rp9278
(I3
S'|'
p9279
NNNI7
I1
I0
tp9280
bS'SERVE12'
p9281
tp9282
Rp9283
ag2
(g3
(S'S7'
p9284
I0
I1
tp9285
Rp9286
(I3
S'|'
p9287
NNNI7
I1
I0
tp9288
bS'SERVE12'
p9289
tp9290
Rp9291
ag2
(g3
(S'S7'
p9292
I0
I1
tp9293
Rp9294
(I3
S'|'
p9295
NNNI7
I1
I0
tp9296
bS'SERVE12'
p9297
tp9298
Rp9299
ag2
(g3
(S'S7'
p9300
I0
I1
tp9301
Rp9302
(I3
S'|'
p9303
NNNI7
I1
I0
tp9304
bS'SERVE12'
p9305
tp9306
Rp9307
ag2
(g3
(S'S7'
p9308
I0
I1
tp9309
Rp9310
(I3
S'|'
p9311
NNNI7
I1
I0
tp9312
bS'SERVE10'
p9313
tp9314
Rp9315
ag2
(g3
(S'S7'
p9316
I0
I1
tp9317
Rp9318
(I3
S'|'
p9319
NNNI7
I1
I0
tp9320
bS'SERVE12'
p9321
tp9322
Rp9323
ag2
(g3
(S'S7'
p9324
I0
I1
tp9325
Rp9326
(I3
S'|'
p9327
NNNI7
I1
I0
tp9328
bS'SERVE10'
p9329
tp9330
Rp9331
ag2
(g3
(S'S7'
p9332
I0
I1
tp9333
Rp9334
(I3
S'|'
p9335
NNNI7
I1
I0
tp9336
bS'SERVE10'
p9337
tp9338
Rp9339
ag2
(g3
(S'S7'
p9340
I0
I1
tp9341
Rp9342
(I3
S'|'
p9343
NNNI7
I1
I0
tp9344
bS'SERVE12'
p9345
tp9346
Rp9347
ag2
(g3
(S'S7'
p9348
I0
I1
tp9349
Rp9350
(I3
S'|'
p9351
NNNI7
I1
I0
tp9352
bS'SERVE12'
p9353
tp9354
Rp9355
ag2
(g3
(S'S7'
p9356
I0
I1
tp9357
Rp9358
(I3
S'|'
p9359
NNNI7
I1
I0
tp9360
bS'SERVE10'
p9361
tp9362
Rp9363
ag2
(g3
(S'S7'
p9364
I0
I1
tp9365
Rp9366
(I3
S'|'
p9367
NNNI7
I1
I0
tp9368
bS'SERVE12'
p9369
tp9370
Rp9371
ag2
(g3
(S'S7'
p9372
I0
I1
tp9373
Rp9374
(I3
S'|'
p9375
NNNI7
I1
I0
tp9376
bS'SERVE12'
p9377
tp9378
Rp9379
ag2
(g3
(S'S7'
p9380
I0
I1
tp9381
Rp9382
(I3
S'|'
p9383
NNNI7
I1
I0
tp9384
bS'SERVE12'
p9385
tp9386
Rp9387
ag2
(g3
(S'S7'
p9388
I0
I1
tp9389
Rp9390
(I3
S'|'
p9391
NNNI7
I1
I0
tp9392
bS'SERVE10'
p9393
tp9394
Rp9395
ag2
(g3
(S'S7'
p9396
I0
I1
tp9397
Rp9398
(I3
S'|'
p9399
NNNI7
I1
I0
tp9400
bS'SERVE10'
p9401
tp9402
Rp9403
ag2
(g3
(S'S7'
p9404
I0
I1
tp9405
Rp9406
(I3
S'|'
p9407
NNNI7
I1
I0
tp9408
bS'SERVE10'
p9409
tp9410
Rp9411
ag2
(g3
(S'S7'
p9412
I0
I1
tp9413
Rp9414
(I3
S'|'
p9415
NNNI7
I1
I0
tp9416
bS'SERVE10'
p9417
tp9418
Rp9419
ag2
(g3
(S'S6'
p9420
I0
I1
tp9421
Rp9422
(I3
S'|'
p9423
NNNI6
I1
I0
tp9424
bS'SERVE2'
p9425
tp9426
Rp9427
ag2
(g3
(S'S7'
p9428
I0
I1
tp9429
Rp9430
(I3
S'|'
p9431
NNNI7
I1
I0
tp9432
bS'SERVE10'
p9433
tp9434
Rp9435
ag2
(g3
(S'S6'
p9436
I0
I1
tp9437
Rp9438
(I3
S'|'
p9439
NNNI6
I1
I0
tp9440
bS'SERVE2'
p9441
tp9442
Rp9443
ag2
(g3
(S'S7'
p9444
I0
I1
tp9445
Rp9446
(I3
S'|'
p9447
NNNI7
I1
I0
tp9448
bS'SERVE10'
p9449
tp9450
Rp9451
ag2
(g3
(S'S7'
p9452
I0
I1
tp9453
Rp9454
(I3
S'|'
p9455
NNNI7
I1
I0
tp9456
bS'SERVE12'
p9457
tp9458
Rp9459
ag2
(g3
(S'S7'
p9460
I0
I1
tp9461
Rp9462
(I3
S'|'
p9463
NNNI7
I1
I0
tp9464
bS'SERVE10'
p9465
tp9466
Rp9467
ag2
(g3
(S'S6'
p9468
I0
I1
tp9469
Rp9470
(I3
S'|'
p9471
NNNI6
I1
I0
tp9472
bS'SERVE2'
p9473
tp9474
Rp9475
ag2
(g3
(S'S6'
p9476
I0
I1
tp9477
Rp9478
(I3
S'|'
p9479
NNNI6
I1
I0
tp9480
bS'SERVE2'
p9481
tp9482
Rp9483
ag2
(g3
(S'S7'
p9484
I0
I1
tp9485
Rp9486
(I3
S'|'
p9487
NNNI7
I1
I0
tp9488
bS'SERVE10'
p9489
tp9490
Rp9491
ag2
(g3
(S'S7'
p9492
I0
I1
tp9493
Rp9494
(I3
S'|'
p9495
NNNI7
I1
I0
tp9496
bS'SERVE10'
p9497
tp9498
Rp9499
ag2
(g3
(S'S6'
p9500
I0
I1
tp9501
Rp9502
(I3
S'|'
p9503
NNNI6
I1
I0
tp9504
bS'SERVE2'
p9505
tp9506
Rp9507
ag2
(g3
(S'S7'
p9508
I0
I1
tp9509
Rp9510
(I3
S'|'
p9511
NNNI7
I1
I0
tp9512
bS'SERVE10'
p9513
tp9514
Rp9515
ag2
(g3
(S'S7'
p9516
I0
I1
tp9517
Rp9518
(I3
S'|'
p9519
NNNI7
I1
I0
tp9520
bS'SERVE10'
p9521
tp9522
Rp9523
ag2
(g3
(S'S7'
p9524
I0
I1
tp9525
Rp9526
(I3
S'|'
p9527
NNNI7
I1
I0
tp9528
bS'SERVE10'
p9529
tp9530
Rp9531
ag2
(g3
(S'S7'
p9532
I0
I1
tp9533
Rp9534
(I3
S'|'
p9535
NNNI7
I1
I0
tp9536
bS'SERVE10'
p9537
tp9538
Rp9539
ag2
(g3
(S'S7'
p9540
I0
I1
tp9541
Rp9542
(I3
S'|'
p9543
NNNI7
I1
I0
tp9544
bS'SERVE10'
p9545
tp9546
Rp9547
ag2
(g3
(S'S7'
p9548
I0
I1
tp9549
Rp9550
(I3
S'|'
p9551
NNNI7
I1
I0
tp9552
bS'SERVE10'
p9553
tp9554
Rp9555
ag2
(g3
(S'S6'
p9556
I0
I1
tp9557
Rp9558
(I3
S'|'
p9559
NNNI6
I1
I0
tp9560
bS'SERVE2'
p9561
tp9562
Rp9563
ag2
(g3
(S'S7'
p9564
I0
I1
tp9565
Rp9566
(I3
S'|'
p9567
NNNI7
I1
I0
tp9568
bS'SERVE10'
p9569
tp9570
Rp9571
ag2
(g3
(S'S7'
p9572
I0
I1
tp9573
Rp9574
(I3
S'|'
p9575
NNNI7
I1
I0
tp9576
bS'SERVE12'
p9577
tp9578
Rp9579
ag2
(g3
(S'S7'
p9580
I0
I1
tp9581
Rp9582
(I3
S'|'
p9583
NNNI7
I1
I0
tp9584
bS'SERVE10'
p9585
tp9586
Rp9587
ag2
(g3
(S'S7'
p9588
I0
I1
tp9589
Rp9590
(I3
S'|'
p9591
NNNI7
I1
I0
tp9592
bS'SERVE10'
p9593
tp9594
Rp9595
ag2
(g3
(S'S7'
p9596
I0
I1
tp9597
Rp9598
(I3
S'|'
p9599
NNNI7
I1
I0
tp9600
bS'SERVE10'
p9601
tp9602
Rp9603
ag2
(g3
(S'S7'
p9604
I0
I1
tp9605
Rp9606
(I3
S'|'
p9607
NNNI7
I1
I0
tp9608
bS'SERVE10'
p9609
tp9610
Rp9611
ag2
(g3
(S'S7'
p9612
I0
I1
tp9613
Rp9614
(I3
S'|'
p9615
NNNI7
I1
I0
tp9616
bS'SERVE10'
p9617
tp9618
Rp9619
ag2
(g3
(S'S7'
p9620
I0
I1
tp9621
Rp9622
(I3
S'|'
p9623
NNNI7
I1
I0
tp9624
bS'SERVE10'
p9625
tp9626
Rp9627
ag2
(g3
(S'S6'
p9628
I0
I1
tp9629
Rp9630
(I3
S'|'
p9631
NNNI6
I1
I0
tp9632
bS'SERVE2'
p9633
tp9634
Rp9635
ag2
(g3
(S'S6'
p9636
I0
I1
tp9637
Rp9638
(I3
S'|'
p9639
NNNI6
I1
I0
tp9640
bS'SERVE2'
p9641
tp9642
Rp9643
ag2
(g3
(S'S6'
p9644
I0
I1
tp9645
Rp9646
(I3
S'|'
p9647
NNNI6
I1
I0
tp9648
bS'SERVE2'
p9649
tp9650
Rp9651
ag2
(g3
(S'S7'
p9652
I0
I1
tp9653
Rp9654
(I3
S'|'
p9655
NNNI7
I1
I0
tp9656
bS'SERVE10'
p9657
tp9658
Rp9659
ag2
(g3
(S'S6'
p9660
I0
I1
tp9661
Rp9662
(I3
S'|'
p9663
NNNI6
I1
I0
tp9664
bS'SERVE2'
p9665
tp9666
Rp9667
ag2
(g3
(S'S6'
p9668
I0
I1
tp9669
Rp9670
(I3
S'|'
p9671
NNNI6
I1
I0
tp9672
bS'SERVE2'
p9673
tp9674
Rp9675
ag2
(g3
(S'S7'
p9676
I0
I1
tp9677
Rp9678
(I3
S'|'
p9679
NNNI7
I1
I0
tp9680
bS'SERVE10'
p9681
tp9682
Rp9683
ag2
(g3
(S'S7'
p9684
I0
I1
tp9685
Rp9686
(I3
S'|'
p9687
NNNI7
I1
I0
tp9688
bS'SERVE12'
p9689
tp9690
Rp9691
ag2
(g3
(S'S6'
p9692
I0
I1
tp9693
Rp9694
(I3
S'|'
p9695
NNNI6
I1
I0
tp9696
bS'SERVE2'
p9697
tp9698
Rp9699
ag2
(g3
(S'S6'
p9700
I0
I1
tp9701
Rp9702
(I3
S'|'
p9703
NNNI6
I1
I0
tp9704
bS'SERVE2'
p9705
tp9706
Rp9707
ag2
(g3
(S'S6'
p9708
I0
I1
tp9709
Rp9710
(I3
S'|'
p9711
NNNI6
I1
I0
tp9712
bS'SERVE2'
p9713
tp9714
Rp9715
ag2
(g3
(S'S6'
p9716
I0
I1
tp9717
Rp9718
(I3
S'|'
p9719
NNNI6
I1
I0
tp9720
bS'SERVE2'
p9721
tp9722
Rp9723
ag2
(g3
(S'S7'
p9724
I0
I1
tp9725
Rp9726
(I3
S'|'
p9727
NNNI7
I1
I0
tp9728
bS'SERVE10'
p9729
tp9730
Rp9731
ag2
(g3
(S'S7'
p9732
I0
I1
tp9733
Rp9734
(I3
S'|'
p9735
NNNI7
I1
I0
tp9736
bS'SERVE10'
p9737
tp9738
Rp9739
ag2
(g3
(S'S6'
p9740
I0
I1
tp9741
Rp9742
(I3
S'|'
p9743
NNNI6
I1
I0
tp9744
bS'SERVE2'
p9745
tp9746
Rp9747
ag2
(g3
(S'S6'
p9748
I0
I1
tp9749
Rp9750
(I3
S'|'
p9751
NNNI6
I1
I0
tp9752
bS'SERVE2'
p9753
tp9754
Rp9755
ag2
(g3
(S'S6'
p9756
I0
I1
tp9757
Rp9758
(I3
S'|'
p9759
NNNI6
I1
I0
tp9760
bS'SERVE2'
p9761
tp9762
Rp9763
ag2
(g3
(S'S7'
p9764
I0
I1
tp9765
Rp9766
(I3
S'|'
p9767
NNNI7
I1
I0
tp9768
bS'SERVE10'
p9769
tp9770
Rp9771
ag2
(g3
(S'S6'
p9772
I0
I1
tp9773
Rp9774
(I3
S'|'
p9775
NNNI6
I1
I0
tp9776
bS'SERVE2'
p9777
tp9778
Rp9779
ag2
(g3
(S'S6'
p9780
I0
I1
tp9781
Rp9782
(I3
S'|'
p9783
NNNI6
I1
I0
tp9784
bS'SERVE2'
p9785
tp9786
Rp9787
ag2
(g3
(S'S6'
p9788
I0
I1
tp9789
Rp9790
(I3
S'|'
p9791
NNNI6
I1
I0
tp9792
bS'SERVE2'
p9793
tp9794
Rp9795
ag2
(g3
(S'S7'
p9796
I0
I1
tp9797
Rp9798
(I3
S'|'
p9799
NNNI7
I1
I0
tp9800
bS'SERVE10'
p9801
tp9802
Rp9803
ag2
(g3
(S'S6'
p9804
I0
I1
tp9805
Rp9806
(I3
S'|'
p9807
NNNI6
I1
I0
tp9808
bS'SERVE2'
p9809
tp9810
Rp9811
ag2
(g3
(S'S6'
p9812
I0
I1
tp9813
Rp9814
(I3
S'|'
p9815
NNNI6
I1
I0
tp9816
bS'SERVE2'
p9817
tp9818
Rp9819
ag2
(g3
(S'S7'
p9820
I0
I1
tp9821
Rp9822
(I3
S'|'
p9823
NNNI7
I1
I0
tp9824
bS'SERVE10'
p9825
tp9826
Rp9827
ag2
(g3
(S'S7'
p9828
I0
I1
tp9829
Rp9830
(I3
S'|'
p9831
NNNI7
I1
I0
tp9832
bS'SERVE10'
p9833
tp9834
Rp9835
ag2
(g3
(S'S6'
p9836
I0
I1
tp9837
Rp9838
(I3
S'|'
p9839
NNNI6
I1
I0
tp9840
bS'SERVE2'
p9841
tp9842
Rp9843
ag2
(g3
(S'S7'
p9844
I0
I1
tp9845
Rp9846
(I3
S'|'
p9847
NNNI7
I1
I0
tp9848
bS'SERVE10'
p9849
tp9850
Rp9851
ag2
(g3
(S'S7'
p9852
I0
I1
tp9853
Rp9854
(I3
S'|'
p9855
NNNI7
I1
I0
tp9856
bS'SERVE10'
p9857
tp9858
Rp9859
ag2
(g3
(S'S7'
p9860
I0
I1
tp9861
Rp9862
(I3
S'|'
p9863
NNNI7
I1
I0
tp9864
bS'SERVE10'
p9865
tp9866
Rp9867
ag2
(g3
(S'S7'
p9868
I0
I1
tp9869
Rp9870
(I3
S'|'
p9871
NNNI7
I1
I0
tp9872
bS'SERVE12'
p9873
tp9874
Rp9875
ag2
(g3
(S'S6'
p9876
I0
I1
tp9877
Rp9878
(I3
S'|'
p9879
NNNI6
I1
I0
tp9880
bS'SERVE2'
p9881
tp9882
Rp9883
ag2
(g3
(S'S7'
p9884
I0
I1
tp9885
Rp9886
(I3
S'|'
p9887
NNNI7
I1
I0
tp9888
bS'SERVE10'
p9889
tp9890
Rp9891
ag2
(g3
(S'S7'
p9892
I0
I1
tp9893
Rp9894
(I3
S'|'
p9895
NNNI7
I1
I0
tp9896
bS'SERVE10'
p9897
tp9898
Rp9899
ag2
(g3
(S'S6'
p9900
I0
I1
tp9901
Rp9902
(I3
S'|'
p9903
NNNI6
I1
I0
tp9904
bS'SERVE2'
p9905
tp9906
Rp9907
ag2
(g3
(S'S6'
p9908
I0
I1
tp9909
Rp9910
(I3
S'|'
p9911
NNNI6
I1
I0
tp9912
bS'SERVE2'
p9913
tp9914
Rp9915
ag2
(g3
(S'S6'
p9916
I0
I1
tp9917
Rp9918
(I3
S'|'
p9919
NNNI6
I1
I0
tp9920
bS'SERVE2'
p9921
tp9922
Rp9923
ag2
(g3
(S'S6'
p9924
I0
I1
tp9925
Rp9926
(I3
S'|'
p9927
NNNI6
I1
I0
tp9928
bS'SERVE2'
p9929
tp9930
Rp9931
ag2
(g3
(S'S7'
p9932
I0
I1
tp9933
Rp9934
(I3
S'|'
p9935
NNNI7
I1
I0
tp9936
bS'SERVE10'
p9937
tp9938
Rp9939
ag2
(g3
(S'S6'
p9940
I0
I1
tp9941
Rp9942
(I3
S'|'
p9943
NNNI6
I1
I0
tp9944
bS'SERVE2'
p9945
tp9946
Rp9947
ag2
(g3
(S'S7'
p9948
I0
I1
tp9949
Rp9950
(I3
S'|'
p9951
NNNI7
I1
I0
tp9952
bS'SERVE10'
p9953
tp9954
Rp9955
ag2
(g3
(S'S6'
p9956
I0
I1
tp9957
Rp9958
(I3
S'|'
p9959
NNNI6
I1
I0
tp9960
bS'SERVE2'
p9961
tp9962
Rp9963
ag2
(g3
(S'S6'
p9964
I0
I1
tp9965
Rp9966
(I3
S'|'
p9967
NNNI6
I1
I0
tp9968
bS'SERVE2'
p9969
tp9970
Rp9971
ag2
(g3
(S'S7'
p9972
I0
I1
tp9973
Rp9974
(I3
S'|'
p9975
NNNI7
I1
I0
tp9976
bS'SERVE10'
p9977
tp9978
Rp9979
ag2
(g3
(S'S7'
p9980
I0
I1
tp9981
Rp9982
(I3
S'|'
p9983
NNNI7
I1
I0
tp9984
bS'SERVE10'
p9985
tp9986
Rp9987
ag2
(g3
(S'S7'
p9988
I0
I1
tp9989
Rp9990
(I3
S'|'
p9991
NNNI7
I1
I0
tp9992
bS'SERVE10'
p9993
tp9994
Rp9995
ag2
(g3
(S'S7'
p9996
I0
I1
tp9997
Rp9998
(I3
S'|'
p9999
NNNI7
I1
I0
tp10000
bS'SERVE10'
p10001
tp10002
Rp10003
ag2
(g3
(S'S7'
p10004
I0
I1
tp10005
Rp10006
(I3
S'|'
p10007
NNNI7
I1
I0
tp10008
bS'SERVE10'
p10009
tp10010
Rp10011
ag2
(g3
(S'S6'
p10012
I0
I1
tp10013
Rp10014
(I3
S'|'
p10015
NNNI6
I1
I0
tp10016
bS'SERVE2'
p10017
tp10018
Rp10019
ag2
(g3
(S'S7'
p10020
I0
I1
tp10021
Rp10022
(I3
S'|'
p10023
NNNI7
I1
I0
tp10024
bS'SERVE10'
p10025
tp10026
Rp10027
ag2
(g3
(S'S6'
p10028
I0
I1
tp10029
Rp10030
(I3
S'|'
p10031
NNNI6
I1
I0
tp10032
bS'SERVE2'
p10033
tp10034
Rp10035
ag2
(g3
(S'S7'
p10036
I0
I1
tp10037
Rp10038
(I3
S'|'
p10039
NNNI7
I1
I0
tp10040
bS'SERVE10'
p10041
tp10042
Rp10043
ag2
(g3
(S'S6'
p10044
I0
I1
tp10045
Rp10046
(I3
S'|'
p10047
NNNI6
I1
I0
tp10048
bS'SERVE2'
p10049
tp10050
Rp10051
ag2
(g3
(S'S7'
p10052
I0
I1
tp10053
Rp10054
(I3
S'|'
p10055
NNNI7
I1
I0
tp10056
bS'SERVE10'
p10057
tp10058
Rp10059
ag2
(g3
(S'S7'
p10060
I0
I1
tp10061
Rp10062
(I3
S'|'
p10063
NNNI7
I1
I0
tp10064
bS'SERVE10'
p10065
tp10066
Rp10067
ag2
(g3
(S'S7'
p10068
I0
I1
tp10069
Rp10070
(I3
S'|'
p10071
NNNI7
I1
I0
tp10072
bS'SERVE10'
p10073
tp10074
Rp10075
ag2
(g3
(S'S7'
p10076
I0
I1
tp10077
Rp10078
(I3
S'|'
p10079
NNNI7
I1
I0
tp10080
bS'SERVE10'
p10081
tp10082
Rp10083
ag2
(g3
(S'S7'
p10084
I0
I1
tp10085
Rp10086
(I3
S'|'
p10087
NNNI7
I1
I0
tp10088
bS'SERVE10'
p10089
tp10090
Rp10091
ag2
(g3
(S'S7'
p10092
I0
I1
tp10093
Rp10094
(I3
S'|'
p10095
NNNI7
I1
I0
tp10096
bS'SERVE10'
p10097
tp10098
Rp10099
ag2
(g3
(S'S6'
p10100
I0
I1
tp10101
Rp10102
(I3
S'|'
p10103
NNNI6
I1
I0
tp10104
bS'SERVE2'
p10105
tp10106
Rp10107
ag2
(g3
(S'S7'
p10108
I0
I1
tp10109
Rp10110
(I3
S'|'
p10111
NNNI7
I1
I0
tp10112
bS'SERVE10'
p10113
tp10114
Rp10115
ag2
(g3
(S'S6'
p10116
I0
I1
tp10117
Rp10118
(I3
S'|'
p10119
NNNI6
I1
I0
tp10120
bS'SERVE2'
p10121
tp10122
Rp10123
ag2
(g3
(S'S7'
p10124
I0
I1
tp10125
Rp10126
(I3
S'|'
p10127
NNNI7
I1
I0
tp10128
bS'SERVE10'
p10129
tp10130
Rp10131
ag2
(g3
(S'S7'
p10132
I0
I1
tp10133
Rp10134
(I3
S'|'
p10135
NNNI7
I1
I0
tp10136
bS'SERVE10'
p10137
tp10138
Rp10139
ag2
(g3
(S'S7'
p10140
I0
I1
tp10141
Rp10142
(I3
S'|'
p10143
NNNI7
I1
I0
tp10144
bS'SERVE10'
p10145
tp10146
Rp10147
ag2
(g3
(S'S6'
p10148
I0
I1
tp10149
Rp10150
(I3
S'|'
p10151
NNNI6
I1
I0
tp10152
bS'SERVE6'
p10153
tp10154
Rp10155
ag2
(g3
(S'S7'
p10156
I0
I1
tp10157
Rp10158
(I3
S'|'
p10159
NNNI7
I1
I0
tp10160
bS'SERVE10'
p10161
tp10162
Rp10163
ag2
(g3
(S'S7'
p10164
I0
I1
tp10165
Rp10166
(I3
S'|'
p10167
NNNI7
I1
I0
tp10168
bS'SERVE10'
p10169
tp10170
Rp10171
ag2
(g3
(S'S7'
p10172
I0
I1
tp10173
Rp10174
(I3
S'|'
p10175
NNNI7
I1
I0
tp10176
bS'SERVE10'
p10177
tp10178
Rp10179
ag2
(g3
(S'S7'
p10180
I0
I1
tp10181
Rp10182
(I3
S'|'
p10183
NNNI7
I1
I0
tp10184
bS'SERVE10'
p10185
tp10186
Rp10187
ag2
(g3
(S'S6'
p10188
I0
I1
tp10189
Rp10190
(I3
S'|'
p10191
NNNI6
I1
I0
tp10192
bS'SERVE2'
p10193
tp10194
Rp10195
ag2
(g3
(S'S7'
p10196
I0
I1
tp10197
Rp10198
(I3
S'|'
p10199
NNNI7
I1
I0
tp10200
bS'SERVE10'
p10201
tp10202
Rp10203
ag2
(g3
(S'S7'
p10204
I0
I1
tp10205
Rp10206
(I3
S'|'
p10207
NNNI7
I1
I0
tp10208
bS'SERVE10'
p10209
tp10210
Rp10211
ag2
(g3
(S'S7'
p10212
I0
I1
tp10213
Rp10214
(I3
S'|'
p10215
NNNI7
I1
I0
tp10216
bS'SERVE10'
p10217
tp10218
Rp10219
ag2
(g3
(S'S7'
p10220
I0
I1
tp10221
Rp10222
(I3
S'|'
p10223
NNNI7
I1
I0
tp10224
bS'SERVE10'
p10225
tp10226
Rp10227
ag2
(g3
(S'S7'
p10228
I0
I1
tp10229
Rp10230
(I3
S'|'
p10231
NNNI7
I1
I0
tp10232
bS'SERVE10'
p10233
tp10234
Rp10235
ag2
(g3
(S'S7'
p10236
I0
I1
tp10237
Rp10238
(I3
S'|'
p10239
NNNI7
I1
I0
tp10240
bS'SERVE10'
p10241
tp10242
Rp10243
ag2
(g3
(S'S7'
p10244
I0
I1
tp10245
Rp10246
(I3
S'|'
p10247
NNNI7
I1
I0
tp10248
bS'SERVE10'
p10249
tp10250
Rp10251
ag2
(g3
(S'S7'
p10252
I0
I1
tp10253
Rp10254
(I3
S'|'
p10255
NNNI7
I1
I0
tp10256
bS'SERVE10'
p10257
tp10258
Rp10259
ag2
(g3
(S'S7'
p10260
I0
I1
tp10261
Rp10262
(I3
S'|'
p10263
NNNI7
I1
I0
tp10264
bS'SERVE10'
p10265
tp10266
Rp10267
ag2
(g3
(S'S7'
p10268
I0
I1
tp10269
Rp10270
(I3
S'|'
p10271
NNNI7
I1
I0
tp10272
bS'SERVE10'
p10273
tp10274
Rp10275
ag2
(g3
(S'S7'
p10276
I0
I1
tp10277
Rp10278
(I3
S'|'
p10279
NNNI7
I1
I0
tp10280
bS'SERVE10'
p10281
tp10282
Rp10283
ag2
(g3
(S'S6'
p10284
I0
I1
tp10285
Rp10286
(I3
S'|'
p10287
NNNI6
I1
I0
tp10288
bS'SERVE6'
p10289
tp10290
Rp10291
ag2
(g3
(S'S7'
p10292
I0
I1
tp10293
Rp10294
(I3
S'|'
p10295
NNNI7
I1
I0
tp10296
bS'SERVE10'
p10297
tp10298
Rp10299
ag2
(g3
(S'S7'
p10300
I0
I1
tp10301
Rp10302
(I3
S'|'
p10303
NNNI7
I1
I0
tp10304
bS'SERVE10'
p10305
tp10306
Rp10307
ag2
(g3
(S'S6'
p10308
I0
I1
tp10309
Rp10310
(I3
S'|'
p10311
NNNI6
I1
I0
tp10312
bS'SERVE6'
p10313
tp10314
Rp10315
ag2
(g3
(S'S7'
p10316
I0
I1
tp10317
Rp10318
(I3
S'|'
p10319
NNNI7
I1
I0
tp10320
bS'SERVE10'
p10321
tp10322
Rp10323
ag2
(g3
(S'S7'
p10324
I0
I1
tp10325
Rp10326
(I3
S'|'
p10327
NNNI7
I1
I0
tp10328
bS'SERVE10'
p10329
tp10330
Rp10331
ag2
(g3
(S'S7'
p10332
I0
I1
tp10333
Rp10334
(I3
S'|'
p10335
NNNI7
I1
I0
tp10336
bS'SERVE10'
p10337
tp10338
Rp10339
ag2
(g3
(S'S7'
p10340
I0
I1
tp10341
Rp10342
(I3
S'|'
p10343
NNNI7
I1
I0
tp10344
bS'SERVE10'
p10345
tp10346
Rp10347
ag2
(g3
(S'S7'
p10348
I0
I1
tp10349
Rp10350
(I3
S'|'
p10351
NNNI7
I1
I0
tp10352
bS'SERVE10'
p10353
tp10354
Rp10355
ag2
(g3
(S'S6'
p10356
I0
I1
tp10357
Rp10358
(I3
S'|'
p10359
NNNI6
I1
I0
tp10360
bS'SERVE6'
p10361
tp10362
Rp10363
ag2
(g3
(S'S7'
p10364
I0
I1
tp10365
Rp10366
(I3
S'|'
p10367
NNNI7
I1
I0
tp10368
bS'SERVE10'
p10369
tp10370
Rp10371
ag2
(g3
(S'S7'
p10372
I0
I1
tp10373
Rp10374
(I3
S'|'
p10375
NNNI7
I1
I0
tp10376
bS'SERVE10'
p10377
tp10378
Rp10379
ag2
(g3
(S'S7'
p10380
I0
I1
tp10381
Rp10382
(I3
S'|'
p10383
NNNI7
I1
I0
tp10384
bS'SERVE10'
p10385
tp10386
Rp10387
ag2
(g3
(S'S6'
p10388
I0
I1
tp10389
Rp10390
(I3
S'|'
p10391
NNNI6
I1
I0
tp10392
bS'SERVE6'
p10393
tp10394
Rp10395
ag2
(g3
(S'S7'
p10396
I0
I1
tp10397
Rp10398
(I3
S'|'
p10399
NNNI7
I1
I0
tp10400
bS'SERVE10'
p10401
tp10402
Rp10403
ag2
(g3
(S'S7'
p10404
I0
I1
tp10405
Rp10406
(I3
S'|'
p10407
NNNI7
I1
I0
tp10408
bS'SERVE10'
p10409
tp10410
Rp10411
ag2
(g3
(S'S6'
p10412
I0
I1
tp10413
Rp10414
(I3
S'|'
p10415
NNNI6
I1
I0
tp10416
bS'SERVE2'
p10417
tp10418
Rp10419
ag2
(g3
(S'S7'
p10420
I0
I1
tp10421
Rp10422
(I3
S'|'
p10423
NNNI7
I1
I0
tp10424
bS'SERVE10'
p10425
tp10426
Rp10427
ag2
(g3
(S'S7'
p10428
I0
I1
tp10429
Rp10430
(I3
S'|'
p10431
NNNI7
I1
I0
tp10432
bS'SERVE10'
p10433
tp10434
Rp10435
ag2
(g3
(S'S7'
p10436
I0
I1
tp10437
Rp10438
(I3
S'|'
p10439
NNNI7
I1
I0
tp10440
bS'SERVE10'
p10441
tp10442
Rp10443
ag2
(g3
(S'S7'
p10444
I0
I1
tp10445
Rp10446
(I3
S'|'
p10447
NNNI7
I1
I0
tp10448
bS'SERVE10'
p10449
tp10450
Rp10451
ag2
(g3
(S'S6'
p10452
I0
I1
tp10453
Rp10454
(I3
S'|'
p10455
NNNI6
I1
I0
tp10456
bS'SERVE6'
p10457
tp10458
Rp10459
ag2
(g3
(S'S7'
p10460
I0
I1
tp10461
Rp10462
(I3
S'|'
p10463
NNNI7
I1
I0
tp10464
bS'SERVE10'
p10465
tp10466
Rp10467
ag2
(g3
(S'S7'
p10468
I0
I1
tp10469
Rp10470
(I3
S'|'
p10471
NNNI7
I1
I0
tp10472
bS'SERVE10'
p10473
tp10474
Rp10475
ag2
(g3
(S'S7'
p10476
I0
I1
tp10477
Rp10478
(I3
S'|'
p10479
NNNI7
I1
I0
tp10480
bS'SERVE10'
p10481
tp10482
Rp10483
ag2
(g3
(S'S7'
p10484
I0
I1
tp10485
Rp10486
(I3
S'|'
p10487
NNNI7
I1
I0
tp10488
bS'SERVE10'
p10489
tp10490
Rp10491
ag2
(g3
(S'S7'
p10492
I0
I1
tp10493
Rp10494
(I3
S'|'
p10495
NNNI7
I1
I0
tp10496
bS'SERVE10'
p10497
tp10498
Rp10499
aa.